 ship_server

 Timestamp is 52cf1395 (Thu Jan 09 21:24:37 2014)

 Preferred load address is 00400000

 Start         Length     Name                   Class
 0001:00000000 00002ebaH .text                   CODE
 0001:00002ec0 000b61d0H .text$mn                CODE
 0001:000b9090 00001187H .text$x                 CODE
 0002:00000000 00000104H .CRT$XCA                DATA
 0002:00000104 00000104H .CRT$XCZ                DATA
 0002:00000208 00000104H .CRT$XIA                DATA
 0002:0000030c 00000113H .CRT$XIC                DATA
 0002:00000420 00000104H .CRT$XIY                DATA
 0002:00000524 00000104H .CRT$XIZ                DATA
 0002:00000628 00000104H .CRT$XPA                DATA
 0002:0000072c 00000109H .CRT$XPX                DATA
 0002:00000838 00000104H .CRT$XPXA               DATA
 0002:0000093c 00000104H .CRT$XPZ                DATA
 0002:00000a40 00000104H .CRT$XTA                DATA
 0002:00000b44 00000104H .CRT$XTZ                DATA
 0002:00000c50 0001be44H .rdata                  DATA
 0002:0001ca94 00000190H .rdata$debug            DATA
 0002:0001cc24 0000053cH .rdata$r                DATA
 0002:0001d160 00000139H .rdata$sxdata           DATA
 0002:0001d29c 00000104H .rtc$IAA                DATA
 0002:0001d3a0 00000109H .rtc$IMZ                DATA
 0002:0001d4ac 00000104H .rtc$IZZ                DATA
 0002:0001d5b0 00000104H .rtc$TAA                DATA
 0002:0001d6b4 00000109H .rtc$TMZ                DATA
 0002:0001d7c0 00000104H .rtc$TZZ                DATA
 0002:0001d8c8 000011b0H .xdata$x                DATA
 0002:0001ea78 00000000H .edata                  DATA
 0003:00000000 00003e74H .data                   DATA
 0003:00003e74 00000292H .data$r                 DATA
 0003:00004120 021f6ca4H .bss                    DATA
 0004:00000000 00000324H .idata$5                DATA
 0004:00000324 00000064H .idata$2                DATA
 0004:00000388 00000014H .idata$3                DATA
 0004:0000039c 00000324H .idata$4                DATA
 0004:000006c0 0000099eH .idata$6                DATA
 0005:00000000 00000216H .rsrc$01                DATA
 0005:00000220 00001219H .rsrc$02                DATA

  Address         Publics by Value              Rva+Base       Lib:Object

 0000:00000000       __except_list              00000000     <absolute>
 0000:00000000       ___guard_fids_count        00000000     <absolute>
 0000:00000000       ___guard_fids_table        00000000     <absolute>
 0000:00000000       ___guard_flags             00000000     <absolute>
 0000:0000000c       ___safe_se_handler_count   0000000c     <absolute>
 0000:00000000       ___ImageBase               00400000     <linker-defined>
 0001:00000690       _mts_lrand                 00401690 f   mtwist:mtwist.obj
 0001:00000740       _mts_llrand                00401740 f   mtwist:mtwist.obj
 0001:000008d0       _mts_drand                 004018d0 f   mtwist:mtwist.obj
 0001:000009a0       _mts_ldrand                004019a0 f   mtwist:mtwist.obj
 0001:00000b60       _mt_lrand                  00401b60 f   mtwist:mtwist.obj
 0001:00000c00       _mt_llrand                 00401c00 f   mtwist:mtwist.obj
 0001:00000d60       _mt_drand                  00401d60 f   mtwist:mtwist.obj
 0001:00000e30       _mt_ldrand                 00401e30 f   mtwist:mtwist.obj
 0001:00000fd0       _mts_mark_initialized      00401fd0 f   mtwist:mtwist.obj
 0001:00001070       _mts_seed32                00402070 f   mtwist:mtwist.obj
 0001:00001120       _mts_seed32new             00402120 f   mtwist:mtwist.obj
 0001:000011f0       _mts_seedfull              004021f0 f   mtwist:mtwist.obj
 0001:000012a0       _mts_seed                  004022a0 f   mtwist:mtwist.obj
 0001:000012f0       _mts_goodseed              004022f0 f   mtwist:mtwist.obj
 0001:000014c0       _mts_bestseed              004024c0 f   mtwist:mtwist.obj
 0001:00001580       _mts_refresh               00402580 f   mtwist:mtwist.obj
 0001:000017c0       _mts_savestate             004027c0 f   mtwist:mtwist.obj
 0001:00001870       _mts_loadstate             00402870 f   mtwist:mtwist.obj
 0001:00001960       _mt_seed32                 00402960 f   mtwist:mtwist.obj
 0001:000019b0       _mt_seed32new              004029b0 f   mtwist:mtwist.obj
 0001:00001a00       _mt_seedfull               00402a00 f   mtwist:mtwist.obj
 0001:00001a50       _mt_seed                   00402a50 f   mtwist:mtwist.obj
 0001:00001a90       _mt_goodseed               00402a90 f   mtwist:mtwist.obj
 0001:00001ad0       _mt_bestseed               00402ad0 f   mtwist:mtwist.obj
 0001:00001b10       _mt_getstate               00402b10 f   mtwist:mtwist.obj
 0001:00001b40       _mt_savestate              00402b40 f   mtwist:mtwist.obj
 0001:00001b90       _mt_loadstate              00402b90 f   mtwist:mtwist.obj
 0001:00002ec0       _AddExp                    00403ec0 f   ship_server.obj
 0001:00003490       _AddGuildCard              00404490 f   ship_server.obj
 0001:000035f0       _AddItemToClient           004045f0 f   ship_server.obj
 0001:00003b80       _AddPB                     00404b80 f   ship_server.obj
 0001:00003db0       _AddTeamMember             00404db0 f   ship_server.obj
 0001:00003e80       _AddToInventory            00404e80 f   ship_server.obj
 0001:00004510       _BlockProcessPacket        00405510 f   ship_server.obj
 0001:00006630       _BroadcastToAll            00407630 f   ship_server.obj
 0001:00006b00       _CalculateChecksum         00407b00 f   ship_server.obj
 0001:00006bd0       _CheckMagEvolution         00407bd0 f   ship_server.obj
 0001:00006d20       _CheckMaxGrind             00407d20 f   ship_server.obj
 0001:00006df0       _CleanUpBank               00407df0 f   ship_server.obj
 0001:00006fb0       _CleanUpGameInventory      00407fb0 f   ship_server.obj
 0001:000070c0       _CleanUpInventory          004080c0 f   ship_server.obj
 0001:00007200       _Command09                 00408200 f   ship_server.obj
 0001:000082c0       _Command10                 004092c0 f   ship_server.obj
 0001:0000a7a0       _Command40                 0040b7a0 f   ship_server.obj
 0001:0000a8d0       _Command81                 0040b8d0 f   ship_server.obj
 0001:0000aaa0       _CommandD8                 0040baa0 f   ship_server.obj
 0001:0000ace0       _CommandD9                 0040bce0 f   ship_server.obj
 0001:0000ae10       _CommandE8                 0040be10 f   ship_server.obj
 0001:0000b220       _CommandEA                 0040c220 f   ship_server.obj
 0001:0000c110       _CommandED                 0040d110 f   ship_server.obj
 0001:0000c340       _ConstructBlockPacket      0040d340 f   ship_server.obj
 0001:0000c800       _CreateTeam                0040d800 f   ship_server.obj
 0001:0000c970       _DeequipItem               0040d970 f   ship_server.obj
 0001:0000ce40       _DeleteFromInventory       0040de40 f   ship_server.obj
 0001:0000d440       _DeleteGuildCard           0040e440 f   ship_server.obj
 0001:0000d510       _DeleteItemFromClient      0040e510 f   ship_server.obj
 0001:0000dc80       _DeleteMesetaFromClient    0040ec80 f   ship_server.obj
 0001:0000e0f0       _DepositIntoBank           0040f0f0 f   ship_server.obj
 0001:0000e7c0       _DissolveTeam              0040f7c0 f   ship_server.obj
 0001:0000e870       _EquipItem                 0040f870 f   ship_server.obj
 0001:0000f190       _ExpandDropRate            00410190 f   ship_server.obj
 0001:0000f200       _FeedMag                   00410200 f   ship_server.obj
 0001:00010390       _FixItem                   00411390 f   ship_server.obj
 0001:000109e0       _FreeCSV                   004119e0 f   ship_server.obj
 0001:00010ad0       _GenerateCommonItem        00411ad0 f   ship_server.obj
 0001:00011ff0       _GenerateRandomAttributes  00412ff0 f   ship_server.obj
 0001:00012f40       _GetShopPrice              00413f40 f   ship_server.obj
 0001:00013950       _GlobalBroadcast           00414950 f   ship_server.obj
 0001:00013bc0       _LoadArmorParam            00414bc0 f   ship_server.obj
 0001:00013ed0       _LoadBattleParam           00414ed0 f   ship_server.obj
 0001:00014070       _LoadCSV                   00415070 f   ship_server.obj
 0001:000144b0       _LoadMapData               004154b0 f   ship_server.obj
 0001:000145f0       _LoadObjectData            004155f0 f   ship_server.obj
 0001:00014950       _LoadQuests                00415950 f   ship_server.obj
 0001:00016950       _LoadShopData2             00417950 f   ship_server.obj
 0001:00016a30       _LoadTechParam             00417a30 f   ship_server.obj
 0001:00016bc0       _LoadWeaponParam           00417bc0 f   ship_server.obj
 0001:00016df0       _LogonProcessPacket        00417df0 f   ship_server.obj
 0001:0001af10       _MagAlignment              0041bf10 f   ship_server.obj
 0001:0001b060       _MagLV10Evolution          0041c060 f   ship_server.obj
 0001:0001b170       _MagLV35Evolution          0041c170 f   ship_server.obj
 0001:0001b430       _MagLV50Evolution          0041c430 f   ship_server.obj
 0001:0001bd70       _MagSpecialEvolution       0041cd70 f   ship_server.obj
 0001:0001c100       _MakePacketEA15            0041d100 f   ship_server.obj
 0001:0001c2f0       _ModifyGuildCardComment    0041d2f0 f   ship_server.obj
 0001:0001c4a0       _ParseMapData              0041d4a0 f   ship_server.obj
 0001:0001e890       _PrepGuildCard             0041f890 f   ship_server.obj
 0001:0001e9f0       _PreppedGuildCard          0041f9f0 f   ship_server.obj
 0001:0001eb80       _PromoteTeamMember         0041fb80 f   ship_server.obj
 0001:0001ec70       _RemoveTeamMember          0041fc70 f   ship_server.obj
 0001:0001ed40       _RequestTeamList           0041fd40 f   ship_server.obj
 0001:0001ee10       _RleDecode                 0041fe10 f   ship_server.obj
 0001:0001ef20       _RleEncode                 0041ff20 f   ship_server.obj
 0001:0001f0c0       _Send01                    004200c0 f   ship_server.obj
 0001:0001f3d0       _Send06                    004203d0 f   ship_server.obj
 0001:000234d0       _Send07                    004244d0 f   ship_server.obj
 0001:00023560       _Send08                    00424560 f   ship_server.obj
 0001:00023ce0       _Send19                    00424ce0 f   ship_server.obj
 0001:00023e10       _Send1A                    00424e10 f   ship_server.obj
 0001:00024040       _Send1D                    00425040 f   ship_server.obj
 0001:00024150       _Send60                    00425150 f   ship_server.obj
 0001:000292d0       _Send62                    0042a2d0 f   ship_server.obj
 0001:0002e0f0       _Send64                    0042f0f0 f   ship_server.obj
 0001:0002e950       _Send67                    0042f950 f   ship_server.obj
 0001:0002f170       _Send6D                    00430170 f   ship_server.obj
 0001:0002f6a0       _Send83                    004306a0 f   ship_server.obj
 0001:0002f720       _Send95                    00430720 f   ship_server.obj
 0001:0002f880       _SendA0                    00430880 f   ship_server.obj
 0001:0002f910       _SendA2                    00430910 f   ship_server.obj
 0001:00030b00       _SendB0                    00431b00 f   ship_server.obj
 0001:00030d30       _SendEA                    00431d30 f   ship_server.obj
 0001:00031bf0       _SendEE                    00432bf0 f   ship_server.obj
 0001:00031e20       _SendItemToEnd             00432e20 f   ship_server.obj
 0001:00031fc0       _SendToLobby               00432fc0 f   ship_server.obj
 0001:000320c0       _ShipProcessPacket         004330c0 f   ship_server.obj
 0001:00032540       _ShipSend04                00433540 f   ship_server.obj
 0001:000327e0       _ShipSend0B                004337e0 f   ship_server.obj
 0001:00032a20       _ShipSend0D                00433a20 f   ship_server.obj
 0001:00032af0       _ShipSend0E                00433af0 f   ship_server.obj
 0001:00032bd0       _ShowArrows                00433bd0 f   ship_server.obj
 0001:00032e00       _SkipToLevel               00433e00 f   ship_server.obj
 0001:000333b0       _SortBankItems             004343b0 f   ship_server.obj
 0001:00033700       _SortClientItems           00434700 f   ship_server.obj
 0001:000338f0       _SortGuildCard             004348f0 f   ship_server.obj
 0001:00033a10       _TeamChat                  00434a10 f   ship_server.obj
 0001:00033b50       _Unicode_to_ASCII          00434b50 f   ship_server.obj
 0001:00033c30       _UpdateGameItem            00434c30 f   ship_server.obj
 0001:00033d40       _UpdateTeamFlag            00434d40 f   ship_server.obj
 0001:00033e30       _UseItem                   00434e30 f   ship_server.obj
 0001:00037460       _WithdrawFromBank          00438460 f   ship_server.obj
 0001:00037c30       _WndProc@16                00438c30 f   ship_server.obj
 0001:00037d80       _WriteGM                   00438d80 f   ship_server.obj
 0001:00037f80       _WriteLog                  00438f80 f   ship_server.obj
 0001:00038180       _ban                       00439180 f   ship_server.obj
 0001:00038480       _check_equip               00439480 f   ship_server.obj
 0001:00038520       _compressShipPacket        00439520 f   ship_server.obj
 0001:00038650       _convertIPString           00439650 f   ship_server.obj
 0001:000388f0       _convertMask               004398f0 f   ship_server.obj
 0001:00038b60       _debug                     00439b60 f   ship_server.obj
 0001:00038c60       _debug_perror              00439c60 f   ship_server.obj
 0001:00038cd0       _decompressShipPacket      00439cd0 f   ship_server.obj
 0001:00038df0       _decryptcopy               00439df0 f   ship_server.obj
 0001:00038e70       _display_packet            00439e70 f   ship_server.obj
 0001:00038ef0       _encryptcopy               00439ef0 f   ship_server.obj
 0001:00039030       _free_connection           0043a030 f   ship_server.obj
 0001:000390b0       _free_game                 0043a0b0 f   ship_server.obj
 0001:00039140       _free_game_item            0043a140 f   ship_server.obj
 0001:00039330       _getbit                    0043a330 f   ship_server.obj
 0001:00039390       _hexToByte                 0043a390 f   ship_server.obj
 0001:00039480       _initialize_connection     0043a480 f   ship_server.obj
 0001:00039720       _initialize_game           0043a720 f   ship_server.obj
 0001:0003c670       _initialize_logon          0043d670 f   ship_server.obj
 0001:0003c780       _isLocalGM                 0043d780 f   ship_server.obj
 0001:0003c800       _load_config_file          0043d800 f   ship_server.obj
 0001:0003d290       _load_language_file        0043e290 f   ship_server.obj
 0001:0003d760       _load_mask_file            0043e760 f   ship_server.obj
 0001:0003d9c0       _main                      0043e9c0 f   ship_server.obj
 0001:000424e0       _packet_to_text            004434e0 f   ship_server.obj
 0001:000427b0       _playerHasRights           004437b0 f   ship_server.obj
 0001:00042870       _prepare_key               00443870 f   ship_server.obj
 0001:000429e0       _prs_compress              004439e0 f   ship_server.obj
 0001:00042c50       _prs_copy                  00443c50 f   ship_server.obj
 0001:00042cf0       _prs_decompress            00443cf0 f   ship_server.obj
 0001:00043080       _prs_decompress_size       00444080 f   ship_server.obj
 0001:000433d0       _prs_finish                004443d0 f   ship_server.obj
 0001:00043490       _prs_get_static_data       00444490 f   ship_server.obj
 0001:000434f0       _prs_init                  004444f0 f   ship_server.obj
 0001:00043580       _prs_longcopy              00444580 f   ship_server.obj
 0001:000436d0       _prs_put_control_bit       004446d0 f   ship_server.obj
 0001:000437b0       _prs_put_control_bit_nosave 004447b0 f   ship_server.obj
 0001:00043850       _prs_put_control_save      00444850 f   ship_server.obj
 0001:000438c0       _prs_put_static_data       004448c0 f   ship_server.obj
 0001:00043910       _prs_rawbyte               00444910 f   ship_server.obj
 0001:000439a0       _prs_shortcopy             004449a0 f   ship_server.obj
 0001:00043a70       _pso_crypt_decrypt_bb      00444a70 f   ship_server.obj
 0001:00043d50       _pso_crypt_encrypt_bb      00444d50 f   ship_server.obj
 0001:000440d0       _pso_crypt_table_init_bb   004450d0 f   ship_server.obj
 0001:00044ee0       _qflag                     00445ee0 f   ship_server.obj
 0001:00044f60       _qflag_ep1solo             00445f60 f   ship_server.obj
 0001:00045000       _rc4                       00446000 f   ship_server.obj
 0001:00045180       _readLocalGMFile           00446180 f   ship_server.obj
 0001:00045650       _reconnect_logon           00446650 f   ship_server.obj
 0001:00045720       _removeClientFromLobby     00446720 f   ship_server.obj
 0001:00045aa0       _start_encryption          00446aa0 f   ship_server.obj
 0001:00045e20       _stfu                      00446e20 f   ship_server.obj
 0001:00045ea0       _tcp_accept                00446ea0 f   ship_server.obj
 0001:00045f20       _tcp_listen                00446f20 f   ship_server.obj
 0001:00045fc0       _tcp_sock_connect          00446fc0 f   ship_server.obj
 0001:00046100       _tcp_sock_open             00447100 f   ship_server.obj
 0001:00046340       _toggle_stfu               00447340 f   ship_server.obj
 0001:000464c0       _wstrcpy                   004474c0 f   ship_server.obj
 0001:00046540       _wstrcpy_char              00447540 f   ship_server.obj
 0001:000465e0       _wstrlen                   004475e0 f   ship_server.obj
 0001:00046640       ___WSAFDIsSet@8            00447640 f   wsock32:WSOCK32.dll
 0001:00046646       _accept@12                 00447646 f   wsock32:WSOCK32.dll
 0001:0004664c       _bind@12                   0044764c f   wsock32:WSOCK32.dll
 0001:00046652       _closesocket@4             00447652 f   wsock32:WSOCK32.dll
 0001:00046658       _connect@12                00447658 f   wsock32:WSOCK32.dll
 0001:0004665e       _htons@4                   0044765e f   wsock32:WSOCK32.dll
 0001:00046664       _inet_addr@4               00447664 f   wsock32:WSOCK32.dll
 0001:0004666a       _inet_ntoa@4               0044766a f   wsock32:WSOCK32.dll
 0001:00046670       _listen@8                  00447670 f   wsock32:WSOCK32.dll
 0001:00046676       _recv@16                   00447676 f   wsock32:WSOCK32.dll
 0001:0004667c       _select@20                 0044767c f   wsock32:WSOCK32.dll
 0001:00046682       _send@16                   00447682 f   wsock32:WSOCK32.dll
 0001:00046688       _setsockopt@20             00447688 f   wsock32:WSOCK32.dll
 0001:0004668e       _socket@12                 0044768e f   wsock32:WSOCK32.dll
 0001:00046694       _gethostbyname@4           00447694 f   wsock32:WSOCK32.dll
 0001:0004669a       _WSAStartup@8              0044769a f   wsock32:WSOCK32.dll
 0001:000466a0       _WSAGetLastError@0         004476a0 f   wsock32:WSOCK32.dll
 0001:000466a6       _GetLocalTime@4            004476a6 f   kernel32:KERNEL32.dll
 0001:000466ac       _GetModuleHandleA@4        004476ac f   kernel32:KERNEL32.dll
 0001:000466b2       _SetConsoleTitleA@4        004476b2 f   kernel32:KERNEL32.dll
 0001:000466b8       _GetConsoleWindow@0        004476b8 f   kernel32:KERNEL32.dll
 0001:000466be       _TranslateMessage@4        004476be f   user32:USER32.dll
 0001:000466c4       _DispatchMessageA@4        004476c4 f   user32:USER32.dll
 0001:000466ca       _PeekMessageA@20           004476ca f   user32:USER32.dll
 0001:000466d0       _DefWindowProcA@16         004476d0 f   user32:USER32.dll
 0001:000466d6       _RegisterClassA@4          004476d6 f   user32:USER32.dll
 0001:000466dc       _CreateWindowExA@48        004476dc f   user32:USER32.dll
 0001:000466e2       _ShowWindow@8              004476e2 f   user32:USER32.dll
 0001:000466e8       _SetFocus@4                004476e8 f   user32:USER32.dll
 0001:000466ee       _UpdateWindow@4            004476ee f   user32:USER32.dll
 0001:000466f4       _SetForegroundWindow@4     004476f4 f   user32:USER32.dll
 0001:000466fa       _LoadCursorA@8             004476fa f   user32:USER32.dll
 0001:00046700       _LoadIconA@8               00447700 f   user32:USER32.dll
 0001:00046706       _GetStockObject@4          00447706 f   gdi32:GDI32.dll
 0001:0004670c       _Shell_NotifyIconA@8       0044770c f   shell32:SHELL32.dll
 0001:00046720       ___raise_securityfailure   00447720 f   LIBCMTD:gs_report.obj
 0001:00046770       ___report_gsfailure        00447770 f   LIBCMTD:gs_report.obj
 0001:00046880       ___report_rangecheckfailure 00447880 f   LIBCMTD:gs_report.obj
 0001:00046890       ___report_securityfailure  00447890 f   LIBCMTD:gs_report.obj
 0001:00046970       ___report_securityfailureEx 00447970 f   LIBCMTD:gs_report.obj
 0001:00046aa0       ??0_LocaleUpdate@@QAE@PAUlocaleinfo_struct@@@Z 00447aa0 f i LIBCMTD:tolower.obj
 0001:00046b80       ??1_LocaleUpdate@@QAE@XZ   00447b80 f i LIBCMTD:tolower.obj
 0001:00046bb0       ?GetLocaleT@_LocaleUpdate@@QAEPAUlocaleinfo_struct@@XZ 00447bb0 f i LIBCMTD:tolower.obj
 0001:00046bc0       __tolower                  00447bc0 f   LIBCMTD:tolower.obj
 0001:00046bd0       __tolower_l                00447bd0 f   LIBCMTD:tolower.obj
 0001:00046e10       _tolower                   00447e10 f   LIBCMTD:tolower.obj
 0001:00047010       _memcmp                    00448010 f   LIBCMTD:memcmp.obj
 0001:000478e0       _memcpy                    004488e0 f   LIBCMTD:memcpy.obj
 0001:00047f30       _memset                    00448f30 f   LIBCMTD:memset.obj
 0001:00047fc0       _strcpy                    00448fc0 f   LIBCMTD:strcat.obj
 0001:00047fd0       _strcat                    00448fd0 f   LIBCMTD:strcat.obj
 0001:000480c0       _strcmp                    004490c0 f   LIBCMTD:strcmp.obj
 0001:00048150       _strlen                    00449150 f   LIBCMTD:strlen.obj
 0001:000481e0       _strcspn                   004491e0 f   LIBCMTD:strcspn.obj
 0001:00048230       __get_sys_err_msg          00449230 f i LIBCMTD:strerror.obj
 0001:00048270       __invoke_watson_if_error   00449270 f i LIBCMTD:strerror.obj
 0001:000482a0       _strerror                  004492a0 f   LIBCMTD:strerror.obj
 0001:00048350       _strerror_s                00449350 f   LIBCMTD:strerror.obj
 0001:000484a0       _strstr                    004494a0 f   LIBCMTD:strstr.obj
 0001:00048710       _strtok                    00449710 f   LIBCMTD:strtok.obj
 0001:00048cf0       __MallocaIsSizeInRange     00449cf0 f i LIBCMTD:strupr.obj
 0001:00048d20       __MarkAllocaS              00449d20 f i LIBCMTD:strupr.obj
 0001:00048d40       __freea                    00449d40 f i LIBCMTD:strupr.obj
 0001:00048d80       __strupr                   00449d80 f   LIBCMTD:strupr.obj
 0001:00048e70       __strupr_l                 00449e70 f   LIBCMTD:strupr.obj
 0001:00048e90       __strupr_s                 00449e90 f   LIBCMTD:strupr.obj
 0001:00048eb0       __strupr_s_l               00449eb0 f   LIBCMTD:strupr.obj
 0001:00048ef0       ___doserrno                00449ef0 f   LIBCMTD:dosmap.obj
 0001:00048f20       __dosmaperr                00449f20 f   LIBCMTD:dosmap.obj
 0001:00048f50       __errno                    00449f50 f   LIBCMTD:dosmap.obj
 0001:00048f80       __get_doserrno             00449f80 f   LIBCMTD:dosmap.obj
 0001:00049010       __get_errno                0044a010 f   LIBCMTD:dosmap.obj
 0001:000490a0       __get_errno_from_oserr     0044a0a0 f   LIBCMTD:dosmap.obj
 0001:00049120       __set_doserrno             0044a120 f   LIBCMTD:dosmap.obj
 0001:00049150       __set_errno                0044a150 f   LIBCMTD:dosmap.obj
 0001:00049180       ___copy_path_to_wide_string 0044a180 f   LIBCMTD:crt0dat.obj
 0001:00049370       ___copy_to_char            0044a370 f   LIBCMTD:crt0dat.obj
 0001:00049560       ___crtCorExitProcess       0044a560 f   LIBCMTD:crt0dat.obj
 0001:000495a0       ___crtExitProcess          0044a5a0 f   LIBCMTD:crt0dat.obj
 0001:000495c0       ___freeCrtMemory           0044a5c0 f   LIBCMTD:crt0dat.obj
 0001:00049790       __amsg_exit                0044a790 f   LIBCMTD:crt0dat.obj
 0001:000497b0       __c_exit                   0044a7b0 f   LIBCMTD:crt0dat.obj
 0001:000497d0       __cexit                    0044a7d0 f   LIBCMTD:crt0dat.obj
 0001:000497f0       __cinit                    0044a7f0 f   LIBCMTD:crt0dat.obj
 0001:00049890       __exit                     0044a890 f   LIBCMTD:crt0dat.obj
 0001:000498b0       __exit_app                 0044a8b0 f   LIBCMTD:crt0dat.obj
 0001:000498d0       __get_pgmptr               0044a8d0 f   LIBCMTD:crt0dat.obj
 0001:000499f0       __get_wpgmptr              0044a9f0 f   LIBCMTD:crt0dat.obj
 0001:00049b10       __init_pointers            0044ab10 f   LIBCMTD:crt0dat.obj
 0001:00049ba0       __initterm_e               0044aba0 f   LIBCMTD:crt0dat.obj
 0001:00049be0       __lockexit                 0044abe0 f   LIBCMTD:crt0dat.obj
 0001:00049bf0       __unlockexit               0044abf0 f   LIBCMTD:crt0dat.obj
 0001:00049df0       _exit                      0044adf0 f   LIBCMTD:crt0dat.obj
 0001:00049e10       __atoi64                   0044ae10 f   LIBCMTD:atox.obj
 0001:00049e30       __atoi64_l                 0044ae30 f   LIBCMTD:atox.obj
 0001:00049e50       __atoi_l                   0044ae50 f   LIBCMTD:atox.obj
 0001:00049e70       __atol_l                   0044ae70 f   LIBCMTD:atox.obj
 0001:00049e90       __atoll_l                  0044ae90 f   LIBCMTD:atox.obj
 0001:00049eb0       _atoi                      0044aeb0 f   LIBCMTD:atox.obj
 0001:00049ed0       _atol                      0044aed0 f   LIBCMTD:atox.obj
 0001:00049ef0       _atoll                     0044aef0 f   LIBCMTD:atox.obj
 0001:0004a010       __i64toa                   0044b010 f   LIBCMTD:xtoa.obj
 0001:0004a060       __itoa                     0044b060 f   LIBCMTD:xtoa.obj
 0001:0004a0a0       __ltoa                     0044b0a0 f   LIBCMTD:xtoa.obj
 0001:0004a0e0       __ui64toa                  0044b0e0 f   LIBCMTD:xtoa.obj
 0001:0004a100       __ultoa                    0044b100 f   LIBCMTD:xtoa.obj
 0001:0004a1f0       _free                      0044b1f0 f   LIBCMTD:dbgfree.obj
 0001:0004a210       _malloc                    0044b210 f   LIBCMTD:dbgmalloc.obj
 0001:0004a240       ___initstdio               0044b240 f   LIBCMTD:_file.obj
 0001:0004a310       ___endstdio                0044b310 f   LIBCMTD:_file.obj
 0001:0004a350       ___iob_func                0044b350 f   LIBCMTD:_file.obj
 0001:0004a360       __lock_file                0044b360 f   LIBCMTD:_file.obj
 0001:0004a3c0       __lock_file2               0044b3c0 f   LIBCMTD:_file.obj
 0001:0004a400       __unlock_file              0044b400 f   LIBCMTD:_file.obj
 0001:0004a460       __unlock_file2             0044b460 f   LIBCMTD:_file.obj
 0001:0004a4a0       __fclose_nolock            0044b4a0 f   LIBCMTD:fclose.obj
 0001:0004a5b0       _fclose                    0044b5b0 f   LIBCMTD:fclose.obj
 0001:0004a6d0       _feof                      0044b6d0 f   LIBCMTD:feoferr.obj
 0001:0004a760       _ferror                    0044b760 f   LIBCMTD:feoferr.obj
 0001:0004a7f0       _fgets                     0044b7f0 f   LIBCMTD:fgets.obj
 0001:0004abc0       __fsopen                   0044bbc0 f   LIBCMTD:fopen.obj
 0001:0004ae10       _fopen                     0044be10 f   LIBCMTD:fopen.obj
 0001:0004ae30       _fopen_s                   0044be30 f   LIBCMTD:fopen.obj
 0001:0004aef0       __fprintf_l                0044bef0 f   LIBCMTD:fprintf.obj
 0001:0004af20       __fprintf_p                0044bf20 f   LIBCMTD:fprintf.obj
 0001:0004af50       __fprintf_p_l              0044bf50 f   LIBCMTD:fprintf.obj
 0001:0004af80       __fprintf_s_l              0044bf80 f   LIBCMTD:fprintf.obj
 0001:0004afb0       _fprintf                   0044bfb0 f   LIBCMTD:fprintf.obj
 0001:0004b280       _fprintf_s                 0044c280 f   LIBCMTD:fprintf.obj
 0001:0004b2b0       __fread_nolock             0044c2b0 f   LIBCMTD:fread.obj
 0001:0004b2d0       __fread_nolock_s           0044c2d0 f   LIBCMTD:fread.obj
 0001:0004b900       _fread                     0044c900 f   LIBCMTD:fread.obj
 0001:0004b920       _fread_s                   0044c920 f   LIBCMTD:fread.obj
 0001:0004ba70       __fseek_nolock             0044ca70 f   LIBCMTD:fseek.obj
 0001:0004bb60       _fseek                     0044cb60 f   LIBCMTD:fseek.obj
 0001:0004bcf0       __ftell_nolock             0044ccf0 f   LIBCMTD:ftell.obj
 0001:0004c3b0       _ftell                     0044d3b0 f   LIBCMTD:ftell.obj
 0001:0004c4b0       __fwrite_nolock            0044d4b0 f   LIBCMTD:fwrite.obj
 0001:0004c8c0       _fwrite                    0044d8c0 f   LIBCMTD:fwrite.obj
 0001:0004c9e0       __gets_helper              0044d9e0 f   LIBCMTD:gets.obj
 0001:0004d030       _gets                      0044e030 f   LIBCMTD:gets.obj
 0001:0004d050       _gets_s                    0044e050 f   LIBCMTD:gets.obj
 0001:0004d070       __get_printf_count_output  0044e070 f   LIBCMTD:printf.obj
 0001:0004d0a0       __printf_l                 0044e0a0 f   LIBCMTD:printf.obj
 0001:0004d0d0       __printf_p                 0044e0d0 f   LIBCMTD:printf.obj
 0001:0004d0f0       __printf_p_l               0044e0f0 f   LIBCMTD:printf.obj
 0001:0004d120       __printf_s_l               0044e120 f   LIBCMTD:printf.obj
 0001:0004d150       __set_printf_count_output  0044e150 f   LIBCMTD:printf.obj
 0001:0004d1b0       _printf                    0044e1b0 f   LIBCMTD:printf.obj
 0001:0004d330       _printf_s                  0044e330 f   LIBCMTD:printf.obj
 0001:0004d350       __scprintf                 0044e350 f   LIBCMTD:sprintf.obj
 0001:0004d370       __scprintf_l               0044e370 f   LIBCMTD:sprintf.obj
 0001:0004d3a0       __scprintf_p               0044e3a0 f   LIBCMTD:sprintf.obj
 0001:0004d3c0       __scprintf_p_l             0044e3c0 f   LIBCMTD:sprintf.obj
 0001:0004d3f0       __snprintf_s               0044e3f0 f   LIBCMTD:sprintf.obj
 0001:0004d420       __snprintf_s_l             0044e420 f   LIBCMTD:sprintf.obj
 0001:0004d450       __sprintf_l                0044e450 f   LIBCMTD:sprintf.obj
 0001:0004d480       __sprintf_p                0044e480 f   LIBCMTD:sprintf.obj
 0001:0004d4b0       __sprintf_p_l              0044e4b0 f   LIBCMTD:sprintf.obj
 0001:0004d4e0       __sprintf_s_l              0044e4e0 f   LIBCMTD:sprintf.obj
 0001:0004d510       _sprintf                   0044e510 f   LIBCMTD:sprintf.obj
 0001:0004d6d0       _sprintf_s                 0044e6d0 f   LIBCMTD:sprintf.obj
 0001:0004d700       __vscprintf                0044e700 f   LIBCMTD:vsprintf.obj
 0001:0004d720       __vscprintf_helper         0044e720 f   LIBCMTD:vsprintf.obj
 0001:0004d810       __vscprintf_l              0044e810 f   LIBCMTD:vsprintf.obj
 0001:0004d830       __vscprintf_p              0044e830 f   LIBCMTD:vsprintf.obj
 0001:0004d850       __vscprintf_p_l            0044e850 f   LIBCMTD:vsprintf.obj
 0001:0004d870       __vsprintf_l               0044e870 f   LIBCMTD:vsprintf.obj
 0001:0004da30       _vsprintf                  0044ea30 f   LIBCMTD:vsprintf.obj
 0001:0004da50       __time64                   0044ea50 f   LIBCMTD:time64.obj
 0001:0004dad0       @_RTC_AllocaHelper@12      0044ead0 f   LIBCMTD:stack.obj
 0001:0004db10       @_RTC_CheckStackVars2@12   0044eb10 f   LIBCMTD:stack.obj
 0001:0004dbf0       @_RTC_CheckStackVars@8     0044ebf0 f   LIBCMTD:stack.obj
 0001:0004dc50       __RTC_CheckEsp             0044ec50 f   LIBCMTD:stack.obj
 0001:0004dc80       @__security_check_cookie@4 0044ec80 f   LIBCMTD:secchk.obj
 0001:0004dc90       __RTC_InitBase             0044ec90 f   LIBCMTD:init.obj
 0001:0004dcc0       __RTC_Shutdown             0044ecc0 f   LIBCMTD:init.obj
 0001:0004de30       ?_RTC_AllocaFailure@@YAXPAXPAU_RTC_ALLOCA_NODE@@H@Z 0044ee30 f   LIBCMTD:error.obj
 0001:0004dfb0       ?_RTC_Failure@@YAXPAXH@Z   0044efb0 f   LIBCMTD:error.obj
 0001:0004e000       ?_RTC_StackFailure@@YAXPAXPBD@Z 0044f000 f   LIBCMTD:error.obj
 0001:0004e380       __RTC_UninitUse            0044f380 f   LIBCMTD:error.obj
 0001:0004e470       __alldiv                   0044f470 f   LIBCMTD:lldiv.obj
 0001:0004e520       __alloca_probe             0044f520 f   LIBCMTD:chkstk.obj
 0001:0004e520       __chkstk                   0044f520 f   LIBCMTD:chkstk.obj
 0001:0004e550       __fpmath                   0044f550 f   LIBCMTD:fpinit.obj
 0001:0004e570       ___setfflag                0044f570 f   LIBCMTD:fpinit.obj
 0001:0004e590       __cfltcvt_init             0044f590 f   LIBCMTD:fpinit.obj
 0001:0004e8b0       _mainCRTStartup            0044f8b0 f   LIBCMTD:crt0.obj
 0001:0004e8c0       __allshl                   0044f8c0 f   LIBCMTD:llshl.obj
 0001:0004e8e0       __set_abort_behavior       0044f8e0 f   LIBCMTD:abort.obj
 0001:0004e910       _abort                     0044f910 f   LIBCMTD:abort.obj
 0001:0004e980       __ftime64                  0044f980 f   LIBCMTD:ftime64.obj
 0001:0004e9a0       __ftime64_s                0044f9a0 f   LIBCMTD:ftime64.obj
 0001:0004ebd0       __allmul                   0044fbd0 f   LIBCMTD:llmul.obj
 0001:0004ec10       __fscanf_l                 0044fc10 f   LIBCMTD:fscanf.obj
 0001:0004ec40       __fscanf_s_l               0044fc40 f   LIBCMTD:fscanf.obj
 0001:0004ec70       _fscanf                    0044fc70 f   LIBCMTD:fscanf.obj
 0001:0004eca0       _fscanf_s                  0044fca0 f   LIBCMTD:fscanf.obj
 0001:0004ecd0       _vfscanf                   0044fcd0 f   LIBCMTD:fscanf.obj
 0001:0004ecf0       _vfscanf_fn                0044fcf0 f   LIBCMTD:fscanf.obj
 0001:0004efa0       _vfscanf_s                 0044ffa0 f   LIBCMTD:fscanf.obj
 0001:0004efc0       __CrtDefaultAllocHook      0044ffc0 f   LIBCMTD:dbghook.obj
 0001:0004efd0       __crt_debugger_hook        0044ffd0 f   LIBCMTD:dbghook.obj
 0001:0004f030       ___crtCloseThreadpoolTimer 00450030 f   LIBCMTD:winapisupp.obj
 0001:0004f060       ___crtCloseThreadpoolWait  00450060 f   LIBCMTD:winapisupp.obj
 0001:0004f090       ___crtCreateEventExW       00450090 f   LIBCMTD:winapisupp.obj
 0001:0004f0f0       ___crtCreateSemaphoreExW   004500f0 f   LIBCMTD:winapisupp.obj
 0001:0004f150       ___crtCreateSymbolicLinkW  00450150 f   LIBCMTD:winapisupp.obj
 0001:0004f190       ___crtCreateThreadpoolTimer 00450190 f   LIBCMTD:winapisupp.obj
 0001:0004f1d0       ___crtCreateThreadpoolWait 004501d0 f   LIBCMTD:winapisupp.obj
 0001:0004f210       ___crtFlsAlloc             00450210 f   LIBCMTD:winapisupp.obj
 0001:0004f240       ___crtFlsFree              00450240 f   LIBCMTD:winapisupp.obj
 0001:0004f280       ___crtFlsGetValue          00450280 f   LIBCMTD:winapisupp.obj
 0001:0004f2c0       ___crtFlsSetValue          004502c0 f   LIBCMTD:winapisupp.obj
 0001:0004f300       ___crtFlushProcessWriteBuffers 00450300 f   LIBCMTD:winapisupp.obj
 0001:0004f330       ___crtFreeLibraryWhenCallbackReturns 00450330 f   LIBCMTD:winapisupp.obj
 0001:0004f360       ___crtGetCurrentProcessorNumber 00450360 f   LIBCMTD:winapisupp.obj
 0001:0004f390       ___crtGetFileInformationByHandleEx 00450390 f   LIBCMTD:winapisupp.obj
 0001:0004f3d0       ___crtGetLogicalProcessorInformation 004503d0 f   LIBCMTD:winapisupp.obj
 0001:0004f410       ___crtGetShowWindowMode    00450410 f   LIBCMTD:winapisupp.obj
 0001:0004f440       ___crtGetTickCount64       00450440 f   LIBCMTD:winapisupp.obj
 0001:0004f470       ___crtInitializeCriticalSectionEx 00450470 f   LIBCMTD:winapisupp.obj
 0001:0004f4c0       ___crtIsPackagedApp        004504c0 f   LIBCMTD:winapisupp.obj
 0001:0004f500       ___crtLoadWinApiPointers   00450500 f   LIBCMTD:winapisupp.obj
 0001:0004f9a0       ___crtSetFileInformationByHandle 004509a0 f   LIBCMTD:winapisupp.obj
 0001:0004f9e0       ___crtSetThreadStackGuarantee 004509e0 f   LIBCMTD:winapisupp.obj
 0001:0004fa10       ___crtSetThreadpoolTimer   00450a10 f   LIBCMTD:winapisupp.obj
 0001:0004fa50       ___crtSetThreadpoolWait    00450a50 f   LIBCMTD:winapisupp.obj
 0001:0004fa80       ___crtSetUnhandledExceptionFilter 00450a80 f   LIBCMTD:winapisupp.obj
 0001:0004fa90       ___crtSleep                00450a90 f   LIBCMTD:winapisupp.obj
 0001:0004faa0       ___crtTerminateProcess     00450aa0 f   LIBCMTD:winapisupp.obj
 0001:0004fac0       ___crtUnhandledException   00450ac0 f   LIBCMTD:winapisupp.obj
 0001:0004fae0       ___crtWaitForThreadpoolTimerCallbacks 00450ae0 f   LIBCMTD:winapisupp.obj
 0001:0004fb10       ___addlocaleref            00450b10 f   LIBCMTD:localref.obj
 0001:0004fc30       ___freetlocinfo            00450c30 f   LIBCMTD:localref.obj
 0001:0004ff20       ___removelocaleref         00450f20 f   LIBCMTD:localref.obj
 0001:00050040       ___updatetlocinfo          00451040 f   LIBCMTD:localref.obj
 0001:00050110       __updatetlocinfoEx_nolock  00451110 f   LIBCMTD:localref.obj
 0001:00050190       ___initmbctable            00451190 f   LIBCMTD:mbctype.obj
 0001:000507b0       ___updatetmbcinfo          004517b0 f   LIBCMTD:mbctype.obj
 0001:000508d0       __getmbcp                  004518d0 f   LIBCMTD:mbctype.obj
 0001:00050940       __setmbcp                  00451940 f   LIBCMTD:mbctype.obj
 0001:00050be0       __setmbcp_nolock           00451be0 f   LIBCMTD:mbctype.obj
 0001:00050f60       __chvalidator              00451f60 f   LIBCMTD:isctype.obj
 0001:00050fb0       __chvalidator_l            00451fb0 f   LIBCMTD:isctype.obj
 0001:00051070       __isctype                  00452070 f   LIBCMTD:isctype.obj
 0001:000510b0       __isctype_l                004520b0 f   LIBCMTD:isctype.obj
 0001:00051200       ___iswcsym                 00452200 f i LIBCMTD:_wctype.obj
 0001:00051240       ___iswcsymf                00452240 f i LIBCMTD:_wctype.obj
 0001:00051280       __isleadbyte_l             00452280 f i LIBCMTD:_wctype.obj
 0001:000512d0       __iswalnum_l               004522d0 f i LIBCMTD:_wctype.obj
 0001:000512f0       __iswalpha_l               004522f0 f i LIBCMTD:_wctype.obj
 0001:00051310       __iswblank_l               00452310 f i LIBCMTD:_wctype.obj
 0001:00051340       __iswcntrl_l               00452340 f i LIBCMTD:_wctype.obj
 0001:00051360       __iswcsym_l                00452360 f i LIBCMTD:_wctype.obj
 0001:000513a0       __iswcsymf_l               004523a0 f i LIBCMTD:_wctype.obj
 0001:000513e0       __iswdigit_l               004523e0 f i LIBCMTD:_wctype.obj
 0001:00051400       __iswgraph_l               00452400 f i LIBCMTD:_wctype.obj
 0001:00051420       __iswlower_l               00452420 f i LIBCMTD:_wctype.obj
 0001:00051440       __iswprint_l               00452440 f i LIBCMTD:_wctype.obj
 0001:00051460       __iswpunct_l               00452460 f i LIBCMTD:_wctype.obj
 0001:00051480       __iswspace_l               00452480 f i LIBCMTD:_wctype.obj
 0001:000514a0       __iswupper_l               004524a0 f i LIBCMTD:_wctype.obj
 0001:000514c0       __iswxdigit_l              004524c0 f i LIBCMTD:_wctype.obj
 0001:000514e0       _isleadbyte                004524e0 f i LIBCMTD:_wctype.obj
 0001:00051500       _iswalnum                  00452500 f i LIBCMTD:_wctype.obj
 0001:00051520       _iswalpha                  00452520 f i LIBCMTD:_wctype.obj
 0001:00051540       _iswascii                  00452540 f i LIBCMTD:_wctype.obj
 0001:00051570       _iswblank                  00452570 f i LIBCMTD:_wctype.obj
 0001:000515a0       _iswcntrl                  004525a0 f i LIBCMTD:_wctype.obj
 0001:000515c0       _iswdigit                  004525c0 f i LIBCMTD:_wctype.obj
 0001:000515e0       _iswgraph                  004525e0 f i LIBCMTD:_wctype.obj
 0001:00051600       _iswlower                  00452600 f i LIBCMTD:_wctype.obj
 0001:00051620       _iswprint                  00452620 f i LIBCMTD:_wctype.obj
 0001:00051640       _iswpunct                  00452640 f i LIBCMTD:_wctype.obj
 0001:00051660       _iswspace                  00452660 f i LIBCMTD:_wctype.obj
 0001:00051680       _iswupper                  00452680 f i LIBCMTD:_wctype.obj
 0001:000516a0       _iswxdigit                 004526a0 f i LIBCMTD:_wctype.obj
 0001:000519f0       ___crtLCMapStringA         004529f0 f   LIBCMTD:a_map.obj
 0001:00051a50       ___get_flsindex            00452a50 f   LIBCMTD:tidtable.obj
 0001:00051a60       ___threadhandle            00452a60 f   LIBCMTD:tidtable.obj
 0001:00051a70       ___threadid                00452a70 f   LIBCMTD:tidtable.obj
 0001:00051a80       __freefls@4                00452a80 f   LIBCMTD:tidtable.obj
 0001:00051c80       __freeptd                  00452c80 f   LIBCMTD:tidtable.obj
 0001:00051cc0       __getptd                   00452cc0 f   LIBCMTD:tidtable.obj
 0001:00051cf0       __getptd_noexit            00452cf0 f   LIBCMTD:tidtable.obj
 0001:00051da0       __initptd                  00452da0 f   LIBCMTD:tidtable.obj
 0001:00051ee0       __mtinit                   00452ee0 f   LIBCMTD:tidtable.obj
 0001:00051f90       __mtterm                   00452f90 f   LIBCMTD:tidtable.obj
 0001:00051fc0       ___init_dummy              00452fc0 f   LIBCMTD:wsetloca.obj
 0001:00051fd0       __locterm                  00452fd0 f   LIBCMTD:wsetloca.obj
 0001:00052060       ____setlc_active_func      00453060 f   LIBCMTD:wsetloca.obj
 0001:00052070       ____unguarded_readlc_active_add_func 00453070 f   LIBCMTD:wsetloca.obj
 0001:00052080       ___copy_locale_name        00453080 f   LIBCMTD:wsetloca.obj
 0001:00052120       ___create_locale           00453120 f   LIBCMTD:wsetloca.obj
 0001:00052140       ___free_locale             00453140 f   LIBCMTD:wsetloca.obj
 0001:00052160       ___get_current_locale      00453160 f   LIBCMTD:wsetloca.obj
 0001:00052170       ___lc_lctowcs              00453170 f   LIBCMTD:wsetloca.obj
 0001:00052220       ___lc_wcstolc              00453220 f   LIBCMTD:wsetloca.obj
 0001:00052440       __configthreadlocale       00453440 f   LIBCMTD:wsetloca.obj
 0001:000525a0       __create_locale            004535a0 f   LIBCMTD:wsetloca.obj
 0001:00052610       __expandlocale             00453610 f   LIBCMTD:wsetloca.obj
 0001:00052b00       __free_locale              00453b00 f   LIBCMTD:wsetloca.obj
 0001:00052c30       __get_current_locale       00453c30 f   LIBCMTD:wsetloca.obj
 0001:00052d50       __wcreate_locale           00453d50 f   LIBCMTD:wsetloca.obj
 0001:00052f40       __wcscats                  00453f40 f   LIBCMTD:wsetloca.obj
 0001:00052fc0       __wsetlocale               00453fc0 f   LIBCMTD:wsetloca.obj
 0001:00054050       ___isa_available_init      00455050 f   LIBCMTD:cpu_disp.obj
 0001:00054300       __VEC_memset               00455300 f   LIBCMTD:p4_memset.obj
 0001:000543d0       ?_invalid_parameter@@YAXPBG00II@Z 004553d0 f   LIBCMTD:invarg.obj
 0001:00054400       ?_invoke_watson@@YAXPBG00II@Z 00455400 f   LIBCMTD:invarg.obj
 0001:00054420       __call_reportfault         00455420 f   LIBCMTD:invarg.obj
 0001:00054580       __get_invalid_parameter_handler 00455580 f   LIBCMTD:invarg.obj
 0001:000545b0       __initp_misc_invarg        004555b0 f   LIBCMTD:invarg.obj
 0001:000545c0       __invalid_parameter        004555c0 f   LIBCMTD:invarg.obj
 0001:00054620       __invoke_watson            00455620 f   LIBCMTD:invarg.obj
 0001:00054660       __set_invalid_parameter_handler 00455660 f   LIBCMTD:invarg.obj
 0001:000546a0       ___sys_errlist             004556a0 f   LIBCMTD:syserr.obj
 0001:000546b0       ___sys_nerr                004556b0 f   LIBCMTD:syserr.obj
 0001:000546c0       _strcpy_s                  004556c0 f   LIBCMTD:strcpy_s.obj
 0001:000549c0       _strncpy_s                 004559c0 f   LIBCMTD:strncpy_s.obj
 0001:00054de0       ?_CrtDbgReportW@@YAHHPBGH00ZZ 00455de0 f   LIBCMTD:dbgrptw.obj
 0001:00054e30       __CrtDbgReportW            00455e30 f   LIBCMTD:dbgrptw.obj
 0001:00054e80       __CrtDbgReportWV           00455e80 f i LIBCMTD:dbgrptw.obj
 0001:00054eb0       __CrtSetReportHookW2       00455eb0 f   LIBCMTD:dbgrptw.obj
 0001:00055200       ___crtMessageWindowW       00456200 f   LIBCMTD:dbgrptw.obj
 0001:000556b0       __invoke_watson_if_oneof   004566b0 f i LIBCMTD:dbgrptw.obj
 0001:00055b80       __CrtCheckMemory           00456b80 f   LIBCMTD:dbgheap.obj
 0001:00055fe0       __CrtDoForAllClientObjects 00456fe0 f   LIBCMTD:dbgheap.obj
 0001:00056110       __CrtDumpMemoryLeaks       00457110 f   LIBCMTD:dbgheap.obj
 0001:000561b0       __CrtGetAllocHook          004571b0 f   LIBCMTD:dbgheap.obj
 0001:000561c0       __CrtGetCheckCount         004571c0 f   LIBCMTD:dbgheap.obj
 0001:000561d0       __CrtGetDumpClient         004571d0 f   LIBCMTD:dbgheap.obj
 0001:000561e0       __CrtIsMemoryBlock         004571e0 f   LIBCMTD:dbgheap.obj
 0001:00056350       __CrtIsValidHeapPointer    00457350 f   LIBCMTD:dbgheap.obj
 0001:00056390       __CrtIsValidPointer        00457390 f   LIBCMTD:dbgheap.obj
 0001:000563c0       __CrtMemCheckpoint         004573c0 f   LIBCMTD:dbgheap.obj
 0001:000565f0       __CrtMemDifference         004575f0 f   LIBCMTD:dbgheap.obj
 0001:00056850       __CrtMemDumpAllObjectsSince 00457850 f   LIBCMTD:dbgheap.obj
 0001:00056890       __CrtMemDumpStatistics     00457890 f   LIBCMTD:dbgheap.obj
 0001:000569b0       __CrtReportBlockType       004579b0 f   LIBCMTD:dbgheap.obj
 0001:000569e0       __CrtSetAllocHook          004579e0 f   LIBCMTD:dbgheap.obj
 0001:00056a00       __CrtSetBreakAlloc         00457a00 f   LIBCMTD:dbgheap.obj
 0001:00056a20       __CrtSetCheckCount         00457a20 f   LIBCMTD:dbgheap.obj
 0001:00056a40       __CrtSetDbgBlockType       00457a40 f   LIBCMTD:dbgheap.obj
 0001:00056b30       __CrtSetDbgFlag            00457b30 f   LIBCMTD:dbgheap.obj
 0001:00056c80       __CrtSetDebugFillThreshold 00457c80 f   LIBCMTD:dbgheap.obj
 0001:00056ca0       __CrtSetDumpClient         00457ca0 f   LIBCMTD:dbgheap.obj
 0001:00056cc0       __aligned_free             00457cc0 f   LIBCMTD:dbgheap.obj
 0001:00056ce0       __aligned_free_dbg         00457ce0 f   LIBCMTD:dbgheap.obj
 0001:00056d90       __aligned_malloc           00457d90 f   LIBCMTD:dbgheap.obj
 0001:00056db0       __aligned_malloc_dbg       00457db0 f   LIBCMTD:dbgheap.obj
 0001:00056dd0       __aligned_msize            00457dd0 f   LIBCMTD:dbgheap.obj
 0001:00056df0       __aligned_msize_dbg        00457df0 f   LIBCMTD:dbgheap.obj
 0001:00056f10       __aligned_offset_malloc    00457f10 f   LIBCMTD:dbgheap.obj
 0001:00056f30       __aligned_offset_malloc_dbg 00457f30 f   LIBCMTD:dbgheap.obj
 0001:00057110       __aligned_offset_realloc   00458110 f   LIBCMTD:dbgheap.obj
 0001:00057140       __aligned_offset_realloc_dbg 00458140 f   LIBCMTD:dbgheap.obj
 0001:00057450       __aligned_offset_recalloc  00458450 f   LIBCMTD:dbgheap.obj
 0001:00057480       __aligned_offset_recalloc_dbg 00458480 f   LIBCMTD:dbgheap.obj
 0001:00057540       __aligned_realloc          00458540 f   LIBCMTD:dbgheap.obj
 0001:00057560       __aligned_realloc_dbg      00458560 f   LIBCMTD:dbgheap.obj
 0001:00057590       __aligned_recalloc         00458590 f   LIBCMTD:dbgheap.obj
 0001:000575c0       __aligned_recalloc_dbg     004585c0 f   LIBCMTD:dbgheap.obj
 0001:000575f0       __calloc_dbg               004585f0 f   LIBCMTD:dbgheap.obj
 0001:00057650       __calloc_dbg_impl          00458650 f   LIBCMTD:dbgheap.obj
 0001:000576d0       __expand                   004586d0 f   LIBCMTD:dbgheap.obj
 0001:00057700       __expand_dbg               00458700 f   LIBCMTD:dbgheap.obj
 0001:00057830       __free_dbg                 00458830 f   LIBCMTD:dbgheap.obj
 0001:000578b0       __free_dbg_nolock          004588b0 f   LIBCMTD:dbgheap.obj
 0001:00057db0       __free_nolock              00458db0 f   LIBCMTD:dbgheap.obj
 0001:00057dd0       __heap_alloc               00458dd0 f   LIBCMTD:dbgheap.obj
 0001:00057df0       __heap_alloc_dbg           00458df0 f   LIBCMTD:dbgheap.obj
 0001:00058210       __malloc_dbg               00459210 f   LIBCMTD:dbgheap.obj
 0001:00058240       __msize                    00459240 f   LIBCMTD:dbgheap.obj
 0001:00058260       __msize_dbg                00459260 f   LIBCMTD:dbgheap.obj
 0001:00058470       __nh_malloc                00459470 f   LIBCMTD:dbgheap.obj
 0001:00058490       __nh_malloc_dbg            00459490 f   LIBCMTD:dbgheap.obj
 0001:00058720       __realloc_dbg              00459720 f   LIBCMTD:dbgheap.obj
 0001:000587c0       __recalloc                 004597c0 f   LIBCMTD:dbgheap.obj
 0001:000587f0       __recalloc_dbg             004597f0 f   LIBCMTD:dbgheap.obj
 0001:00058eb0       _strchr                    00459eb0 f   LIBCMTD:strchr.obj
 0001:00058f1e       ___from_strstr_to_strchr   00459f1e     LIBCMTD:strchr.obj
 0001:00058fe0       _strnlen                   00459fe0 f   LIBCMTD:strlen_s.obj
 0001:00059020       __RTC_Initialize           0045a020 f   LIBCMTD:initsect.obj
 0001:00059050       __RTC_Terminate            0045a050 f   LIBCMTD:initsect.obj
 0001:00059080       __lock                     0045a080 f   LIBCMTD:mlock.obj
 0001:000590c0       __lockerr_exit             0045a0c0 f   LIBCMTD:mlock.obj
 0001:000590f0       __mtdeletelocks            0045a0f0 f   LIBCMTD:mlock.obj
 0001:000591b0       __mtinitlocknum            0045a1b0 f   LIBCMTD:mlock.obj
 0001:000592d0       __mtinitlocks              0045a2d0 f   LIBCMTD:mlock.obj
 0001:00059350       __unlock                   0045a350 f   LIBCMTD:mlock.obj
 0001:00059370       __FF_MSGBANNER             0045a370 f   LIBCMTD:crt0msg.obj
 0001:000593c0       __GET_RTERRMSG             0045a3c0 f   LIBCMTD:crt0msg.obj
 0001:00059400       __NMSG_WRITE               0045a400 f   LIBCMTD:crt0msg.obj
 0001:000597c0       __FindPESection            0045a7c0 f   LIBCMTD:pesect.obj
 0001:00059840       __IsNonwritableInCurrentImage 0045a840 f   LIBCMTD:pesect.obj
 0001:00059970       __ValidateImageBase        0045a970 f   LIBCMTD:pesect.obj
 0001:000599d0       ___onexitinit              0045a9d0 f   LIBCMTD:onexit.obj
 0001:00059a30       __onexit                   0045aa30 f   LIBCMTD:onexit.obj
 0001:00059bf0       _atexit                    0045abf0 f   LIBCMTD:onexit.obj
 0001:00059c20       __initp_misc_cfltcvt_tab   0045ac20 f   LIBCMTD:cmiscdat.obj
 0001:00059c60       ?_inconsistency@@YAXXZ     0045ac60 f   LIBCMTD:hooks.obj
 0001:00059cf0       ?terminate@@YAXXZ          0045acf0 f   LIBCMTD:hooks.obj
 0001:00059d70       ?unexpected@@YAXXZ         0045ad70 f   LIBCMTD:hooks.obj
 0001:00059da0       __initp_eh_hooks           0045ada0 f   LIBCMTD:hooks.obj
 0001:00059dc0       ?_query_new_handler@@YAP6AHI@ZXZ 0045adc0 f   LIBCMTD:handler.obj
 0001:00059de0       ?_set_new_handler@@YAP6AHI@ZH@Z 0045ade0 f   LIBCMTD:handler.obj
 0001:00059e20       ?_set_new_handler@@YAP6AHI@ZP6AHI@Z@Z 0045ae20 f   LIBCMTD:handler.obj
 0001:00059e60       __callnewh                 0045ae60 f   LIBCMTD:handler.obj
 0001:00059ea0       __initp_heap_handler       0045aea0 f   LIBCMTD:handler.obj
 0001:00059eb0       ___getlocaleinfo           0045aeb0 f   LIBCMTD:inithelp.obj
 0001:0005a1b0       __initp_misc_purevirt      0045b1b0 f   LIBCMTD:inithelp.obj
 0001:0005a1c0       ___fpecode                 0045b1c0 f   LIBCMTD:winsig.obj
 0001:0005a1d0       ___get_sigabrt             0045b1d0 f   LIBCMTD:winsig.obj
 0001:0005a1f0       ___pxcptinfoptrs           0045b1f0 f   LIBCMTD:winsig.obj
 0001:0005a200       __initp_misc_winsig        0045b200 f   LIBCMTD:winsig.obj
 0001:0005a330       _raise                     0045b330 f   LIBCMTD:winsig.obj
 0001:0005a6c0       _signal                    0045b6c0 f   LIBCMTD:winsig.obj
 0001:0005aa70       __initp_misc_rand_s        0045ba70 f   LIBCMTD:rand_s.obj
 0001:0005aa80       _rand_s                    0045ba80 f   LIBCMTD:rand_s.obj
 0001:0005ad40       __except_handler4          0045bd40 f   LIBCMTD:chandler4.obj
 0001:0005af00       __ftbuf                    0045bf00 f   LIBCMTD:_sftbuf.obj
 0001:0005af90       __stbuf                    0045bf90 f   LIBCMTD:_sftbuf.obj
 0001:0005b630       __strtof_l                 0045c630 f   LIBCMTD:strtoq.obj
 0001:0005b660       __strtoi64                 0045c660 f   LIBCMTD:strtoq.obj
 0001:0005b6b0       __strtoi64_l               0045c6b0 f   LIBCMTD:strtoq.obj
 0001:0005b6d0       __strtoimax_l              0045c6d0 f   LIBCMTD:strtoq.obj
 0001:0005b6f0       __strtold_l                0045c6f0 f   LIBCMTD:strtoq.obj
 0001:0005b710       __strtoll_l                0045c710 f   LIBCMTD:strtoq.obj
 0001:0005b730       __strtoui64                0045c730 f   LIBCMTD:strtoq.obj
 0001:0005b780       __strtoui64_l              0045c780 f   LIBCMTD:strtoq.obj
 0001:0005b7a0       __strtoull_l               0045c7a0 f   LIBCMTD:strtoq.obj
 0001:0005b7c0       __strtoumax_l              0045c7c0 f   LIBCMTD:strtoq.obj
 0001:0005b7e0       _strtof                    0045c7e0 f   LIBCMTD:strtoq.obj
 0001:0005b810       _strtoimax                 0045c810 f   LIBCMTD:strtoq.obj
 0001:0005b830       _strtold                   0045c830 f   LIBCMTD:strtoq.obj
 0001:0005b850       _strtoll                   0045c850 f   LIBCMTD:strtoq.obj
 0001:0005b870       _strtoull                  0045c870 f   LIBCMTD:strtoq.obj
 0001:0005b890       _strtoumax                 0045c890 f   LIBCMTD:strtoq.obj
 0001:0005bdb0       __strtol_l                 0045cdb0 f   LIBCMTD:strtol.obj
 0001:0005bdd0       __strtoul_l                0045cdd0 f   LIBCMTD:strtol.obj
 0001:0005bdf0       _strtol                    0045cdf0 f   LIBCMTD:strtol.obj
 0001:0005be40       _strtoul                   0045ce40 f   LIBCMTD:strtol.obj
 0001:0005be90       __aulldiv                  0045ce90 f   LIBCMTD:ulldiv.obj
 0001:0005bf00       __aullrem                  0045cf00 f   LIBCMTD:ullrem.obj
 0001:0005bf80       __fcloseall                0045cf80 f   LIBCMTD:closeall.obj
 0001:0005c0b0       __fflush_nolock            0045d0b0 f   LIBCMTD:fflush.obj
 0001:0005c120       __flush                    0045d120 f   LIBCMTD:fflush.obj
 0001:0005c1e0       __flushall                 0045d1e0 f   LIBCMTD:fflush.obj
 0001:0005c1f0       _fflush                    0045d1f0 f   LIBCMTD:fflush.obj
 0001:0005c430       __fileno                   0045d430 f   LIBCMTD:fileno.obj
 0001:0005c4c0       __close                    0045d4c0 f   LIBCMTD:close.obj
 0001:0005c700       __close_nolock             0045d700 f   LIBCMTD:close.obj
 0001:0005c7e0       __freebuf                  0045d7e0 f   LIBCMTD:_freebuf.obj
 0001:0005c870       __filbuf                   0045d870 f   LIBCMTD:_filbuf.obj
 0001:0005cae0       __ioinit                   0045dae0 f   LIBCMTD:ioinit.obj
 0001:0005cfc0       __ioterm                   0045dfc0 f   LIBCMTD:ioinit.obj
 0001:0005d060       __getstream                0045e060 f   LIBCMTD:stream.obj
 0001:0005d290       __openfile                 0045e290 f   LIBCMTD:_open.obj
 0001:0005da90       __local_unwind4            0045ea90 f   LIBCMTD:exsup4.obj
 0001:0005db66       __seh_longjmp_unwind4@4    0045eb66 f   LIBCMTD:exsup4.obj
 0001:0005db82       @_EH4_CallFilterFunc@8     0045eb82 f   LIBCMTD:exsup4.obj
 0001:0005db99       @_EH4_TransferToHandler@8  0045eb99 f   LIBCMTD:exsup4.obj
 0001:0005dbb2       @_EH4_GlobalUnwind2@8      0045ebb2 f   LIBCMTD:exsup4.obj
 0001:0005dbcb       @_EH4_LocalUnwind@16       0045ebcb f   LIBCMTD:exsup4.obj
 0001:0005dbf0       __vfprintf_l               0045ebf0 f   LIBCMTD:vfprintf.obj
 0001:0005dc20       __vfprintf_p               0045ec20 f   LIBCMTD:vfprintf.obj
 0001:0005dc40       __vfprintf_p_l             0045ec40 f   LIBCMTD:vfprintf.obj
 0001:0005dc70       __vfprintf_s_l             0045ec70 f   LIBCMTD:vfprintf.obj
 0001:0005dca0       _vfprintf                  0045eca0 f   LIBCMTD:vfprintf.obj
 0001:0005dcc0       _vfprintf_helper           0045ecc0 f   LIBCMTD:vfprintf.obj
 0001:0005df90       _vfprintf_s                0045ef90 f   LIBCMTD:vfprintf.obj
 0001:0005dfb0       __output_l                 0045efb0 f   LIBCMTD:output.obj
 0001:0005f660       _get_int64_arg             00460660 f i LIBCMTD:output.obj
 0001:0005f680       _get_int_arg               00460680 f i LIBCMTD:output.obj
 0001:0005f6a0       _get_short_arg             004606a0 f i LIBCMTD:output.obj
 0001:0005f860       _memcpy_s                  00460860 f   LIBCMTD:memcpy_s.obj
 0001:0005fa30       __read                     00460a30 f   LIBCMTD:read.obj
 0001:0005fd00       __read_nolock              00460d00 f   LIBCMTD:read.obj
 0001:00060f40       __lseek                    00461f40 f   LIBCMTD:lseek.obj
 0001:00061190       __lseek_nolock             00462190 f   LIBCMTD:lseek.obj
 0001:000612d0       __lseeki64                 004622d0 f   LIBCMTD:lseeki64.obj
 0001:00061540       __lseeki64_nolock          00462540 f   LIBCMTD:lseeki64.obj
 0001:00061610       __flsbuf                   00462610 f   LIBCMTD:_flsbuf.obj
 0001:000618e0       __write                    004628e0 f   LIBCMTD:write.obj
 0001:00061b30       __write_nolock             00462b30 f   LIBCMTD:write.obj
 0001:000628e0       __vprintf_l                004638e0 f   LIBCMTD:vprintf.obj
 0001:00062900       __vprintf_p                00463900 f   LIBCMTD:vprintf.obj
 0001:00062920       __vprintf_p_l              00463920 f   LIBCMTD:vprintf.obj
 0001:00062940       __vprintf_s_l              00463940 f   LIBCMTD:vprintf.obj
 0001:00062960       _vprintf                   00463960 f   LIBCMTD:vprintf.obj
 0001:00062980       _vprintf_helper            00463980 f   LIBCMTD:vprintf.obj
 0001:00062ac0       _vprintf_s                 00463ac0 f   LIBCMTD:vprintf.obj
 0001:00062ae0       __vsnprintf_c              00463ae0 f   LIBCMTD:vsnprnc.obj
 0001:00062b30       __vsnprintf_c_l            00463b30 f   LIBCMTD:vsnprnc.obj
 0001:00062b80       __vsnprintf_helper         00463b80 f   LIBCMTD:vsnprnc.obj
 0001:00062d80       __vsnprintf_s              00463d80 f   LIBCMTD:vsnprnc.obj
 0001:00062db0       __vsnprintf_s_l            00463db0 f   LIBCMTD:vsnprnc.obj
 0001:00063170       __vsprintf_p               00464170 f   LIBCMTD:vsnprnc.obj
 0001:000631c0       __vsprintf_p_l             004641c0 f   LIBCMTD:vsnprnc.obj
 0001:00063210       __vsprintf_s_l             00464210 f   LIBCMTD:vsnprnc.obj
 0001:000634a0       _vsprintf_s                004644a0 f   LIBCMTD:vsnprnc.obj
 0001:000634c0       __output_p_l               004644c0 f   LIBCMTD:outputp.obj
 0001:000672c0       __validate_param_reuseA    004682c0 f   LIBCMTD:outputp.obj
 0001:000675b0       _get_crtdouble_arg         004685b0 f i LIBCMTD:outputp.obj
 0001:00067770       ?_RTC_GetErrorFunc@@YAP6AHHPBDH00ZZPBX@Z 00468770 f   LIBCMTD:userapi.obj
 0001:00067780       ?_RTC_GetErrorFuncW@@YAP6AHHPB_WH00ZZPBX@Z 00468780 f   LIBCMTD:userapi.obj
 0001:00067790       __RTC_GetErrDesc           00468790 f   LIBCMTD:userapi.obj
 0001:000677b0       __RTC_NumErrors            004687b0 f   LIBCMTD:userapi.obj
 0001:000677c0       __RTC_SetErrorFunc         004687c0 f   LIBCMTD:userapi.obj
 0001:000677e0       __RTC_SetErrorFuncW        004687e0 f   LIBCMTD:userapi.obj
 0001:00067800       __RTC_SetErrorType         00468800 f   LIBCMTD:userapi.obj
 0001:00067830       __CRT_RTC_INIT             00468830 f   LIBCMTD:chkesp.obj
 0001:00067840       __CRT_RTC_INITW            00468840 f   LIBCMTD:chkesp.obj
 0001:00067850       __chkesp                   00468850 f   LIBCMTD:chkesp.obj
 0001:00067cd0       ?_RTC_GetSrcLine@@YAHPAEPA_WKPAH1K@Z 00468cd0 f   LIBCMTD:pdblkup.obj
 0001:00067f80       ?strrchr@@YAPADPADH@Z      00468f80 f i LIBCMTD:cvt.obj
 0001:00067fa0       __cfltcvt                  00468fa0 f   LIBCMTD:cvt.obj
 0001:00067fd0       __cfltcvt_l                00468fd0 f   LIBCMTD:cvt.obj
 0001:00068090       __cftoa                    00469090 f   LIBCMTD:cvt.obj
 0001:000680c0       __cftoa_l                  004690c0 f   LIBCMTD:cvt.obj
 0001:00068930       __cftoe                    00469930 f   LIBCMTD:cvt.obj
 0001:00068d70       __cftoe_l                  00469d70 f   LIBCMTD:cvt.obj
 0001:00068fa0       __cftof                    00469fa0 f   LIBCMTD:cvt.obj
 0001:00069250       __cftof_l                  0046a250 f   LIBCMTD:cvt.obj
 0001:00069450       __cftog                    0046a450 f   LIBCMTD:cvt.obj
 0001:00069480       __cftog_l                  0046a480 f   LIBCMTD:cvt.obj
 0001:00069710       __cropzeros                0046a710 f   LIBCMTD:cvt.obj
 0001:00069730       __cropzeros_l              0046a730 f   LIBCMTD:cvt.obj
 0001:00069850       __fassign                  0046a850 f   LIBCMTD:cvt.obj
 0001:00069870       __fassign_l                0046a870 f   LIBCMTD:cvt.obj
 0001:000698c0       __forcdecpt                0046a8c0 f   LIBCMTD:cvt.obj
 0001:000698e0       __forcdecpt_l              0046a8e0 f   LIBCMTD:cvt.obj
 0001:000699b0       __positive                 0046a9b0 f   LIBCMTD:cvt.obj
 0001:00069a10       __setdefaultprecision      0046aa10 f   LIBCMTD:fp8.obj
 0001:00069a50       ?__CxxUnhandledExceptionFilter@@YGJPAU_EXCEPTION_POINTERS@@@Z 0046aa50 f   LIBCMTD:unhandld.obj
 0001:00069ac0       ___CxxSetUnhandledExceptionFilter 0046aac0 f   LIBCMTD:unhandld.obj
 0001:00069ae0       __XcptFilter               0046aae0 f   LIBCMTD:winxfltr.obj
 0001:00069ce0       ___CppXcptFilter           0046ace0 f   LIBCMTD:winxfltr.obj
 0001:00069d70       __get_heap_handle          0046ad70 f   LIBCMTD:heapinit.obj
 0001:00069db0       __heap_init                0046adb0 f   LIBCMTD:heapinit.obj
 0001:00069de0       __heap_term                0046ade0 f   LIBCMTD:heapinit.obj
 0001:00069df0       __set_pgmptr               0046adf0 f i LIBCMTD:stdargv.obj
 0001:00069e00       __setargv                  0046ae00 f   LIBCMTD:stdargv.obj
 0001:0006a2d0       __setenvp                  0046b2d0 f   LIBCMTD:stdenvp.obj
 0001:0006a470       ___set_app_type            0046b470 f   LIBCMTD:errmode.obj
 0001:0006a480       __set_error_mode           0046b480 f   LIBCMTD:errmode.obj
 0001:0006a540       ___security_init_cookie    0046b540 f   LIBCMTD:gs_support.obj
 0001:0006a620       ___crtGetEnvironmentStringsA 0046b620 f   LIBCMTD:a_env.obj
 0001:0006a720       ___daylight                0046b720 f   LIBCMTD:timeset.obj
 0001:0006a730       ___dstbias                 0046b730 f   LIBCMTD:timeset.obj
 0001:0006a740       ___timezone                0046b740 f   LIBCMTD:timeset.obj
 0001:0006a750       ___tzname                  0046b750 f   LIBCMTD:timeset.obj
 0001:0006a760       __get_daylight             0046b760 f   LIBCMTD:timeset.obj
 0001:0006a7f0       __get_dstbias              0046b7f0 f   LIBCMTD:timeset.obj
 0001:0006a880       __get_timezone             0046b880 f   LIBCMTD:timeset.obj
 0001:0006a910       __get_tzname               0046b910 f   LIBCMTD:timeset.obj
 0001:0006ab10       ___tzset                   0046bb10 f   LIBCMTD:tzset.obj
 0001:0006aba0       __isindst                  0046bba0 f   LIBCMTD:tzset.obj
 0001:0006af80       __set_daylight             0046bf80 f i LIBCMTD:tzset.obj
 0001:0006af90       __set_dstbias              0046bf90 f i LIBCMTD:tzset.obj
 0001:0006afa0       __set_timezone             0046bfa0 f i LIBCMTD:tzset.obj
 0001:0006afb0       __tzset                    0046bfb0 f   LIBCMTD:tzset.obj
 0001:0006b8a0       __INTRN_LOCALE_CONV        0046c8a0 f i LIBCMTD:input.obj
 0001:0006ba60       __input_l                  0046ca60 f   LIBCMTD:input.obj
 0001:0006d960       __input_s_l                0046e960 f   LIBCMTD:inputs.obj
 0001:0006fb40       ___free_lconv_mon          00470b40 f   LIBCMTD:initmon.obj
 0001:0006fcf0       ___init_monetary           00470cf0 f   LIBCMTD:initmon.obj
 0001:00070300       ___free_lconv_num          00471300 f   LIBCMTD:initnum.obj
 0001:000703b0       ___init_numeric            004713b0 f   LIBCMTD:initnum.obj
 0001:00070780       ___free_lc_time            00471780 f   LIBCMTD:inittime.obj
 0001:000710b0       ___init_time               004720b0 f   LIBCMTD:inittime.obj
 0001:000720b0       _localeconv                004730b0 f   LIBCMTD:lconv.obj
 0001:00072240       ___crtGetStringTypeA       00473240 f   LIBCMTD:a_str.obj
 0001:00072390       ?_CallCatchBlock2@@YAPAXPAUEHRegistrationNode@@PBU_s_FuncInfo@@PAXHK@Z 00473390 f   LIBCMTD:_trnsctrl_.obj
 0001:00072400       ?_CallMemberFunction0@@YGXPAX0@Z 00473400 f   LIBCMTD:_trnsctrl_.obj
 0001:00072410       ?_CallMemberFunction1@@YGXPAX00@Z 00473410 f   LIBCMTD:_trnsctrl_.obj
 0001:00072420       ?_CallMemberFunction2@@YGXPAX00H@Z 00473420 f   LIBCMTD:_trnsctrl_.obj
 0001:00072430       ?_CallSETranslator@@YAHPAUEHExceptionRecord@@PAUEHRegistrationNode@@PAX2PBU_s_FuncInfo@@H1@Z 00473430 f   LIBCMTD:_trnsctrl_.obj
 0001:00072520       ?_GetRangeOfTrysToCheck@@YAPBU_s_TryBlockMapEntry@@PBU_s_FuncInfo@@HHPAI1@Z 00473520 f   LIBCMTD:_trnsctrl_.obj
 0001:000725b0       ?_JumpToContinuation@@YGXPAXPAUEHRegistrationNode@@@Z 004735b0 f   LIBCMTD:_trnsctrl_.obj
 0001:000725f0       ?_UnwindNestedFrames@@YGXPAUEHRegistrationNode@@PAUEHExceptionRecord@@@Z 004735f0 f   LIBCMTD:_trnsctrl_.obj
 0001:00072650       __CreateFrameInfo          00473650 f   LIBCMTD:_trnsctrl_.obj
 0001:00072680       __FindAndUnlinkFrame       00473680 f   LIBCMTD:_trnsctrl_.obj
 0001:000726e0       __IsExceptionObjectToBeDestroyed 004736e0 f   LIBCMTD:_trnsctrl_.obj
 0001:00072710       ___CxxFrameHandler         00473710 f   LIBCMTD:_trnsctrl_.obj
 0001:00072750       ___CxxFrameHandler2        00473750 f   LIBCMTD:_trnsctrl_.obj
 0001:00072790       ___CxxFrameHandler3        00473790 f   LIBCMTD:_trnsctrl_.obj
 0001:000727d0       ___CxxLongjmpUnwind@4      004737d0 f   LIBCMTD:_trnsctrl_.obj
 0001:00072800       __iswctype_l               00473800 f   LIBCMTD:iswctype.obj
 0001:00072820       _is_wctype                 00473820 f   LIBCMTD:iswctype.obj
 0001:00072840       _iswctype                  00473840 f   LIBCMTD:iswctype.obj
 0001:000728a0       _GetTableIndexFromLcid     004738a0 f   LIBCMTD:winapinls.obj
 0001:00072910       _GetTableIndexFromLocaleName 00473910 f   LIBCMTD:winapinls.obj
 0001:000729a0       ___crtCompareStringEx      004739a0 f   LIBCMTD:winapinls.obj
 0001:00072a10       ___crtDownlevelLCIDToLocaleName 00473a10 f   LIBCMTD:winapinls.obj
 0001:00072ae0       ___crtDownlevelLocaleNameToLCID 00473ae0 f   LIBCMTD:winapinls.obj
 0001:00072b40       ___crtEnumSystemLocalesEx  00473b40 f   LIBCMTD:winapinls.obj
 0001:00072bb0       ___crtGetDateFormatEx      00473bb0 f   LIBCMTD:winapinls.obj
 0001:00072c20       ___crtGetLocaleInfoEx      00473c20 f   LIBCMTD:winapinls.obj
 0001:00072c80       ___crtGetTimeFormatEx      00473c80 f   LIBCMTD:winapinls.obj
 0001:00072cf0       ___crtGetUserDefaultLocaleName 00473cf0 f   LIBCMTD:winapinls.obj
 0001:00072d40       ___crtIsValidLocaleName    00473d40 f   LIBCMTD:winapinls.obj
 0001:00072d80       ___crtLCMapStringEx        00473d80 f   LIBCMTD:winapinls.obj
 0001:00072df0       ___wcsnicmp_ascii          00473df0 f   LIBCMTD:winapinls.obj
 0001:00072ec0       ___pctype_func             00473ec0 f   LIBCMTD:ctype.obj
 0001:00072f10       ___pwctype_func            00473f10 f   LIBCMTD:ctype.obj
 0001:00072f20       ___init_collate            00473f20 f   LIBCMTD:initcoll.obj
 0001:00072f30       ____lc_codepage_func       00473f30 f   LIBCMTD:initctyp.obj
 0001:00072f80       ____lc_collate_cp_func     00473f80 f   LIBCMTD:initctyp.obj
 0001:00072fd0       ____lc_locale_name_func    00473fd0 f   LIBCMTD:initctyp.obj
 0001:00073020       ____mb_cur_max_func        00474020 f   LIBCMTD:initctyp.obj
 0001:00073070       ____mb_cur_max_l_func      00474070 f   LIBCMTD:initctyp.obj
 0001:000730a0       ___init_ctype              004740a0 f   LIBCMTD:initctyp.obj
 0001:000736e0       _wcscat_s                  004746e0 f   LIBCMTD:wcscat_s.obj
 0001:00073af0       _wcscmp                    00474af0 f   LIBCMTD:wcscmp.obj
 0001:00073b50       _wcscpy_s                  00474b50 f   LIBCMTD:wcscpy_s.obj
 0001:00073e60       _wcscspn                   00474e60 f   LIBCMTD:wcscspn.obj
 0001:00073ed0       _wcslen                    00474ed0 f   LIBCMTD:wcslen.obj
 0001:00073f10       _wcsnlen                   00474f10 f   LIBCMTD:wcslen_s.obj
 0001:00073f50       _wcsncmp                   00474f50 f   LIBCMTD:wcsncmp.obj
 0001:00073fb0       _wcsncpy_s                 00474fb0 f   LIBCMTD:wcsncpy_s.obj
 0001:000743e0       _wcspbrk                   004753e0 f   LIBCMTD:wcspbrk.obj
 0001:00074f70       ___get_qualified_locale    00475f70 f   LIBCMTD:getqloc.obj
 0001:00075f40       ___get_qualified_locale_downlevel 00476f40 f   LIBCMTD:getqloc_downlevel.obj
 0001:00076210       ___swprintf_l              00477210 f   LIBCMTD:swprintf.obj
 0001:00076240       __scwprintf                00477240 f   LIBCMTD:swprintf.obj
 0001:00076260       __scwprintf_l              00477260 f   LIBCMTD:swprintf.obj
 0001:00076290       __scwprintf_p              00477290 f   LIBCMTD:swprintf.obj
 0001:000762b0       __scwprintf_p_l            004772b0 f   LIBCMTD:swprintf.obj
 0001:000762e0       __snwprintf_s              004772e0 f   LIBCMTD:swprintf.obj
 0001:00076310       __snwprintf_s_l            00477310 f   LIBCMTD:swprintf.obj
 0001:00076340       __swprintf                 00477340 f   LIBCMTD:swprintf.obj
 0001:00076560       __swprintf_p               00477560 f   LIBCMTD:swprintf.obj
 0001:00076590       __swprintf_p_l             00477590 f   LIBCMTD:swprintf.obj
 0001:000765c0       __swprintf_s_l             004775c0 f   LIBCMTD:swprintf.obj
 0001:000765f0       _swprintf_s                004775f0 f   LIBCMTD:swprintf.obj
 0001:00076620       ___crtMessageBoxW          00477620 f   LIBCMTD:crtmboxw.obj
 0001:00076930       ___crtMessageBoxWaitThreadW@4 00477930 f   LIBCMTD:crtmboxw.obj
 0001:00076970       __CrtDbgBreak              00477970 f   LIBCMTD:dbgrptt.obj
 0001:00076980       __CrtGetReportHook         00477980 f   LIBCMTD:dbgrptt.obj
 0001:00076990       __CrtSetReportFile         00477990 f   LIBCMTD:dbgrptt.obj
 0001:00076a90       __CrtSetReportHook         00477a90 f   LIBCMTD:dbgrptt.obj
 0001:00076ab0       __CrtSetReportMode         00477ab0 f   LIBCMTD:dbgrptt.obj
 0001:00076bf0       __VCrtDbgReportA           00477bf0 f   LIBCMTD:dbgrptt.obj
 0001:00077460       __VCrtDbgReportW           00478460 f   LIBCMTD:dbgrptt.obj
 0001:00077de0       __free_base                00478de0 f   LIBCMTD:free.obj
 0001:00077e30       __realloc_base             00478e30 f   LIBCMTD:realloc.obj
 0001:00077f30       __expand_base              00478f30 f   LIBCMTD:expand.obj
 0001:000780a0       __CrtDbgReport             004790a0 f   LIBCMTD:dbgrpt.obj
 0001:000780f0       __CrtDbgReportV            004790f0 f i LIBCMTD:dbgrpt.obj
 0001:00078120       __CrtSetReportHook2        00479120 f   LIBCMTD:dbgrpt.obj
 0001:00078470       ___crtMessageWindowA       00479470 f   LIBCMTD:dbgrpt.obj
 0001:00078920       __heapchk                  00479920 f   LIBCMTD:heapchk.obj
 0001:00078950       __heapset                  00479950 f   LIBCMTD:heapchk.obj
 0001:00078960       __heap_alloc_base          00479960 f i LIBCMTD:malloc.obj
 0001:000789c0       __malloc_base              004799c0 f   LIBCMTD:malloc.obj
 0001:00078a50       __fptrap                   00479a50 f   LIBCMTD:crt0fp.obj
 0001:00078b90       ___crtGetLocaleInfoA       00479b90 f   LIBCMTD:a_loc.obj
 0001:00078be0       __isatty                   00479be0 f   LIBCMTD:isatty.obj
 0001:00078ca0       __strtod_l                 00479ca0 f   LIBCMTD:strtod.obj
 0001:00078eb0       _strtod                    00479eb0 f   LIBCMTD:strtod.obj
 0001:00078ed0       ___crt_atoflt_l            00479ed0 f   LIBCMTD:atodbl.obj
 0001:00078fe0       __atodbl                   00479fe0 f   LIBCMTD:atodbl.obj
 0001:00079000       __atodbl_l                 0047a000 f   LIBCMTD:atodbl.obj
 0001:00079100       __atoflt                   0047a100 f   LIBCMTD:atodbl.obj
 0001:00079120       __atoflt_l                 0047a120 f   LIBCMTD:atodbl.obj
 0001:00079140       __atoldbl                  0047a140 f   LIBCMTD:atodbl.obj
 0001:00079160       __atoldbl_l                0047a160 f   LIBCMTD:atodbl.obj
 0001:00079260       __commit                   0047a260 f   LIBCMTD:commit.obj
 0001:000794a0       ___lock_fhandle            0047a4a0 f   LIBCMTD:osfinfo.obj
 0001:00079590       __alloc_osfhnd             0047a590 f   LIBCMTD:osfinfo.obj
 0001:00079830       __free_osfhnd              0047a830 f   LIBCMTD:osfinfo.obj
 0001:00079920       __get_osfhandle            0047a920 f   LIBCMTD:osfinfo.obj
 0001:00079aa0       __open_osfhandle           0047aaa0 f   LIBCMTD:osfinfo.obj
 0001:00079cd0       __set_osfhnd               0047acd0 f   LIBCMTD:osfinfo.obj
 0001:00079da0       __unlock_fhandle           0047ada0 f   LIBCMTD:osfinfo.obj
 0001:00079dd0       __getbuf                   0047add0 f   LIBCMTD:_getbuf.obj
 0001:00079ea0       __open                     0047aea0 f   LIBCMTD:open.obj
 0001:0007a040       __sopen                    0047b040 f   LIBCMTD:open.obj
 0001:0007a0b0       __sopen_helper             0047b0b0 f   LIBCMTD:open.obj
 0001:0007a350       __sopen_nolock             0047b350 f   LIBCMTD:open.obj
 0001:0007a3c0       __sopen_s                  0047b3c0 f   LIBCMTD:open.obj
 0001:0007a3f0       __mbsnbcmp                 0047b3f0 f   LIBCMTD:mbsnbcmp.obj
 0001:0007a410       __mbsnbcmp_l               0047b410 f   LIBCMTD:mbsnbcmp.obj
 0001:0007a730       __mbsnbicmp                0047b730 f   LIBCMTD:mbsnbicm.obj
 0001:0007a750       __mbsnbicmp_l              0047b750 f   LIBCMTD:mbsnbicm.obj
 0001:0007ac90       __global_unwind2           0047bc90 f   LIBCMTD:exsup.obj
 0001:0007acf5       __local_unwind2            0047bcf5 f   LIBCMTD:exsup.obj
 0001:0007ad79       __abnormal_termination     0047bd79 f   LIBCMTD:exsup.obj
 0001:0007ad9c       __NLG_Notify1              0047bd9c f   LIBCMTD:exsup.obj
 0001:0007ada5       __NLG_Notify               0047bda5 f   LIBCMTD:exsup.obj
 0001:0007adbc       __NLG_Dispatch2            0047bdbc     LIBCMTD:exsup.obj
 0001:0007adbc       __NLG_Dispatch             0047bdbc     LIBCMTD:exsup.obj
 0001:0007adc4       __NLG_Call                 0047bdc4 f   LIBCMTD:exsup.obj
 0001:0007adc6       __NLG_Return2              0047bdc6     LIBCMTD:exsup.obj
 0001:0007add0       __output_s_l               0047bdd0 f   LIBCMTD:outputs.obj
 0001:0007c780       __wctomb_l                 0047d780 f   LIBCMTD:wctomb.obj
 0001:0007c800       __wctomb_s_l               0047d800 f   LIBCMTD:wctomb.obj
 0001:0007cb50       _wctomb                    0047db50 f   LIBCMTD:wctomb.obj
 0001:0007cba0       _wctomb_s                  0047dba0 f   LIBCMTD:wctomb.obj
 0001:0007cbc0       __mbtowc_l                 0047dbc0 f   LIBCMTD:mbtowc.obj
 0001:0007ce00       _mbtowc                    0047de00 f   LIBCMTD:mbtowc.obj
 0001:0007ce20       __putwch                   0047de20 f   LIBCMTD:putwch.obj
 0001:0007ceb0       __putwch_nolock            0047deb0 f   LIBCMTD:putwch.obj
 0001:0007cf00       __wmakepath_s              0047df00 f   LIBCMTD:wmakepath_s.obj
 0001:0007d2c0       __wsplitpath_s             0047e2c0 f   LIBCMTD:wsplitpath_s.obj
 0001:0007d900       ___isascii                 0047e900 f i LIBCMTD:_ctype.obj
 0001:0007d930       ___iscsym                  0047e930 f i LIBCMTD:_ctype.obj
 0001:0007d970       ___iscsymf                 0047e970 f i LIBCMTD:_ctype.obj
 0001:0007d9b0       ___toascii                 0047e9b0 f i LIBCMTD:_ctype.obj
 0001:0007d9c0       __isalnum_l                0047e9c0 f i LIBCMTD:_ctype.obj
 0001:0007da40       __isalpha_l                0047ea40 f i LIBCMTD:_ctype.obj
 0001:0007dac0       __isblank_l                0047eac0 f i LIBCMTD:_ctype.obj
 0001:0007db50       __iscntrl_l                0047eb50 f i LIBCMTD:_ctype.obj
 0001:0007dbd0       __iscsym_l                 0047ebd0 f i LIBCMTD:_ctype.obj
 0001:0007dc10       __iscsymf_l                0047ec10 f i LIBCMTD:_ctype.obj
 0001:0007dc50       __isdigit_l                0047ec50 f i LIBCMTD:_ctype.obj
 0001:0007dcd0       __isgraph_l                0047ecd0 f i LIBCMTD:_ctype.obj
 0001:0007dd50       __islower_l                0047ed50 f i LIBCMTD:_ctype.obj
 0001:0007ddd0       __isprint_l                0047edd0 f i LIBCMTD:_ctype.obj
 0001:0007de50       __ispunct_l                0047ee50 f i LIBCMTD:_ctype.obj
 0001:0007ded0       __isspace_l                0047eed0 f i LIBCMTD:_ctype.obj
 0001:0007df50       __isupper_l                0047ef50 f i LIBCMTD:_ctype.obj
 0001:0007dfd0       __isxdigit_l               0047efd0 f i LIBCMTD:_ctype.obj
 0001:0007e050       _isalnum                   0047f050 f i LIBCMTD:_ctype.obj
 0001:0007e090       _isalpha                   0047f090 f i LIBCMTD:_ctype.obj
 0001:0007e0d0       _isblank                   0047f0d0 f i LIBCMTD:_ctype.obj
 0001:0007e120       _iscntrl                   0047f120 f i LIBCMTD:_ctype.obj
 0001:0007e150       _isdigit                   0047f150 f i LIBCMTD:_ctype.obj
 0001:0007e180       _isgraph                   0047f180 f i LIBCMTD:_ctype.obj
 0001:0007e1c0       _islower                   0047f1c0 f i LIBCMTD:_ctype.obj
 0001:0007e1f0       _isprint                   0047f1f0 f i LIBCMTD:_ctype.obj
 0001:0007e230       _ispunct                   0047f230 f i LIBCMTD:_ctype.obj
 0001:0007e260       _isspace                   0047f260 f i LIBCMTD:_ctype.obj
 0001:0007e290       _isupper                   0047f290 f i LIBCMTD:_ctype.obj
 0001:0007e2c0       _isxdigit                  0047f2c0 f i LIBCMTD:_ctype.obj
 0001:0007e300       _memmove                   0047f300 f   LIBCMTD:memmove.obj
 0001:0007e950       _strrchr                   0047f950 f   LIBCMTD:strrchr.obj
 0001:0007ea90       __fptostr                  0047fa90 f   LIBCMTD:_fptostr.obj
 0001:0007edb0       ___dtold                   0047fdb0 f   LIBCMTD:cfout.obj
 0001:0007ef10       __fltout2                  0047ff10 f   LIBCMTD:cfout.obj
 0001:0007efc0       __allrem                   0047ffc0 f   LIBCMTD:llrem.obj
 0001:0007f080       __aullshr                  00480080 f   LIBCMTD:ullshr.obj
 0001:0007f0a0       __get_output_format        004800a0 f   LIBCMTD:outputformat.obj
 0001:0007f0b0       __set_output_format        004800b0 f   LIBCMTD:outputformat.obj
 0001:0007f150       __controlfp_s              00480150 f   LIBCMTD:contrlfp.obj
 0001:0007f300       __ismbbalnum               00480300 f   LIBCMTD:ismbbyte.obj
 0001:0007f320       __ismbbalnum_l             00480320 f   LIBCMTD:ismbbyte.obj
 0001:0007f340       __ismbbalpha               00480340 f   LIBCMTD:ismbbyte.obj
 0001:0007f360       __ismbbalpha_l             00480360 f   LIBCMTD:ismbbyte.obj
 0001:0007f380       __ismbbblank               00480380 f   LIBCMTD:ismbbyte.obj
 0001:0007f3b0       __ismbbblank_l             004803b0 f   LIBCMTD:ismbbyte.obj
 0001:0007f3f0       __ismbbgraph               004803f0 f   LIBCMTD:ismbbyte.obj
 0001:0007f410       __ismbbgraph_l             00480410 f   LIBCMTD:ismbbyte.obj
 0001:0007f430       __ismbbkalnum              00480430 f   LIBCMTD:ismbbyte.obj
 0001:0007f450       __ismbbkalnum_l            00480450 f   LIBCMTD:ismbbyte.obj
 0001:0007f470       __ismbbkana                00480470 f   LIBCMTD:ismbbyte.obj
 0001:0007f490       __ismbbkana_l              00480490 f   LIBCMTD:ismbbyte.obj
 0001:0007f500       __ismbbkprint              00480500 f   LIBCMTD:ismbbyte.obj
 0001:0007f520       __ismbbkprint_l            00480520 f   LIBCMTD:ismbbyte.obj
 0001:0007f540       __ismbbkpunct              00480540 f   LIBCMTD:ismbbyte.obj
 0001:0007f560       __ismbbkpunct_l            00480560 f   LIBCMTD:ismbbyte.obj
 0001:0007f580       __ismbblead                00480580 f   LIBCMTD:ismbbyte.obj
 0001:0007f5a0       __ismbblead_l              004805a0 f   LIBCMTD:ismbbyte.obj
 0001:0007f5c0       __ismbbprint               004805c0 f   LIBCMTD:ismbbyte.obj
 0001:0007f5e0       __ismbbprint_l             004805e0 f   LIBCMTD:ismbbyte.obj
 0001:0007f600       __ismbbpunct               00480600 f   LIBCMTD:ismbbyte.obj
 0001:0007f620       __ismbbpunct_l             00480620 f   LIBCMTD:ismbbyte.obj
 0001:0007f640       __ismbbtrail               00480640 f   LIBCMTD:ismbbyte.obj
 0001:0007f660       __ismbbtrail_l             00480660 f   LIBCMTD:ismbbyte.obj
 0001:0007f680       __dupenv_s                 00480680 f   LIBCMTD:getenv.obj
 0001:0007f6a0       __dupenv_s_dbg             004806a0 f   LIBCMTD:getenv.obj
 0001:0007f920       __getenv_helper_nolock     00480920 f   LIBCMTD:getenv.obj
 0001:0007fbf0       _getenv                    00480bf0 f   LIBCMTD:getenv.obj
 0001:0007fd80       _getenv_s                  00480d80 f   LIBCMTD:getenv.obj
 0001:0007fe20       __ungetc_nolock            00480e20 f   LIBCMTD:ungetc.obj
 0001:00080050       _ungetc                    00481050 f   LIBCMTD:ungetc.obj
 0001:00080160       __CallSettingFrame@12      00481160 f   LIBCMTD:lowhelpr.obj
 0001:00080187       __NLG_Return               00481187     LIBCMTD:lowhelpr.obj
 0001:000801b0       ___DestructExceptionObject 004811b0 f   LIBCMTD:frame.obj
 0001:000802d0       ??0bad_exception@std@@QAE@ABV01@@Z 004812d0 f i LIBCMTD:frame.obj
 0001:00080300       ??0bad_exception@std@@QAE@PBD@Z 00481300 f i LIBCMTD:frame.obj
 0001:00080330       ??1bad_exception@std@@UAE@XZ 00481330 f i LIBCMTD:frame.obj
 0001:00080350       ??_Gbad_exception@std@@UAEPAXI@Z 00481350 f i LIBCMTD:frame.obj
 0001:00080350       ??_Ebad_exception@std@@UAEPAXI@Z 00481350 f i LIBCMTD:frame.obj
 0001:00080f40       ?__uncaught_exception@@YA_NXZ 00481f40 f   LIBCMTD:frame.obj
 0001:00080f70       ?_is_exception_typeof@@YAHABVtype_info@@PAU_EXCEPTION_POINTERS@@@Z 00481f70 f   LIBCMTD:frame.obj
 0001:00081050       __SetWinRTOutOfMemoryExceptionCallback 00482050 f   LIBCMTD:frame.obj
 0001:00081060       ___AdjustPointer           00482060 f   LIBCMTD:frame.obj
 0001:000810b0       ___BuildCatchObject        004820b0 f   LIBCMTD:frame.obj
 0001:000811c0       ___BuildCatchObjectHelper  004821c0 f   LIBCMTD:frame.obj
 0001:000814c0       ___CxxDetectRethrow        004824c0 f   LIBCMTD:frame.obj
 0001:00081540       ___CxxExceptionFilter      00482540 f   LIBCMTD:frame.obj
 0001:00081740       ___CxxQueryExceptionSize   00482740 f   LIBCMTD:frame.obj
 0001:00081750       ___CxxRegisterExceptionObject 00482750 f   LIBCMTD:frame.obj
 0001:00081890       ___CxxUnregisterExceptionObject 00482890 f   LIBCMTD:frame.obj
 0001:00081a10       ___FrameUnwindFilter       00482a10 f   LIBCMTD:frame.obj
 0001:00081a90       ___FrameUnwindToState      00482a90 f   LIBCMTD:frame.obj
 0001:00081c10       ___GetPlatformExceptionInfo 00482c10 f   LIBCMTD:frame.obj
 0001:00081cd0       ___InternalCxxFrameHandler 00482cd0 f   LIBCMTD:frame.obj
 0001:00081e40       ___TypeMatch               00482e40 f   LIBCMTD:frame.obj
 0001:00082360       __i64tow_s                 00483360 f   LIBCMTD:xtows.obj
 0001:000823b0       __itow_s                   004833b0 f   LIBCMTD:xtows.obj
 0001:00082410       __ltow_s                   00483410 f   LIBCMTD:xtows.obj
 0001:00082450       __ui64tow_s                00483450 f   LIBCMTD:xtows.obj
 0001:00082470       __ultow_s                  00483470 f   LIBCMTD:xtows.obj
 0001:00082890       __wtoi                     00483890 f   LIBCMTD:wtox.obj
 0001:000828b0       __wtoi64                   004838b0 f   LIBCMTD:wtox.obj
 0001:000828d0       __wtoi64_l                 004838d0 f   LIBCMTD:wtox.obj
 0001:000828f0       __wtoi_l                   004838f0 f   LIBCMTD:wtox.obj
 0001:00082910       __wtol                     00483910 f   LIBCMTD:wtox.obj
 0001:00082930       __wtol_l                   00483930 f   LIBCMTD:wtox.obj
 0001:00082950       __wtoll                    00483950 f   LIBCMTD:wtox.obj
 0001:00082970       __wtoll_l                  00483970 f   LIBCMTD:wtox.obj
 0001:00082990       _wcschr                    00483990 f   LIBCMTD:wcschr.obj
 0001:00082b10       __wcsicmp                  00483b10 f   LIBCMTD:wcsicmp.obj
 0001:00082ce0       __wcsicmp_l                00483ce0 f   LIBCMTD:wcsicmp.obj
 0001:00082f50       __wcsnicmp                 00483f50 f   LIBCMTD:wcsnicmp.obj
 0001:00083140       __wcsnicmp_l               00484140 f   LIBCMTD:wcsnicmp.obj
 0001:000833a0       ___vswprintf_l             004843a0 f   LIBCMTD:vswprint.obj
 0001:000833c0       __vscwprintf               004843c0 f   LIBCMTD:vswprint.obj
 0001:000833e0       __vscwprintf_helper        004843e0 f   LIBCMTD:vswprint.obj
 0001:000834d0       __vscwprintf_l             004844d0 f   LIBCMTD:vswprint.obj
 0001:000834f0       __vscwprintf_p             004844f0 f   LIBCMTD:vswprint.obj
 0001:00083510       __vscwprintf_p_l           00484510 f   LIBCMTD:vswprint.obj
 0001:00083530       __vswprintf                00484530 f   LIBCMTD:vswprint.obj
 0001:00083550       __vswprintf_l              00484550 f   LIBCMTD:vswprint.obj
 0001:00083770       __vsnwprintf_s             00484770 f   LIBCMTD:vswprnc.obj
 0001:000837a0       __vsnwprintf_s_l           004847a0 f   LIBCMTD:vswprnc.obj
 0001:00083b70       __vswprintf_c              00484b70 f   LIBCMTD:vswprnc.obj
 0001:00083bc0       __vswprintf_c_l            00484bc0 f   LIBCMTD:vswprnc.obj
 0001:00083c10       __vswprintf_helper         00484c10 f   LIBCMTD:vswprnc.obj
 0001:00083e80       __vswprintf_p              00484e80 f   LIBCMTD:vswprnc.obj
 0001:00083ed0       __vswprintf_p_l            00484ed0 f   LIBCMTD:vswprnc.obj
 0001:00083f20       __vswprintf_s_l            00484f20 f   LIBCMTD:vswprnc.obj
 0001:000841b0       _vswprintf_s               004851b0 f   LIBCMTD:vswprnc.obj
 0001:000841d0       __woutput_l                004851d0 f   LIBCMTD:woutput.obj
 0001:000857c0       _strcat_s                  004867c0 f   LIBCMTD:strcat_s.obj
 0001:00085ff0       __i64toa_s                 00486ff0 f   LIBCMTD:xtoas.obj
 0001:00086040       __itoa_s                   00487040 f   LIBCMTD:xtoas.obj
 0001:000860a0       __ltoa_s                   004870a0 f   LIBCMTD:xtoas.obj
 0001:000860e0       __ui64toa_s                004870e0 f   LIBCMTD:xtoas.obj
 0001:00086100       __ultoa_s                  00487100 f   LIBCMTD:xtoas.obj
 0001:00086500       __mbstowcs_l               00487500 f   LIBCMTD:mbstowcs.obj
 0001:00086520       __mbstowcs_l_helper        00487520 f   LIBCMTD:mbstowcs.obj
 0001:000868b0       __mbstowcs_s_l             004878b0 f   LIBCMTD:mbstowcs.obj
 0001:00086c70       _mbstowcs                  00487c70 f   LIBCMTD:mbstowcs.obj
 0001:00086cc0       _mbstowcs_s                00487cc0 f   LIBCMTD:mbstowcs.obj
 0001:00086d50       __wcstombs_l               00487d50 f   LIBCMTD:wcstombs.obj
 0001:00086d70       __wcstombs_l_helper        00487d70 f   LIBCMTD:wcstombs.obj
 0001:00087280       __wcstombs_s_l             00488280 f   LIBCMTD:wcstombs.obj
 0001:000875e0       _wcstombs                  004885e0 f   LIBCMTD:wcstombs.obj
 0001:00087600       _wcstombs_s                00488600 f   LIBCMTD:wcstombs.obj
 0001:00087630       __fltin2                   00488630 f   LIBCMTD:cfin.obj
 0001:00087710       __CopyMan                  00488710 f i LIBCMTD:intrncvt.obj
 0001:00087760       __FillZeroMan              00488760 f i LIBCMTD:intrncvt.obj
 0001:00087790       __IncMan                   00488790 f i LIBCMTD:intrncvt.obj
 0001:00087840       __IsZeroMan                00488840 f i LIBCMTD:intrncvt.obj
 0001:00087880       __RoundMan                 00488880 f i LIBCMTD:intrncvt.obj
 0001:00087960       __ShrMan                   00488960 f i LIBCMTD:intrncvt.obj
 0001:00087a50       __ZeroTail                 00488a50 f i LIBCMTD:intrncvt.obj
 0001:00087ae0       ___addl                    00488ae0 f i LIBCMTD:intrncvt.obj
 0001:00087b20       __ld12cvt                  00488b20 f i LIBCMTD:intrncvt.obj
 0001:00087de0       __ld12tod                  00488de0 f   LIBCMTD:intrncvt.obj
 0001:00087e00       __ld12tof                  00488e00 f   LIBCMTD:intrncvt.obj
 0001:00087e20       __ld12told                 00488e20 f   LIBCMTD:intrncvt.obj
 0001:00087f20       ___STRINGTOLD_L            00488f20 f   LIBCMTD:strgtold.obj
 0001:00087f90       ___ld12mul                 00488f90 f i LIBCMTD:strgtold.obj
 0001:000883a0       ___multtenpow12            004893a0 f i LIBCMTD:strgtold.obj
 0001:00088480       ___shl_12                  00489480 f i LIBCMTD:strgtold.obj
 0001:00088500       ___shr_12                  00489500 f i LIBCMTD:strgtold.obj
 0001:00088580       ___strgtold12_l            00489580 f   LIBCMTD:strgtold.obj
 0001:00089110       __wopen                    0048a110 f   LIBCMTD:wopen.obj
 0001:000892b0       __wsopen                   0048a2b0 f   LIBCMTD:wopen.obj
 0001:00089320       __wsopen_helper            0048a320 f   LIBCMTD:wopen.obj
 0001:000895c0       __wsopen_nolock            0048a5c0 f   LIBCMTD:wopen.obj
 0001:0008a640       __wsopen_s                 0048b640 f   LIBCMTD:wopen.obj
 0001:0008a670       _strncmp                   0048b670 f   LIBCMTD:strncmp.obj
 0001:0008a6f0       __strnicmp                 0048b6f0 f   LIBCMTD:strnicmp.obj
 0001:0008a8c0       __strnicmp_l               0048b8c0 f   LIBCMTD:strnicmp.obj
 0001:0008ab50       ___termconout              0048bb50 f   LIBCMTD:initcon.obj
 0001:0008ab80       ___initconout              0048bb80 f   LIBCMTD:initcon.obj
 0001:0008abb0       _$I10_OUTPUT               0048bbb0 f   LIBCMTD:x10fout.obj
 0001:0008b1c0       ___add_12                  0048c1c0 f i LIBCMTD:x10fout.obj
 0001:0008b470       ___control87_2             0048c470 f   LIBCMTD:ieee87.obj
 0001:0008b910       __clearfp                  0048c910 f   LIBCMTD:ieee87.obj
 0001:0008b950       __control87                0048c950 f i LIBCMTD:ieee87.obj
 0001:0008ba00       __controlfp                0048ca00 f   LIBCMTD:ieee87.obj
 0001:0008ba20       __fpreset                  0048ca20 f   LIBCMTD:ieee87.obj
 0001:0008bbe0       __set_controlfp            0048cbe0 f   LIBCMTD:ieee87.obj
 0001:0008bc70       __statusfp                 0048cc70 f   LIBCMTD:ieee87.obj
 0001:0008bcb0       __statusfp2                0048ccb0 f   LIBCMTD:ieee87.obj
 0001:0008bcf0       ___wtomb_environ           0048ccf0 f   LIBCMTD:wtombenv.obj
 0001:0008bde0       __mbsnbicoll               0048cde0 f   LIBCMTD:mbsnbico.obj
 0001:0008be00       __mbsnbicoll_l             0048ce00 f   LIBCMTD:mbsnbico.obj
 0001:0008c080       ??3@YAXPAX@Z               0048d080 f   LIBCMTD:dbgdel.obj
 0001:0008c170       ?_ValidateExecute@@YAHP6GHXZ@Z 0048d170 f   LIBCMTD:validate.obj
 0001:0008c190       ?_ValidateRead@@YAHPBXI@Z  0048d190 f   LIBCMTD:validate.obj
 0001:0008c1b0       ?_ValidateWrite@@YAHPAXI@Z 0048d1b0 f   LIBCMTD:validate.obj
 0001:0008c1d0       ??0type_info@@AAE@ABV0@@Z  0048d1d0 f   LIBCMTD:typinfo.obj
 0001:0008c1f0       ??1type_info@@UAE@XZ       0048d1f0 f   LIBCMTD:typinfo.obj
 0001:0008c210       ??4type_info@@AAEAAV0@ABV0@@Z 0048d210 f   LIBCMTD:typinfo.obj
 0001:0008c220       ??8type_info@@QBE_NABV0@@Z 0048d220 f   LIBCMTD:typinfo.obj
 0001:0008c260       ??9type_info@@QBE_NABV0@@Z 0048d260 f   LIBCMTD:typinfo.obj
 0001:0008c2a0       ??_Etype_info@@UAEPAXI@Z   0048d2a0 f i LIBCMTD:typinfo.obj
 0001:0008c2a0       ??_Gtype_info@@UAEPAXI@Z   0048d2a0 f i LIBCMTD:typinfo.obj
 0001:0008c2d0       ?_name_internal_method@type_info@@QBEPBDPAU__type_info_node@@@Z 0048d2d0 f   LIBCMTD:typinfo.obj
 0001:0008c2f0       ?_type_info_dtor_internal_method@type_info@@QAEXXZ 0048d2f0 f   LIBCMTD:typinfo.obj
 0001:0008c310       ?before@type_info@@QBE_NABV1@@Z 0048d310 f   LIBCMTD:typinfo.obj
 0001:0008c350       ?name@type_info@@QBEPBDPAU__type_info_node@@@Z 0048d350 f   LIBCMTD:typinfo.obj
 0001:0008c370       ?raw_name@type_info@@QBEPBDXZ 0048d370 f   LIBCMTD:typinfo.obj
 0001:0008c390       ??0__non_rtti_object@std@@QAE@ABV01@@Z 0048d390 f   LIBCMTD:stdexcpt.obj
 0001:0008c3c0       ??0__non_rtti_object@std@@QAE@PBD@Z 0048d3c0 f   LIBCMTD:stdexcpt.obj
 0001:0008c3f0       ??0bad_cast@std@@QAE@ABV01@@Z 0048d3f0 f   LIBCMTD:stdexcpt.obj
 0001:0008c420       ??0bad_cast@std@@QAE@PBD@Z 0048d420 f   LIBCMTD:stdexcpt.obj
 0001:0008c450       ??0bad_typeid@std@@QAE@ABV01@@Z 0048d450 f   LIBCMTD:stdexcpt.obj
 0001:0008c480       ??0bad_typeid@std@@QAE@PBD@Z 0048d480 f   LIBCMTD:stdexcpt.obj
 0001:0008c4b0       ??0exception@std@@QAE@ABQBD@Z 0048d4b0 f   LIBCMTD:stdexcpt.obj
 0001:0008c4f0       ??0exception@std@@QAE@ABQBDH@Z 0048d4f0 f   LIBCMTD:stdexcpt.obj
 0001:0008c520       ??0exception@std@@QAE@ABV01@@Z 0048d520 f   LIBCMTD:stdexcpt.obj
 0001:0008c560       ??0exception@std@@QAE@XZ   0048d560 f   LIBCMTD:stdexcpt.obj
 0001:0008c590       ??1__non_rtti_object@std@@UAE@XZ 0048d590 f   LIBCMTD:stdexcpt.obj
 0001:0008c5b0       ??1bad_cast@std@@UAE@XZ    0048d5b0 f   LIBCMTD:stdexcpt.obj
 0001:0008c5d0       ??1bad_typeid@std@@UAE@XZ  0048d5d0 f   LIBCMTD:stdexcpt.obj
 0001:0008c5f0       ??1exception@std@@UAE@XZ   0048d5f0 f   LIBCMTD:stdexcpt.obj
 0001:0008c610       ??4exception@std@@QAEAAV01@ABV01@@Z 0048d610 f   LIBCMTD:stdexcpt.obj
 0001:0008c660       ??_E__non_rtti_object@std@@UAEPAXI@Z 0048d660 f i LIBCMTD:stdexcpt.obj
 0001:0008c660       ??_G__non_rtti_object@std@@UAEPAXI@Z 0048d660 f i LIBCMTD:stdexcpt.obj
 0001:0008c690       ??_Gbad_cast@std@@UAEPAXI@Z 0048d690 f i LIBCMTD:stdexcpt.obj
 0001:0008c690       ??_Ebad_cast@std@@UAEPAXI@Z 0048d690 f i LIBCMTD:stdexcpt.obj
 0001:0008c6c0       ??_Ebad_typeid@std@@UAEPAXI@Z 0048d6c0 f i LIBCMTD:stdexcpt.obj
 0001:0008c6c0       ??_Gbad_typeid@std@@UAEPAXI@Z 0048d6c0 f i LIBCMTD:stdexcpt.obj
 0001:0008c6f0       ??_Gexception@std@@UAEPAXI@Z 0048d6f0 f i LIBCMTD:stdexcpt.obj
 0001:0008c6f0       ??_Eexception@std@@UAEPAXI@Z 0048d6f0 f i LIBCMTD:stdexcpt.obj
 0001:0008c720       ?_Copy_str@exception@std@@AAEXPBD@Z 0048d720 f   LIBCMTD:stdexcpt.obj
 0001:0008c780       ?_Tidy@exception@std@@AAEXXZ 0048d780 f   LIBCMTD:stdexcpt.obj
 0001:0008c7c0       ?what@exception@std@@UBEPBDXZ 0048d7c0 f   LIBCMTD:stdexcpt.obj
 0001:0008c7f0       __CxxThrowException@8      0048d7f0 f   LIBCMTD:throw.obj
 0001:0008cc50       __wcstol_l                 0048dc50 f   LIBCMTD:wcstol.obj
 0001:0008cc70       __wcstoul_l                0048dc70 f   LIBCMTD:wcstol.obj
 0001:0008cc90       _wcstol                    0048dc90 f   LIBCMTD:wcstol.obj
 0001:0008ccb0       _wcstoul                   0048dcb0 f   LIBCMTD:wcstol.obj
 0001:0008d220       __wcstof_l                 0048e220 f   LIBCMTD:wcstoq.obj
 0001:0008d330       __wcstoi64                 0048e330 f   LIBCMTD:wcstoq.obj
 0001:0008d380       __wcstoi64_l               0048e380 f   LIBCMTD:wcstoq.obj
 0001:0008d3a0       __wcstoimax_l              0048e3a0 f   LIBCMTD:wcstoq.obj
 0001:0008d3c0       __wcstold_l                0048e3c0 f   LIBCMTD:wcstoq.obj
 0001:0008d3e0       __wcstoll_l                0048e3e0 f   LIBCMTD:wcstoq.obj
 0001:0008d400       __wcstoui64                0048e400 f   LIBCMTD:wcstoq.obj
 0001:0008d450       __wcstoui64_l              0048e450 f   LIBCMTD:wcstoq.obj
 0001:0008d470       __wcstoull_l               0048e470 f   LIBCMTD:wcstoq.obj
 0001:0008d490       __wcstoumax_l              0048e490 f   LIBCMTD:wcstoq.obj
 0001:0008d4b0       _wcstof                    0048e4b0 f   LIBCMTD:wcstoq.obj
 0001:0008d4d0       _wcstoimax                 0048e4d0 f   LIBCMTD:wcstoq.obj
 0001:0008d4f0       _wcstold                   0048e4f0 f   LIBCMTD:wcstoq.obj
 0001:0008d510       _wcstoll                   0048e510 f   LIBCMTD:wcstoq.obj
 0001:0008d530       _wcstoull                  0048e530 f   LIBCMTD:wcstoq.obj
 0001:0008d550       _wcstoumax                 0048e550 f   LIBCMTD:wcstoq.obj
 0001:0008d570       __towlower_l               0048e570 f   LIBCMTD:towlower.obj
 0001:0008d6c0       _towlower                  0048e6c0 f   LIBCMTD:towlower.obj
 0001:0008d6e0       __validate_param_reuseW    0048e6e0 f   LIBCMTD:woutputp.obj
 0001:0008d9c0       __woutput_p_l              0048e9c0 f   LIBCMTD:woutputp.obj
 0001:000914c0       __woutput_s_l              004924c0 f   LIBCMTD:woutputs.obj
 0001:00092c10       __fputwc_nolock            00493c10 f   LIBCMTD:fputwc.obj
 0001:00092f00       _fputwc                    00493f00 f   LIBCMTD:fputwc.obj
 0001:00093010       _putwc                     00494010 f   LIBCMTD:fputwc.obj
 0001:00093030       ___mtold12                 00494030 f   LIBCMTD:mantold.obj
 0001:00093180       __chsize                   00494180 f   LIBCMTD:chsize.obj
 0001:000931c0       __chsize_nolock            004941c0 f   LIBCMTD:chsize.obj
 0001:00093470       __chsize_s                 00494470 f   LIBCMTD:chsize.obj
 0001:00093740       __get_fmode                00494740 f   LIBCMTD:setmode.obj
 0001:000937e0       __set_fmode                004947e0 f   LIBCMTD:setmode.obj
 0001:00093890       __setmode                  00494890 f   LIBCMTD:setmode.obj
 0001:00093b50       __setmode_nolock           00494b50 f   LIBCMTD:setmode.obj
 0001:00093dc0       ___ascii_strnicmp          00494dc0 f   LIBCMTD:_strnicm.obj
 0001:00093e30       ___clrfp_sse2              00494e30 f   LIBCMTD:fpctrl.obj
 0001:00093e70       ___ctrlfp_sse2             00494e70 f   LIBCMTD:fpctrl.obj
 0001:00093ed0       ___fclrf_sse2              00494ed0 f   LIBCMTD:fpctrl.obj
 0001:00093ef0       ___get_fpsr_sse2           00494ef0 f   LIBCMTD:fpctrl.obj
 0001:00093f20       ___set_fpsr_sse2           00494f20 f   LIBCMTD:fpctrl.obj
 0001:00094000       ___set_statfp_sse2         00495000 f   LIBCMTD:fpctrl.obj
 0001:00094030       ___statfp_sse2             00495030 f   LIBCMTD:fpctrl.obj
 0001:00094060       __clrfp                    00495060 f   LIBCMTD:fpctrl.obj
 0001:00094080       __ctrlfp                   00495080 f   LIBCMTD:fpctrl.obj
 0001:000940b0       __set_statfp               004950b0 f   LIBCMTD:fpctrl.obj
 0001:00094120       __statfp                   00495120 f   LIBCMTD:fpctrl.obj
 0001:00094130       ___crtsetenv               00495130 f   LIBCMTD:setenv.obj
 0001:00094800       __strnicoll                00495800 f   LIBCMTD:strnicol.obj
 0001:00094840       __strnicoll_l              00495840 f   LIBCMTD:strnicol.obj
 0001:00094f60       ___crtCompareStringA       00495f60 f   LIBCMTD:a_cmp.obj
 0001:00094fc0       ?_Name_base@type_info@@CAPBDPBV1@PAU__type_info_node@@@Z 00495fc0 f   LIBCMTD:typname.obj
 0001:00095170       ?_Name_base_internal@type_info@@CAPBDPBV1@PAU__type_info_node@@@Z 00496170 f   LIBCMTD:typname.obj
 0001:00095330       ?_Type_info_dtor@type_info@@CAXPAV1@@Z 00496330 f   LIBCMTD:typname.obj
 0001:00095440       ?_Type_info_dtor_internal@type_info@@CAXPAV1@@Z 00496440 f   LIBCMTD:typname.obj
 0001:00095550       ___clean_type_info_names_internal 00496550 f   LIBCMTD:typname.obj
 0001:00095600       ___unDNameHelper           00496600 f   LIBCMTD:typname.obj
 0001:00095640       __wchartodigit             00496640 f   LIBCMTD:wchtodig.obj
 0001:00095960       __wcstod_l                 00496960 f   LIBCMTD:wcstod.obj
 0001:00095b20       _wcstod                    00496b20 f   LIBCMTD:wcstod.obj
 0001:00095b40       ___crtLCMapStringW         00496b40 f   LIBCMTD:w_map.obj
 0001:00095b80       __flswbuf                  00496b80 f   LIBCMTD:_flswbuf.obj
 0001:00095e70       __mbschr                   00496e70 f   LIBCMTD:mbschr.obj
 0001:00095e90       __mbschr_l                 00496e90 f   LIBCMTD:mbschr.obj
 0001:00096030       ??0Block@_HeapManager@@QAE@XZ 00497030 f i LIBCMTD:undname.obj
 0001:00096050       ??0DName@@QAE@AAPBDD@Z     00497050 f   LIBCMTD:undname.obj
 0001:00096310       ??0DName@@QAE@ABV0@@Z      00497310 f i LIBCMTD:undname.obj
 0001:00096330       ??0DName@@QAE@D@Z          00497330 f   LIBCMTD:undname.obj
 0001:00096410       ??0DName@@QAE@PAV0@@Z      00497410 f   LIBCMTD:undname.obj
 0001:00096550       ??0DName@@QAE@PBD@Z        00497550 f   LIBCMTD:undname.obj
 0001:00096640       ??0DName@@QAE@W4DNameStatus@@@Z 00497640 f   LIBCMTD:undname.obj
 0001:00096760       ??0DName@@QAE@XZ           00497760 f i LIBCMTD:undname.obj
 0001:00096820       ??0DName@@QAE@_J@Z         00497820 f   LIBCMTD:undname.obj
 0001:000969a0       ??0DName@@QAE@_K@Z         004979a0 f   LIBCMTD:undname.obj
 0001:00096ae0       ??0DNameNode@@IAE@XZ       00497ae0 f   LIBCMTD:undname.obj
 0001:00096b00       ??0DNameStatusNode@@AAE@W4DNameStatus@@@Z 00497b00 f   LIBCMTD:undname.obj
 0001:00096b50       ??0Replicator@@QAE@XZ      00497b50 f i LIBCMTD:undname.obj
 0001:00096b70       ??0UnDecorator@@QAE@PADPBDHP6APADJ@ZK@Z 00497b70 f i LIBCMTD:undname.obj
 0001:00096c10       ??0charNode@@QAE@D@Z       00497c10 f   LIBCMTD:undname.obj
 0001:00096c40       ??0pDNameNode@@QAE@PAVDName@@@Z 00497c40 f   LIBCMTD:undname.obj
 0001:00096ca0       ??0pairNode@@QAE@PAVDNameNode@@0@Z 00497ca0 f   LIBCMTD:undname.obj
 0001:00096ce0       ??0pcharNode@@QAE@PBDH@Z   00497ce0 f   LIBCMTD:undname.obj
 0001:00096d80       ??2@YAPAXIAAV_HeapManager@@H@Z 00497d80 f i LIBCMTD:undname.obj
 0001:00096da0       ??4DName@@QAEAAV0@ABV0@@Z  00497da0 f   LIBCMTD:undname.obj
 0001:00096dc0       ??4DName@@QAEAAV0@D@Z      00497dc0 f i LIBCMTD:undname.obj
 0001:00096ea0       ??4DName@@QAEAAV0@PAV0@@Z  00497ea0 f   LIBCMTD:undname.obj
 0001:00096fd0       ??4DName@@QAEAAV0@PBD@Z    00497fd0 f   LIBCMTD:undname.obj
 0001:000970b0       ??4DName@@QAEAAV0@W4DNameStatus@@@Z 004980b0 f   LIBCMTD:undname.obj
 0001:000971b0       ??AReplicator@@QBE?AVDName@@H@Z 004981b0 f   LIBCMTD:undname.obj
 0001:00097220       ??BUnDecorator@@QAEPADXZ   00498220 f i LIBCMTD:undname.obj
 0001:000974d0       ??H@YA?AVDName@@DABV0@@Z   004984d0 f i LIBCMTD:undname.obj
 0001:00097500       ??H@YA?AVDName@@PBDABV0@@Z 00498500 f i LIBCMTD:undname.obj
 0001:00097530       ??H@YA?AVDName@@W4DNameStatus@@ABV0@@Z 00498530 f i LIBCMTD:undname.obj
 0001:00097560       ??HDName@@QBE?AV0@ABV0@@Z  00498560 f   LIBCMTD:undname.obj
 0001:000975a0       ??HDName@@QBE?AV0@D@Z      004985a0 f   LIBCMTD:undname.obj
 0001:000975e0       ??HDName@@QBE?AV0@PAV0@@Z  004985e0 f   LIBCMTD:undname.obj
 0001:00097620       ??HDName@@QBE?AV0@PBD@Z    00498620 f   LIBCMTD:undname.obj
 0001:00097660       ??HDName@@QBE?AV0@W4DNameStatus@@@Z 00498660 f   LIBCMTD:undname.obj
 0001:000976a0       ??YDName@@QAEAAV0@ABV0@@Z  004986a0 f   LIBCMTD:undname.obj
 0001:00097710       ??YDName@@QAEAAV0@D@Z      00498710 f   LIBCMTD:undname.obj
 0001:00097790       ??YDName@@QAEAAV0@PAV0@@Z  00498790 f   LIBCMTD:undname.obj
 0001:00097840       ??YDName@@QAEAAV0@PBD@Z    00498840 f   LIBCMTD:undname.obj
 0001:000978e0       ??YDName@@QAEAAV0@W4DNameStatus@@@Z 004988e0 f   LIBCMTD:undname.obj
 0001:00097940       ??YReplicator@@QAEAAV0@ABVDName@@@Z 00498940 f   LIBCMTD:undname.obj
 0001:000979d0       ??_5DName@@QAEAAV0@ABV0@@Z 004989d0 f   LIBCMTD:undname.obj
 0001:00097a30       ?Constructor@_HeapManager@@QAEXP6APAXI@ZP6AXPAX@Z@Z 00498a30 f i LIBCMTD:undname.obj
 0001:00097a70       ?Destructor@_HeapManager@@QAEXXZ 00498a70 f i LIBCMTD:undname.obj
 0001:00097ac0       ?UScore@UnDecorator@@SAPBDW4Tokens@@@Z 00498ac0 f   LIBCMTD:undname.obj
 0001:00097af0       ?append@DName@@AAEXPAVDNameNode@@@Z 00498af0 f   LIBCMTD:undname.obj
 0001:00097b80       ?composeDeclaration@UnDecorator@@CA?AVDName@@ABV2@@Z 00498b80 f i LIBCMTD:undname.obj
 0001:00099800       ?dbGetString@DName@@QBEPADXZ 0049a800 f   LIBCMTD:undname.obj
 0001:00099820       ?doAccessSpecifiers@UnDecorator@@SAHXZ 0049a820 f i LIBCMTD:undname.obj
 0001:00099850       ?doAllocationLanguage@UnDecorator@@SAHXZ 0049a850 f i LIBCMTD:undname.obj
 0001:00099880       ?doAllocationModel@UnDecorator@@SAHXZ 0049a880 f i LIBCMTD:undname.obj
 0001:000998b0       ?doEcsu@UnDecorator@@SAHXZ 0049a8b0 f i LIBCMTD:undname.obj
 0001:000998e0       ?doEllipsis@UnDecorator@@SAHXZ 0049a8e0 f i LIBCMTD:undname.obj
 0001:00099910       ?doFunctionReturns@UnDecorator@@SAHXZ 0049a910 f i LIBCMTD:undname.obj
 0001:00099940       ?doMSKeywords@UnDecorator@@SAHXZ 0049a940 f i LIBCMTD:undname.obj
 0001:00099970       ?doMemberTypes@UnDecorator@@SAHXZ 0049a970 f i LIBCMTD:undname.obj
 0001:000999a0       ?doNameOnly@UnDecorator@@SAHXZ 0049a9a0 f i LIBCMTD:undname.obj
 0001:000999b0       ?doNoIdentCharCheck@UnDecorator@@SAHXZ 0049a9b0 f i LIBCMTD:undname.obj
 0001:000999c0       ?doPchar@DName@@AAEXPBDH@Z 0049a9c0 f   LIBCMTD:undname.obj
 0001:00099b00       ?doPtr64@UnDecorator@@SAHXZ 0049ab00 f i LIBCMTD:undname.obj
 0001:00099b30       ?doRestrictionSpec@UnDecorator@@SAHXZ 0049ab30 f i LIBCMTD:undname.obj
 0001:00099b60       ?doThisTypes@UnDecorator@@SAHXZ 0049ab60 f i LIBCMTD:undname.obj
 0001:00099b90       ?doThrowTypes@UnDecorator@@SAHXZ 0049ab90 f i LIBCMTD:undname.obj
 0001:00099bc0       ?doTypeOnly@UnDecorator@@SAHXZ 0049abc0 f i LIBCMTD:undname.obj
 0001:00099bd0       ?doUnderScore@UnDecorator@@SAHXZ 0049abd0 f i LIBCMTD:undname.obj
 0001:00099c00       ?getArgumentList@UnDecorator@@CA?AVDName@@XZ 0049ac00 f   LIBCMTD:undname.obj
 0001:00099d50       ?getArgumentTypes@UnDecorator@@CA?AVDName@@XZ 0049ad50 f   LIBCMTD:undname.obj
 0001:00099eb0       ?getArrayType@UnDecorator@@CA?AVDName@@ABV2@@Z 0049aeb0 f i LIBCMTD:undname.obj
 0001:0009a0f0       ?getBasedType@UnDecorator@@CA?AVDName@@XZ 0049b0f0 f   LIBCMTD:undname.obj
 0001:0009a1b0       ?getBasicDataType@UnDecorator@@CA?AVDName@@ABV2@@Z 0049b1b0 f   LIBCMTD:undname.obj
 0001:0009a770       ?getCallIndex@UnDecorator@@CA?AVDName@@XZ 0049b770 f i LIBCMTD:undname.obj
 0001:0009a790       ?getCallingConvention@UnDecorator@@CA?AVDName@@XZ 0049b790 f   LIBCMTD:undname.obj
 0001:0009a920       ?getDataIndirectType@UnDecorator@@CA?AVDName@@ABV2@PBD0H@Z 0049b920 f   LIBCMTD:undname.obj
 0001:0009b040       ?getDataIndirectType@UnDecorator@@CA?AVDName@@XZ 0049c040 f i LIBCMTD:undname.obj
 0001:0009b080       ?getDataType@UnDecorator@@CA?AVDName@@PAV2@@Z 0049c080 f   LIBCMTD:undname.obj
 0001:0009b1a0       ?getDecoratedName@UnDecorator@@CA?AVDName@@XZ 0049c1a0 f   LIBCMTD:undname.obj
 0001:0009b4c0       ?getDimension@UnDecorator@@CA?AVDName@@_N@Z 0049c4c0 f   LIBCMTD:undname.obj
 0001:0009b770       ?getDispatchTarget@UnDecorator@@CA?AVDName@@XZ 0049c770 f   LIBCMTD:undname.obj
 0001:0009b810       ?getDisplacement@UnDecorator@@CA?AVDName@@XZ 0049c810 f i LIBCMTD:undname.obj
 0001:0009b830       ?getECSUDataType@UnDecorator@@CA?AVDName@@XZ 0049c830 f   LIBCMTD:undname.obj
 0001:0009ba00       ?getECSUName@UnDecorator@@CA?AVDName@@XZ 0049ca00 f i LIBCMTD:undname.obj
 0001:0009ba20       ?getEnumType@UnDecorator@@CA?AVDName@@XZ 0049ca20 f i LIBCMTD:undname.obj
 0001:0009bb70       ?getExtendedDataIndirectType@UnDecorator@@CA?AVDName@@AAPBDAA_NH@Z 0049cb70 f   LIBCMTD:undname.obj
 0001:0009bdc0       ?getExternalDataType@UnDecorator@@CA?AVDName@@ABV2@@Z 0049cdc0 f i LIBCMTD:undname.obj
 0001:0009be50       ?getFunctionIndirectType@UnDecorator@@CA?AVDName@@ABV2@@Z 0049ce50 f   LIBCMTD:undname.obj
 0001:0009c2c0       ?getGuardNumber@UnDecorator@@CA?AVDName@@XZ 0049d2c0 f i LIBCMTD:undname.obj
 0001:0009c2e0       ?getLastChar@DName@@QBEDXZ 0049d2e0 f i LIBCMTD:undname.obj
 0001:0009c310       ?getLastChar@DNameStatusNode@@UBEDXZ 0049d310 f i LIBCMTD:undname.obj
 0001:0009c340       ?getLastChar@charNode@@UBEDXZ 0049d340 f i LIBCMTD:undname.obj
 0001:0009c360       ?getLastChar@pDNameNode@@UBEDXZ 0049d360 f i LIBCMTD:undname.obj
 0001:0009c390       ?getLastChar@pairNode@@UBEDXZ 0049d390 f i LIBCMTD:undname.obj
 0001:0009c3e0       ?getLastChar@pcharNode@@UBEDXZ 0049d3e0 f i LIBCMTD:undname.obj
 0001:0009c420       ?getLexicalFrame@UnDecorator@@CA?AVDName@@XZ 0049d420 f i LIBCMTD:undname.obj
 0001:0009c460       ?getMemory@_HeapManager@@QAEPAXIH@Z 0049d460 f   LIBCMTD:undname.obj
 0001:0009c570       ?getNumberOfDimensions@UnDecorator@@CAHXZ 0049d570 f   LIBCMTD:undname.obj
 0001:0009c670       ?getOperatorName@UnDecorator@@CA?AVDName@@_NPA_N@Z 0049d670 f i LIBCMTD:undname.obj
 0001:0009d000       ?getPointerType@UnDecorator@@CA?AVDName@@ABV2@0@Z 0049e000 f i LIBCMTD:undname.obj
 0001:0009d030       ?getPointerTypeArray@UnDecorator@@CA?AVDName@@ABV2@0@Z 0049e030 f i LIBCMTD:undname.obj
 0001:0009d060       ?getPrimaryDataType@UnDecorator@@CA?AVDName@@ABV2@@Z 0049e060 f   LIBCMTD:undname.obj
 0001:0009d400       ?getPtrRefDataType@UnDecorator@@CA?AVDName@@ABV2@H@Z 0049e400 f i LIBCMTD:undname.obj
 0001:0009d540       ?getPtrRefType@UnDecorator@@CA?AVDName@@ABV2@0PBD@Z 0049e540 f   LIBCMTD:undname.obj
 0001:0009d6b0       ?getReferenceType@UnDecorator@@CA?AVDName@@ABV2@0PBD@Z 0049e6b0 f i LIBCMTD:undname.obj
 0001:0009d6d0       ?getRestrictionSpec@UnDecorator@@CA?AVDName@@XZ 0049e6d0 f   LIBCMTD:undname.obj
 0001:0009d820       ?getReturnType@UnDecorator@@CA?AVDName@@PAV2@@Z 0049e820 f   LIBCMTD:undname.obj
 0001:0009d870       ?getScope@UnDecorator@@CA?AVDName@@XZ 0049e870 f   LIBCMTD:undname.obj
 0001:0009dd60       ?getScopedName@UnDecorator@@CA?AVDName@@XZ 0049ed60 f   LIBCMTD:undname.obj
 0001:0009de80       ?getSignedDimension@UnDecorator@@CA?AVDName@@XZ 0049ee80 f   LIBCMTD:undname.obj
 0001:0009df00       ?getStorageConvention@UnDecorator@@CA?AVDName@@XZ 0049ef00 f i LIBCMTD:undname.obj
 0001:0009df20       ?getString@DName@@QBEPADPAD0@Z 0049ef20 f i LIBCMTD:undname.obj
 0001:0009df60       ?getString@DName@@QBEPADPADH@Z 0049ef60 f i LIBCMTD:undname.obj
 0001:0009dff0       ?getString@DNameStatusNode@@UBEPADPAD0@Z 0049eff0 f i LIBCMTD:undname.obj
 0001:0009e030       ?getString@charNode@@UBEPADPAD0@Z 0049f030 f i LIBCMTD:undname.obj
 0001:0009e060       ?getString@pDNameNode@@UBEPADPAD0@Z 0049f060 f i LIBCMTD:undname.obj
 0001:0009e0a0       ?getString@pairNode@@UBEPADPAD0@Z 0049f0a0 f i LIBCMTD:undname.obj
 0001:0009e100       ?getString@pcharNode@@UBEPADPAD0@Z 0049f100 f i LIBCMTD:undname.obj
 0001:0009e130       ?getStringEncoding@UnDecorator@@CA?AVDName@@PADH@Z 0049f130 f   LIBCMTD:undname.obj
 0001:0009e240       ?getStringHelper@@YAPADPAD00H@Z 0049f240 f i LIBCMTD:undname.obj
 0001:0009e280       ?getSymbolName@UnDecorator@@CA?AVDName@@XZ 0049f280 f i LIBCMTD:undname.obj
 0001:0009e310       ?getTemplateArgumentList@UnDecorator@@CA?AVDName@@XZ 0049f310 f   LIBCMTD:undname.obj
 0001:0009e630       ?getTemplateConstant@UnDecorator@@CA?AVDName@@XZ 0049f630 f   LIBCMTD:undname.obj
 0001:0009eb20       ?getTemplateName@UnDecorator@@CA?AVDName@@_N@Z 0049fb20 f   LIBCMTD:undname.obj
 0001:0009ecf0       ?getThisType@UnDecorator@@CA?AVDName@@XZ 0049fcf0 f i LIBCMTD:undname.obj
 0001:0009ed30       ?getThrowTypes@UnDecorator@@CA?AVDName@@XZ 0049fd30 f   LIBCMTD:undname.obj
 0001:0009ede0       ?getTypeEncoding@UnDecorator@@CAHXZ 0049fde0 f i LIBCMTD:undname.obj
 0001:0009f820       ?getVCallThunkType@UnDecorator@@CA?AVDName@@XZ 004a0820 f i LIBCMTD:undname.obj
 0001:0009f880       ?getVbTableType@UnDecorator@@CA?AVDName@@ABV2@@Z 004a0880 f i LIBCMTD:undname.obj
 0001:0009f8a0       ?getVdispMapType@UnDecorator@@CA?AVDName@@ABV2@@Z 004a08a0 f i LIBCMTD:undname.obj
 0001:0009f910       ?getVfTableType@UnDecorator@@CA?AVDName@@ABV2@@Z 004a0910 f i LIBCMTD:undname.obj
 0001:0009fad0       ?getZName@UnDecorator@@CA?AVDName@@_N0@Z 004a0ad0 f   LIBCMTD:undname.obj
 0001:0009fd80       ?haveTemplateParameters@UnDecorator@@SAHXZ 004a0d80 f i LIBCMTD:undname.obj
 0001:0009fd90       ?isArray@DName@@QBEHXZ     004a0d90 f i LIBCMTD:undname.obj
 0001:0009fdb0       ?isComArray@DName@@QBEHXZ  004a0db0 f i LIBCMTD:undname.obj
 0001:0009fdd0       ?isEmpty@DName@@QBEHXZ     004a0dd0 f i LIBCMTD:undname.obj
 0001:0009fe00       ?isFull@Replicator@@QBEHXZ 004a0e00 f i LIBCMTD:undname.obj
 0001:0009fe30       ?isNoTE@DName@@QBEHXZ      004a0e30 f i LIBCMTD:undname.obj
 0001:0009fe50       ?isPinPtr@DName@@QBEHXZ    004a0e50 f i LIBCMTD:undname.obj
 0001:0009fe70       ?isPtrRef@DName@@QBEHXZ    004a0e70 f i LIBCMTD:undname.obj
 0001:0009fe90       ?isUDC@DName@@QBEHXZ       004a0e90 f i LIBCMTD:undname.obj
 0001:0009fed0       ?isUDTThunk@DName@@QBEHXZ  004a0ed0 f i LIBCMTD:undname.obj
 0001:0009ff10       ?isVCallThunk@DName@@QBEHXZ 004a0f10 f i LIBCMTD:undname.obj
 0001:0009ff30       ?isValid@DName@@QBEHXZ     004a0f30 f i LIBCMTD:undname.obj
 0001:0009ff70       ?length@DName@@QBEHXZ      004a0f70 f i LIBCMTD:undname.obj
 0001:0009ffa0       ?length@DNameStatusNode@@UBEHXZ 004a0fa0 f i LIBCMTD:undname.obj
 0001:0009ffc0       ?length@charNode@@UBEHXZ   004a0fc0 f i LIBCMTD:undname.obj
 0001:0009ffd0       ?length@pDNameNode@@UBEHXZ 004a0fd0 f i LIBCMTD:undname.obj
 0001:000a0000       ?length@pairNode@@UBEHXZ   004a1000 f i LIBCMTD:undname.obj
 0001:000a0050       ?length@pcharNode@@UBEHXZ  004a1050 f i LIBCMTD:undname.obj
 0001:000a0070       ?make@DNameStatusNode@@SAPAV1@W4DNameStatus@@@Z 004a1070 f i LIBCMTD:undname.obj
 0001:000a0120       ?setIsArray@DName@@QAEXXZ  004a1120 f i LIBCMTD:undname.obj
 0001:000a0140       ?setIsComArray@DName@@QAEXXZ 004a1140 f i LIBCMTD:undname.obj
 0001:000a0160       ?setIsNoTE@DName@@QAEXXZ   004a1160 f i LIBCMTD:undname.obj
 0001:000a0180       ?setIsPinPtr@DName@@QAEXXZ 004a1180 f i LIBCMTD:undname.obj
 0001:000a01a0       ?setIsUDC@DName@@QAEXXZ    004a11a0 f i LIBCMTD:undname.obj
 0001:000a01d0       ?setIsVCallThunk@DName@@QAEXXZ 004a11d0 f i LIBCMTD:undname.obj
 0001:000a01f0       ?setPtrRef@DName@@QAEAAV1@XZ 004a11f0 f i LIBCMTD:undname.obj
 0001:000a0210       ?status@DName@@QBE?AW4DNameStatus@@XZ 004a1210 f i LIBCMTD:undname.obj
 0001:000a0310       ___unDName                 004a1310 f   LIBCMTD:undname.obj
 0001:000a03f0       ___unDNameEx               004a13f0 f   LIBCMTD:undname.obj
 0001:000a04d0       __wfltin2                  004a14d0 f   LIBCMTD:wcfin.obj
 0001:000a05b0       __get_purecall_handler     004a15b0 f   LIBCMTD:purevirt.obj
 0001:000a05d0       __purecall                 004a15d0 f   LIBCMTD:purevirt.obj
 0001:000a0610       __set_purecall_handler     004a1610 f   LIBCMTD:purevirt.obj
 0001:000a0640       ___WSTRINGTOLD_L           004a1640 f   LIBCMTD:wstrgtold.obj
 0001:000a06b0       ___wstrgtold12_l           004a16b0 f   LIBCMTD:wstrgtold.obj
 0001:000a11a8       _IsDebuggerPresent@0       004a21a8 f   kernel32:KERNEL32.dll
 0001:000a11ae       _IsProcessorFeaturePresent@4 004a21ae f   kernel32:KERNEL32.dll
 0001:000a11b4       _EncodePointer@4           004a21b4 f   kernel32:KERNEL32.dll
 0001:000a11ba       _DecodePointer@4           004a21ba f   kernel32:KERNEL32.dll
 0001:000a11c0       _GetLastError@0            004a21c0 f   kernel32:KERNEL32.dll
 0001:000a11c6       _ExitProcess@4             004a21c6 f   kernel32:KERNEL32.dll
 0001:000a11cc       _GetModuleHandleExW@12     004a21cc f   kernel32:KERNEL32.dll
 0001:000a11d2       _GetProcAddress@8          004a21d2 f   kernel32:KERNEL32.dll
 0001:000a11d8       _AreFileApisANSI@0         004a21d8 f   kernel32:KERNEL32.dll
 0001:000a11de       _MultiByteToWideChar@24    004a21de f   kernel32:KERNEL32.dll
 0001:000a11e4       _WideCharToMultiByte@32    004a21e4 f   kernel32:KERNEL32.dll
 0001:000a11ea       _EnterCriticalSection@4    004a21ea f   kernel32:KERNEL32.dll
 0001:000a11f0       _LeaveCriticalSection@4    004a21f0 f   kernel32:KERNEL32.dll
 0001:000a11f6       _ReadFile@20               004a21f6 f   kernel32:KERNEL32.dll
 0001:000a11fc       _GetSystemTimeAsFileTime@4 004a21fc f   kernel32:KERNEL32.dll
 0001:000a1202       _RaiseException@16         004a2202 f   kernel32:KERNEL32.dll
 0001:000a1208       _LoadLibraryExW@12         004a2208 f   kernel32:KERNEL32.dll
 0001:000a120e       _GetCommandLineA@0         004a220e f   kernel32:KERNEL32.dll
 0001:000a1214       _GetTimeZoneInformation@4  004a2214 f   kernel32:KERNEL32.dll
 0001:000a121a       _UnhandledExceptionFilter@4 004a221a f   kernel32:KERNEL32.dll
 0001:000a1220       _SetUnhandledExceptionFilter@4 004a2220 f   kernel32:KERNEL32.dll
 0001:000a1226       _SetLastError@4            004a2226 f   kernel32:KERNEL32.dll
 0001:000a122c       _InitializeCriticalSectionAndSpinCount@8 004a222c f   kernel32:KERNEL32.dll
 0001:000a1232       _CreateEventW@16           004a2232 f   kernel32:KERNEL32.dll
 0001:000a1238       _Sleep@4                   004a2238 f   kernel32:KERNEL32.dll
 0001:000a123e       _GetCurrentProcess@0       004a223e f   kernel32:KERNEL32.dll
 0001:000a1244       _TerminateProcess@8        004a2244 f   kernel32:KERNEL32.dll
 0001:000a124a       _TlsAlloc@0                004a224a f   kernel32:KERNEL32.dll
 0001:000a1250       _TlsGetValue@4             004a2250 f   kernel32:KERNEL32.dll
 0001:000a1256       _TlsSetValue@8             004a2256 f   kernel32:KERNEL32.dll
 0001:000a125c       _TlsFree@4                 004a225c f   kernel32:KERNEL32.dll
 0001:000a1262       _GetStartupInfoW@4         004a2262 f   kernel32:KERNEL32.dll
 0001:000a1268       _GetTickCount@0            004a2268 f   kernel32:KERNEL32.dll
 0001:000a126e       _GetModuleHandleW@4        004a226e f   kernel32:KERNEL32.dll
 0001:000a1274       _CreateSemaphoreW@16       004a2274 f   kernel32:KERNEL32.dll
 0001:000a127a       _IsValidCodePage@4         004a227a f   kernel32:KERNEL32.dll
 0001:000a1280       _GetACP@0                  004a2280 f   kernel32:KERNEL32.dll
 0001:000a1286       _GetOEMCP@0                004a2286 f   kernel32:KERNEL32.dll
 0001:000a128c       _GetCPInfo@8               004a228c f   kernel32:KERNEL32.dll
 0001:000a1292       _GetCurrentThread@0        004a2292 f   kernel32:KERNEL32.dll
 0001:000a1298       _GetCurrentThreadId@0      004a2298 f   kernel32:KERNEL32.dll
 0001:000a129e       _GetModuleFileNameW@12     004a229e f   kernel32:KERNEL32.dll
 0001:000a12a4       _HeapValidate@12           004a22a4 f   kernel32:KERNEL32.dll
 0001:000a12aa       _GetSystemInfo@4           004a22aa f   kernel32:KERNEL32.dll
 0001:000a12b0       _DeleteCriticalSection@4   004a22b0 f   kernel32:KERNEL32.dll
 0001:000a12b6       _FatalAppExitA@8           004a22b6 f   kernel32:KERNEL32.dll
 0001:000a12bc       _GetStdHandle@4            004a22bc f   kernel32:KERNEL32.dll
 0001:000a12c2       _WriteFile@20              004a22c2 f   kernel32:KERNEL32.dll
 0001:000a12c8       _SetConsoleCtrlHandler@8   004a22c8 f   kernel32:KERNEL32.dll
 0001:000a12ce       _FreeLibrary@4             004a22ce f   kernel32:KERNEL32.dll
 0001:000a12d4       _CloseHandle@4             004a22d4 f   kernel32:KERNEL32.dll
 0001:000a12da       _GetFileType@4             004a22da f   kernel32:KERNEL32.dll
 0001:000a12e0       _RtlUnwind@16              004a22e0 f   kernel32:KERNEL32.dll
 0001:000a12e6       _GetConsoleMode@8          004a22e6 f   kernel32:KERNEL32.dll
 0001:000a12ec       _ReadConsoleW@20           004a22ec f   kernel32:KERNEL32.dll
 0001:000a12f2       _SetFilePointerEx@20       004a22f2 f   kernel32:KERNEL32.dll
 0001:000a12f8       _GetConsoleCP@0            004a22f8 f   kernel32:KERNEL32.dll
 0001:000a12fe       _HeapAlloc@12              004a22fe f   kernel32:KERNEL32.dll
 0001:000a1304       _HeapFree@12               004a2304 f   kernel32:KERNEL32.dll
 0001:000a130a       _GetProcessHeap@0          004a230a f   kernel32:KERNEL32.dll
 0001:000a1310       _VirtualQuery@12           004a2310 f   kernel32:KERNEL32.dll
 0001:000a1316       _GetModuleFileNameA@12     004a2316 f   kernel32:KERNEL32.dll
 0001:000a131c       _QueryPerformanceCounter@4 004a231c f   kernel32:KERNEL32.dll
 0001:000a1322       _GetCurrentProcessId@0     004a2322 f   kernel32:KERNEL32.dll
 0001:000a1328       _GetEnvironmentStringsW@0  004a2328 f   kernel32:KERNEL32.dll
 0001:000a132e       _FreeEnvironmentStringsW@4 004a232e f   kernel32:KERNEL32.dll
 0001:000a1334       _GetStringTypeW@16         004a2334 f   kernel32:KERNEL32.dll
 0001:000a133a       _GetDateFormatW@24         004a233a f   kernel32:KERNEL32.dll
 0001:000a1340       _GetTimeFormatW@24         004a2340 f   kernel32:KERNEL32.dll
 0001:000a1346       _CompareStringW@24         004a2346 f   kernel32:KERNEL32.dll
 0001:000a134c       _LCMapStringW@24           004a234c f   kernel32:KERNEL32.dll
 0001:000a1352       _GetLocaleInfoW@16         004a2352 f   kernel32:KERNEL32.dll
 0001:000a1358       _IsValidLocale@8           004a2358 f   kernel32:KERNEL32.dll
 0001:000a135e       _GetUserDefaultLCID@0      004a235e f   kernel32:KERNEL32.dll
 0001:000a1364       _EnumSystemLocalesW@8      004a2364 f   kernel32:KERNEL32.dll
 0001:000a136a       _OutputDebugStringW@4      004a236a f   kernel32:KERNEL32.dll
 0001:000a1370       _WaitForSingleObjectEx@12  004a2370 f   kernel32:KERNEL32.dll
 0001:000a1376       _CreateThread@24           004a2376 f   kernel32:KERNEL32.dll
 0001:000a137c       _OutputDebugStringA@4      004a237c f   kernel32:KERNEL32.dll
 0001:000a1382       _WriteConsoleW@20          004a2382 f   kernel32:KERNEL32.dll
 0001:000a1388       _HeapReAlloc@16            004a2388 f   kernel32:KERNEL32.dll
 0001:000a138e       _HeapSize@12               004a238e f   kernel32:KERNEL32.dll
 0001:000a1394       _HeapQueryInformation@20   004a2394 f   kernel32:KERNEL32.dll
 0001:000a139a       _FlushFileBuffers@4        004a239a f   kernel32:KERNEL32.dll
 0001:000a13a0       _SetStdHandle@8            004a23a0 f   kernel32:KERNEL32.dll
 0001:000a13a6       _CreateFileW@28            004a23a6 f   kernel32:KERNEL32.dll
 0001:000a13ac       _SetEndOfFile@4            004a23ac f   kernel32:KERNEL32.dll
 0001:000a13b2       _SetEnvironmentVariableA@8 004a23b2 f   kernel32:KERNEL32.dll
 0002:00000000       ___xc_a                    004bc000     LIBCMTD:crt0init.obj
 0002:00000104       ___xc_z                    004bc104     LIBCMTD:crt0init.obj
 0002:00000208       ___xi_a                    004bc208     LIBCMTD:crt0init.obj
 0002:00000524       ___xi_z                    004bc524     LIBCMTD:crt0init.obj
 0002:00000628       ___xp_a                    004bc628     LIBCMTD:crt0init.obj
 0002:0000093c       ___xp_z                    004bc93c     LIBCMTD:crt0init.obj
 0002:00000a40       ___xt_a                    004bca40     LIBCMTD:crt0init.obj
 0002:00000b44       ___xt_z                    004bcb44     LIBCMTD:crt0init.obj
 0002:00000c88       ??_C@_0BJ@HHFLMFDG@map?2map_forest01_00e?4dat?$AA@ 004bcc88     ship_server.obj
 0002:00000ca8       ??_C@_0BJ@NBCMMOIC@map?2map_forest01_01e?4dat?$AA@ 004bcca8     ship_server.obj
 0002:00000cc8       ??_C@_0BJ@OAMENEBP@map?2map_forest01_02e?4dat?$AA@ 004bccc8     ship_server.obj
 0002:00000ce8       ??_C@_0BJ@EGLDNPKL@map?2map_forest01_03e?4dat?$AA@ 004bcce8     ship_server.obj
 0002:00000d08       ??_C@_0BJ@IDBEOBCF@map?2map_forest01_04e?4dat?$AA@ 004bcd08     ship_server.obj
 0002:00000d28       ??_C@_0BN@OEMJJCHK@map?2map_forest01_00_offe?4dat?$AA@ 004bcd28     ship_server.obj
 0002:00000d4c       ??_C@_0BN@LMKFCLLL@map?2map_forest01_02_offe?4dat?$AA@ 004bcd4c     ship_server.obj
 0002:00000d70       ??_C@_0BN@FEBAOBPI@map?2map_forest01_04_offe?4dat?$AA@ 004bcd70     ship_server.obj
 0002:00000d98       _lobbyString               004bcd98     ship_server.obj
 0002:00000da8       _Packet19                  004bcda8     ship_server.obj
 0002:00000db8       _Packet1A                  004bcdb8     ship_server.obj
 0002:00000dc4       _Packet1D                  004bcdc4     ship_server.obj
 0002:00000dd0       _Packet83                  004bcdd0     ship_server.obj
 0002:00000e98       _PacketE6                  004bce98     ship_server.obj
 0002:00000edc       _PacketEE                  004bcedc     ship_server.obj
 0002:00000eec       _PacketB0                  004bceec     ship_server.obj
 0002:00000f00       _serverName                004bcf00     ship_server.obj
 0002:00000f14       _shipSelectString          004bcf14     ship_server.obj
 0002:00000f2c       _blockString               004bcf2c     ship_server.obj
 0002:00000f38       _RC4publicKey              004bcf38     ship_server.obj
 0002:00001fa0       _Message03                 004bdfa0     ship_server.obj
 0002:00002354       ??_C@_0BJ@NGMAOGFA@map?2map_forest01_00o?4dat?$AA@ 004be354     ship_server.obj
 0002:00002374       ??_C@_0BJ@EBFPPHHJ@map?2map_forest01_02o?4dat?$AA@ 004be374     ship_server.obj
 0002:00002394       ??_C@_0BJ@CCIPMCED@map?2map_forest01_04o?4dat?$AA@ 004be394     ship_server.obj
 0002:000023b4       ??_C@_0BJ@JMGMHODF@map?2map_forest02_00e?4dat?$AA@ 004be3b4     ship_server.obj
 0002:000023d4       ??_C@_0BJ@DKBLHFIB@map?2map_forest02_01e?4dat?$AA@ 004be3d4     ship_server.obj
 0002:000023f4       ??_C@_0BJ@LPDGPBM@map?2map_forest02_02e?4dat?$AA@ 004be3f4     ship_server.obj
 0002:00002414       ??_C@_0BJ@KNIEGEKI@map?2map_forest02_03e?4dat?$AA@ 004be414     ship_server.obj
 0002:00002434       ??_C@_0BJ@GICDFKCG@map?2map_forest02_04e?4dat?$AA@ 004be434     ship_server.obj
 0002:00002454       ??_C@_0BN@JIKILHKB@map?2map_forest02_00_offe?4dat?$AA@ 004be454     ship_server.obj
 0002:00002478       ??_C@_0BN@BEKNBKA@map?2map_forest02_03_offe?4dat?$AA@ 004be478     ship_server.obj
 0002:0000249c       ??_C@_0BN@CIHBMECD@map?2map_forest02_04_offe?4dat?$AA@ 004be49c     ship_server.obj
 0002:000024c0       ??_C@_0BJ@DNPHFNFD@map?2map_forest02_00o?4dat?$AA@ 004be4c0     ship_server.obj
 0002:000024e0       ??_C@_0BJ@MBPEHMO@map?2map_forest02_03o?4dat?$AA@ 004be4e0     ship_server.obj
 0002:00002500       ??_C@_0BJ@MJLIHJEA@map?2map_forest02_04o?4dat?$AA@ 004be500     ship_server.obj
 0002:00002520       ??_C@_0BK@HLHHIHAF@map?2map_cave01_00_00e?4dat?$AA@ 004be520     ship_server.obj
 0002:00002540       ??_C@_0BK@NNAAIMLB@map?2map_cave01_00_01e?4dat?$AA@ 004be540     ship_server.obj
 0002:00002560       ??_C@_0BK@JELFOMDL@map?2map_cave01_01_00e?4dat?$AA@ 004be560     ship_server.obj
 0002:00002580       ??_C@_0BK@DCMCOHIP@map?2map_cave01_01_01e?4dat?$AA@ 004be580     ship_server.obj
 0002:000025a0       ??_C@_0BK@HPICFHDI@map?2map_cave01_02_00e?4dat?$AA@ 004be5a0     ship_server.obj
 0002:000025c0       ??_C@_0BK@NJPFFMIM@map?2map_cave01_02_01e?4dat?$AA@ 004be5c0     ship_server.obj
 0002:000025e0       ??_C@_0BO@EFMOLLBO@map?2map_cave01_00_00_offe?4dat?$AA@ 004be5e0     ship_server.obj
 0002:00002604       ??_C@_0BO@NIMBFKGI@map?2map_cave01_01_00_offe?4dat?$AA@ 004be604     ship_server.obj
 0002:00002628       ??_C@_0BO@KEKAHPLD@map?2map_cave01_02_00_offe?4dat?$AA@ 004be628     ship_server.obj
 0002:0000264c       ??_C@_0BK@NKOMKEGD@map?2map_cave01_00_00o?4dat?$AA@ 004be64c     ship_server.obj
 0002:0000266c       ??_C@_0BK@DFCOMPFN@map?2map_cave01_01_00o?4dat?$AA@ 004be66c     ship_server.obj
 0002:0000268c       ??_C@_0BK@NOBJHEFO@map?2map_cave01_02_00o?4dat?$AA@ 004be68c     ship_server.obj
 0002:000026ac       ??_C@_0BK@MGLNOLML@map?2map_cave02_00_00e?4dat?$AA@ 004be6ac     ship_server.obj
 0002:000026cc       ??_C@_0BK@GAMKOAHP@map?2map_cave02_00_01e?4dat?$AA@ 004be6cc     ship_server.obj
 0002:000026ec       ??_C@_0BK@CJHPIAPF@map?2map_cave02_01_00e?4dat?$AA@ 004be6ec     ship_server.obj
 0002:0000270c       ??_C@_0BK@IPAIILEB@map?2map_cave02_01_01e?4dat?$AA@ 004be70c     ship_server.obj
 0002:0000272c       ??_C@_0BK@MCEIDLPG@map?2map_cave02_02_00e?4dat?$AA@ 004be72c     ship_server.obj
 0002:0000274c       ??_C@_0BK@GEDPDAEC@map?2map_cave02_02_01e?4dat?$AA@ 004be74c     ship_server.obj
 0002:0000276c       ??_C@_0BO@BGFEOAJK@map?2map_cave02_00_00_offe?4dat?$AA@ 004be76c     ship_server.obj
 0002:00002790       ??_C@_0BO@ILFLABOM@map?2map_cave02_01_00_offe?4dat?$AA@ 004be790     ship_server.obj
 0002:000027b4       ??_C@_0BO@PHDKCEDH@map?2map_cave02_02_00_offe?4dat?$AA@ 004be7b4     ship_server.obj
 0002:000027d8       ??_C@_0BK@GHCGMIKN@map?2map_cave02_00_00o?4dat?$AA@ 004be7d8     ship_server.obj
 0002:000027f8       ??_C@_0BK@IIOEKDJD@map?2map_cave02_01_00o?4dat?$AA@ 004be7f8     ship_server.obj
 0002:00002818       ??_C@_0BK@GDNDBIJA@map?2map_cave02_02_00o?4dat?$AA@ 004be818     ship_server.obj
 0002:00002838       ??_C@_0BK@BLCLDCEO@map?2map_cave03_00_00e?4dat?$AA@ 004be838     ship_server.obj
 0002:00002858       ??_C@_0BK@LNFMDJPK@map?2map_cave03_00_01e?4dat?$AA@ 004be858     ship_server.obj
 0002:00002878       ??_C@_0BK@PEOJFJHA@map?2map_cave03_01_00e?4dat?$AA@ 004be878     ship_server.obj
 0002:00002898       ??_C@_0BK@FCJOFCME@map?2map_cave03_01_01e?4dat?$AA@ 004be898     ship_server.obj
 0002:000028b8       ??_C@_0BK@BPNOOCHD@map?2map_cave03_02_00e?4dat?$AA@ 004be8b8     ship_server.obj
 0002:000028d8       ??_C@_0BK@LJKJOJMH@map?2map_cave03_02_01e?4dat?$AA@ 004be8d8     ship_server.obj
 0002:000028f8       ??_C@_0BO@JBPCCLNJ@map?2map_cave03_00_00_offe?4dat?$AA@ 004be8f8     ship_server.obj
 0002:0000291c       ??_C@_0BO@MPNMKKP@map?2map_cave03_01_00_offe?4dat?$AA@ 004be91c     ship_server.obj
 0002:00002940       ??_C@_0BO@HAJMOPHE@map?2map_cave03_02_00_offe?4dat?$AA@ 004be940     ship_server.obj
 0002:00002964       ??_C@_0BK@LKLABBCI@map?2map_cave03_00_00o?4dat?$AA@ 004be964     ship_server.obj
 0002:00002984       ??_C@_0BK@FFHCHKBG@map?2map_cave03_01_00o?4dat?$AA@ 004be984     ship_server.obj
 0002:000029a4       ??_C@_0BK@LOEFMBBF@map?2map_cave03_02_00o?4dat?$AA@ 004be9a4     ship_server.obj
 0002:000029c4       ??_C@_0BN@PAGMMDBM@map?2map_machine01_00_00e?4dat?$AA@ 004be9c4     ship_server.obj
 0002:000029e8       ??_C@_0BN@FGBLMIKI@map?2map_machine01_00_01e?4dat?$AA@ 004be9e8     ship_server.obj
 0002:00002a0c       ??_C@_0BN@BPKOKICC@map?2map_machine01_01_00e?4dat?$AA@ 004bea0c     ship_server.obj
 0002:00002a30       ??_C@_0BN@LJNJKDJG@map?2map_machine01_01_01e?4dat?$AA@ 004bea30     ship_server.obj
 0002:00002a54       ??_C@_0BN@PEJJBDCB@map?2map_machine01_02_00e?4dat?$AA@ 004bea54     ship_server.obj
 0002:00002a78       ??_C@_0BN@FCOOBIJF@map?2map_machine01_02_01e?4dat?$AA@ 004bea78     ship_server.obj
 0002:00002a9c       ??_C@_0BN@ENKGKPNC@map?2map_machine02_00_00e?4dat?$AA@ 004bea9c     ship_server.obj
 0002:00002ac0       ??_C@_0BN@OLNBKEGG@map?2map_machine02_00_01e?4dat?$AA@ 004beac0     ship_server.obj
 0002:00002ae4       ??_C@_0BN@KCGEMEOM@map?2map_machine02_01_00e?4dat?$AA@ 004beae4     ship_server.obj
 0002:00002b08       ??_C@_0BN@EBDMPFI@map?2map_machine02_01_01e?4dat?$AA@ 004beb08     ship_server.obj
 0002:00002b2c       ??_C@_0BN@EJFDHPOP@map?2map_machine02_02_00e?4dat?$AA@ 004beb2c     ship_server.obj
 0002:00002b50       ??_C@_0BN@OPCEHEFL@map?2map_machine02_02_01e?4dat?$AA@ 004beb50     ship_server.obj
 0002:00002b74       ??_C@_0BN@DMCLCEOH@map?2map_ancient01_00_00e?4dat?$AA@ 004beb74     ship_server.obj
 0002:00002b98       ??_C@_0BN@JKFMCPFD@map?2map_ancient01_00_01e?4dat?$AA@ 004beb98     ship_server.obj
 0002:00002bbc       ??_C@_0BN@NDOJEPNJ@map?2map_ancient01_01_00e?4dat?$AA@ 004bebbc     ship_server.obj
 0002:00002be0       ??_C@_0BN@HFJOEEGN@map?2map_ancient01_01_01e?4dat?$AA@ 004bebe0     ship_server.obj
 0002:00002c04       ??_C@_0BN@DINOPENK@map?2map_ancient01_02_00e?4dat?$AA@ 004bec04     ship_server.obj
 0002:00002c28       ??_C@_0BN@JOKJPPGO@map?2map_ancient01_02_01e?4dat?$AA@ 004bec28     ship_server.obj
 0002:00002c4c       ??_C@_0BN@IBOBEICJ@map?2map_ancient02_00_00e?4dat?$AA@ 004bec4c     ship_server.obj
 0002:00002c70       ??_C@_0BN@CHJGEDJN@map?2map_ancient02_00_01e?4dat?$AA@ 004bec70     ship_server.obj
 0002:00002c94       ??_C@_0BN@GOCDCDBH@map?2map_ancient02_01_00e?4dat?$AA@ 004bec94     ship_server.obj
 0002:00002cb8       ??_C@_0BN@MIFECIKD@map?2map_ancient02_01_01e?4dat?$AA@ 004becb8     ship_server.obj
 0002:00002cdc       ??_C@_0BN@IFBEJIBE@map?2map_ancient02_02_00e?4dat?$AA@ 004becdc     ship_server.obj
 0002:00002d00       ??_C@_0BN@CDGDJDKA@map?2map_ancient02_02_01e?4dat?$AA@ 004bed00     ship_server.obj
 0002:00002d24       ??_C@_0BN@FMHHJBKM@map?2map_ancient03_00_00e?4dat?$AA@ 004bed24     ship_server.obj
 0002:00002d48       ??_C@_0BN@PKAAJKBI@map?2map_ancient03_00_01e?4dat?$AA@ 004bed48     ship_server.obj
 0002:00002d6c       ??_C@_0BN@LDLFPKJC@map?2map_ancient03_01_00e?4dat?$AA@ 004bed6c     ship_server.obj
 0002:00002d90       ??_C@_0BN@BFMCPBCG@map?2map_ancient03_01_01e?4dat?$AA@ 004bed90     ship_server.obj
 0002:00002db4       ??_C@_0BN@FIICEBJB@map?2map_ancient03_02_00e?4dat?$AA@ 004bedb4     ship_server.obj
 0002:00002dd8       ??_C@_0BN@POPFEKCF@map?2map_ancient03_02_01e?4dat?$AA@ 004bedd8     ship_server.obj
 0002:00002dfc       ??_C@_0BL@DBIPKHDA@map?2map_ruins01_00_00e?4dat?$AA@ 004bedfc     ship_server.obj
 0002:00002e1c       ??_C@_0BL@NOENMMAO@map?2map_ruins01_01_00e?4dat?$AA@ 004bee1c     ship_server.obj
 0002:00002e3c       ??_C@_0BP@PABKDGFG@map?2map_ruins01_00_00_offe?4dat?$AA@ 004bee3c     ship_server.obj
 0002:00002e64       ??_C@_0BP@GNBFNHCA@map?2map_ruins01_01_00_offe?4dat?$AA@ 004bee64     ship_server.obj
 0002:00002e8c       ??_C@_0BL@IMEFMLPO@map?2map_ruins02_00_00e?4dat?$AA@ 004bee8c     ship_server.obj
 0002:00002eac       ??_C@_0BL@GDIHKAMA@map?2map_ruins02_01_00e?4dat?$AA@ 004beeac     ship_server.obj
 0002:00002ecc       ??_C@_0BP@KDIAGNNC@map?2map_ruins02_00_00_offe?4dat?$AA@ 004beecc     ship_server.obj
 0002:00002ef4       ??_C@_0BP@DOIPIMKE@map?2map_ruins02_01_00_offe?4dat?$AA@ 004beef4     ship_server.obj
 0002:00002f1c       ??_C@_0BL@ILFFAAPF@map?2map_space01_00_00e?4dat?$AA@ 004bef1c     ship_server.obj
 0002:00002f3c       ??_C@_0BL@GEJHGLML@map?2map_space01_01_00e?4dat?$AA@ 004bef3c     ship_server.obj
 0002:00002f5c       ??_C@_0BP@DNNNBEIA@map?2map_space01_00_00_offe?4dat?$AA@ 004bef5c     ship_server.obj
 0002:00002f84       ??_C@_0BP@KANCPFPG@map?2map_space01_01_00_offe?4dat?$AA@ 004bef84     ship_server.obj
 0002:00002fac       ??_C@_0BL@DGJPGMDL@map?2map_space02_00_00e?4dat?$AA@ 004befac     ship_server.obj
 0002:00002fcc       ??_C@_0BL@NJFNAHAF@map?2map_space02_01_00e?4dat?$AA@ 004befcc     ship_server.obj
 0002:00002fec       ??_C@_0BP@GOEHEPAE@map?2map_space02_00_00_offe?4dat?$AA@ 004befec     ship_server.obj
 0002:00003014       ??_C@_0BP@PDEIKOHC@map?2map_space02_01_00_offe?4dat?$AA@ 004bf014     ship_server.obj
 0002:0000303c       ??_C@_0BJ@BEOEAJKP@map?2map_jungle01_00e?4dat?$AA@ 004bf03c     ship_server.obj
 0002:0000305c       ??_C@_0BJ@LCJDACBL@map?2map_jungle01_01e?4dat?$AA@ 004bf05c     ship_server.obj
 0002:0000307c       ??_C@_0BJ@IDHLBIIG@map?2map_jungle01_02e?4dat?$AA@ 004bf07c     ship_server.obj
 0002:0000309c       ??_C@_0BN@LNCNBOF@map?2map_jungle01_00_offe?4dat?$AA@ 004bf09c     ship_server.obj
 0002:000030c0       ??_C@_0BN@MKFMAOCF@map?2map_jungle01_01_offe?4dat?$AA@ 004bf0c0     ship_server.obj
 0002:000030e4       ??_C@_0BN@FDLOGICE@map?2map_jungle01_02_offe?4dat?$AA@ 004bf0e4     ship_server.obj
 0002:00003108       ??_C@_0BJ@PPNDLCKM@map?2map_jungle02_00e?4dat?$AA@ 004bf108     ship_server.obj
 0002:00003128       ??_C@_0BJ@FJKELJBI@map?2map_jungle02_01e?4dat?$AA@ 004bf128     ship_server.obj
 0002:00003148       ??_C@_0BJ@GIEMKDIF@map?2map_jungle02_02e?4dat?$AA@ 004bf148     ship_server.obj
 0002:00003168       ??_C@_0BN@HHLDPEDO@map?2map_jungle02_00_offe?4dat?$AA@ 004bf168     ship_server.obj
 0002:0000318c       ??_C@_0BN@LGDNCLPO@map?2map_jungle02_01_offe?4dat?$AA@ 004bf18c     ship_server.obj
 0002:000031b0       ??_C@_0BN@CPNPENPP@map?2map_jungle02_02_offe?4dat?$AA@ 004bf1b0     ship_server.obj
 0002:000031d4       ??_C@_0BJ@BABBNJJC@map?2map_jungle03_00e?4dat?$AA@ 004bf1d4     ship_server.obj
 0002:000031f4       ??_C@_0BJ@LGGGNCCG@map?2map_jungle03_01e?4dat?$AA@ 004bf1f4     ship_server.obj
 0002:00003214       ??_C@_0BJ@IHIOMILL@map?2map_jungle03_02e?4dat?$AA@ 004bf214     ship_server.obj
 0002:00003234       ??_C@_0BN@OKLMBFEI@map?2map_jungle03_00_offe?4dat?$AA@ 004bf234     ship_server.obj
 0002:00003258       ??_C@_0BN@CLDCMKII@map?2map_jungle03_01_offe?4dat?$AA@ 004bf258     ship_server.obj
 0002:0000327c       ??_C@_0BN@LCNAKMIJ@map?2map_jungle03_02_offe?4dat?$AA@ 004bf27c     ship_server.obj
 0002:000032a0       ??_C@_0BM@ODCKHIEO@map?2map_jungle04_00_00e?4dat?$AA@ 004bf2a0     ship_server.obj
 0002:000032c4       ??_C@_0BM@EFFNHDPK@map?2map_jungle04_00_01e?4dat?$AA@ 004bf2c4     ship_server.obj
 0002:000032e8       ??_C@_0BM@MOIBDHA@map?2map_jungle04_01_00e?4dat?$AA@ 004bf2e8     ship_server.obj
 0002:0000330c       ??_C@_0BM@KKJPBIME@map?2map_jungle04_01_01e?4dat?$AA@ 004bf30c     ship_server.obj
 0002:00003330       ??_C@_0CA@EGICGIKA@map?2map_jungle04_00_00_offe?4dat?$AA@ 004bf330     ship_server.obj
 0002:00003358       ??_C@_0CA@IHAMLHGA@map?2map_jungle04_00_01_offe?4dat?$AA@ 004bf358     ship_server.obj
 0002:00003380       ??_C@_0CA@NLINIJNG@map?2map_jungle04_01_00_offe?4dat?$AA@ 004bf380     ship_server.obj
 0002:000033a8       ??_C@_0CA@BKADFGBG@map?2map_jungle04_01_01_offe?4dat?$AA@ 004bf3a8     ship_server.obj
 0002:000033d0       ??_C@_0BJ@BNAPKJNF@map?2map_jungle05_00e?4dat?$AA@ 004bf3d0     ship_server.obj
 0002:000033f0       ??_C@_0BJ@LLHIKCGB@map?2map_jungle05_01e?4dat?$AA@ 004bf3f0     ship_server.obj
 0002:00003410       ??_C@_0BJ@IKJALIPM@map?2map_jungle05_02e?4dat?$AA@ 004bf410     ship_server.obj
 0002:00003430       ??_C@_0BN@BCHOFOPO@map?2map_jungle05_00_offe?4dat?$AA@ 004bf430     ship_server.obj
 0002:00003454       ??_C@_0BN@NDPAIBDO@map?2map_jungle05_01_offe?4dat?$AA@ 004bf454     ship_server.obj
 0002:00003478       ??_C@_0BN@EKBCOHDP@map?2map_jungle05_02_offe?4dat?$AA@ 004bf478     ship_server.obj
 0002:0000349c       ??_C@_0BM@JDGMCLFE@map?2map_seabed01_00_00e?4dat?$AA@ 004bf49c     ship_server.obj
 0002:000034c0       ??_C@_0BM@DFBLCAOA@map?2map_seabed01_00_01e?4dat?$AA@ 004bf4c0     ship_server.obj
 0002:000034e4       ??_C@_0BM@HMKOEAGK@map?2map_seabed01_01_00e?4dat?$AA@ 004bf4e4     ship_server.obj
 0002:00003508       ??_C@_0BM@NKNJELNO@map?2map_seabed01_01_01e?4dat?$AA@ 004bf508     ship_server.obj
 0002:0000352c       ??_C@_0CA@OBPKNGAN@map?2map_seabed01_00_00_offe?4dat?$AA@ 004bf52c     ship_server.obj
 0002:00003554       ??_C@_0CA@HMPFDHHL@map?2map_seabed01_01_00_offe?4dat?$AA@ 004bf554     ship_server.obj
 0002:0000357c       ??_C@_0BM@COKGEHJK@map?2map_seabed02_00_00e?4dat?$AA@ 004bf57c     ship_server.obj
 0002:000035a0       ??_C@_0BM@IINBEMCO@map?2map_seabed02_00_01e?4dat?$AA@ 004bf5a0     ship_server.obj
 0002:000035c4       ??_C@_0BM@MBGECMKE@map?2map_seabed02_01_00e?4dat?$AA@ 004bf5c4     ship_server.obj
 0002:000035e8       ??_C@_0BM@GHBDCHBA@map?2map_seabed02_01_01e?4dat?$AA@ 004bf5e8     ship_server.obj
 0002:0000360c       ??_C@_0CA@LCGAINIJ@map?2map_seabed02_00_00_offe?4dat?$AA@ 004bf60c     ship_server.obj
 0002:00003634       ??_C@_0CA@CPGPGMPP@map?2map_seabed02_01_00_offe?4dat?$AA@ 004bf634     ship_server.obj
 0002:0000365c       ??_C@_0BL@DNECFJDI@map?2map_wilds01_00_00e?4dat?$AA@ 004bf65c     ship_server.obj
 0002:0000367c       ??_C@_0BL@JLDFFCIM@map?2map_wilds01_00_01e?4dat?$AA@ 004bf67c     ship_server.obj
 0002:0000369c       ??_C@_0BL@KKNNEIBB@map?2map_wilds01_00_02e?4dat?$AA@ 004bf69c     ship_server.obj
 0002:000036bc       ??_C@_0BL@NCIADCAG@map?2map_wilds01_01_00e?4dat?$AA@ 004bf6bc     ship_server.obj
 0002:000036dc       ??_C@_0BL@HEPHDJLC@map?2map_wilds01_01_01e?4dat?$AA@ 004bf6dc     ship_server.obj
 0002:000036fc       ??_C@_0BL@EFBPCDCP@map?2map_wilds01_01_02e?4dat?$AA@ 004bf6fc     ship_server.obj
 0002:0000371c       ??_C@_0BL@DJLHIJAF@map?2map_wilds01_02_00e?4dat?$AA@ 004bf71c     ship_server.obj
 0002:0000373c       ??_C@_0BL@JPMAICLB@map?2map_wilds01_02_01e?4dat?$AA@ 004bf73c     ship_server.obj
 0002:0000375c       ??_C@_0BL@KOCIJICM@map?2map_wilds01_02_02e?4dat?$AA@ 004bf75c     ship_server.obj
 0002:0000377c       ??_C@_0BL@NGHFOCDL@map?2map_wilds01_03_00e?4dat?$AA@ 004bf77c     ship_server.obj
 0002:0000379c       ??_C@_0BL@HAACOJIP@map?2map_wilds01_03_01e?4dat?$AA@ 004bf79c     ship_server.obj
 0002:000037bc       ??_C@_0BL@EBOKPDBC@map?2map_wilds01_03_02e?4dat?$AA@ 004bf7bc     ship_server.obj
 0002:000037dc       ??_C@_0BM@PMCLFFPI@map?2map_crater01_00_00e?4dat?$AA@ 004bf7dc     ship_server.obj
 0002:00003800       ??_C@_0BM@FKFMFOEM@map?2map_crater01_00_01e?4dat?$AA@ 004bf800     ship_server.obj
 0002:00003824       ??_C@_0BM@GLLEEENB@map?2map_crater01_00_02e?4dat?$AA@ 004bf824     ship_server.obj
 0002:00003848       ??_C@_0BM@MGLHDEJG@map?2map_desert01_00_00e?4dat?$AA@ 004bf848     ship_server.obj
 0002:0000386c       ??_C@_0BM@CJHFFPKI@map?2map_desert01_01_00e?4dat?$AA@ 004bf86c     ship_server.obj
 0002:00003890       ??_C@_0BM@MCECOEKL@map?2map_desert01_02_00e?4dat?$AA@ 004bf890     ship_server.obj
 0002:000038b4       ??_C@_0BM@HLHNFIFI@map?2map_desert02_00_00e?4dat?$AA@ 004bf8b4     ship_server.obj
 0002:000038d8       ??_C@_0BM@NNAKFDOM@map?2map_desert02_00_01e?4dat?$AA@ 004bf8d8     ship_server.obj
 0002:000038fc       ??_C@_0BM@OMOCEJHB@map?2map_desert02_00_02e?4dat?$AA@ 004bf8fc     ship_server.obj
 0002:00003920       ??_C@_0BM@KGOLIBNN@map?2map_desert03_00_00e?4dat?$AA@ 004bf920     ship_server.obj
 0002:00003944       ??_C@_0BM@EJCJOKOD@map?2map_desert03_01_00e?4dat?$AA@ 004bf944     ship_server.obj
 0002:00003968       ??_C@_0BM@KCBOFBOA@map?2map_desert03_02_00e?4dat?$AA@ 004bf968     ship_server.obj
 0002:0000398c       ??_C@_0CF@ICKICJFJ@Loading?5Local?5GMs?5and?5permission@ 004bf98c     ship_server.obj
 0002:000039b8       ??_C@_01KDCPPGHE@r?$AA@    004bf9b8     ship_server.obj
 0002:000039bc       ??_C@_0N@BACAKG@localgms?4ini?$AA@ 004bf9bc     ship_server.obj
 0002:000039cc       ??_C@_0CC@EFAIFGFP@Local?5GM?5File?5Loaded?0?5Parsing?4?4?4@ 004bf9cc     ship_server.obj
 0002:000039f4       ??_C@_0L@DAIJOAED@?$FLlocalgms?$FN?$AA@ 004bf9f4     ship_server.obj
 0002:00003a04       ??_C@_01IHBHIGKO@?0?$AA@   004bfa04     ship_server.obj
 0002:00003a08       ??_C@_0CE@CNPMFMGH@Added?5GM?5?$CD?5?$CFu?5with?5rights?5level?5@ 004bfa08     ship_server.obj
 0002:00003a34       ??_C@_0L@KAOHDDOH@?$FLgmrights?$FN?$AA@ 004bfa34     ship_server.obj
 0002:00003a44       ??_C@_0BK@CLIFLPBI@?5Index?5?$CFi?3?5Permission?5?$CFi?6?$AA@ 004bfa44     ship_server.obj
 0002:00003a64       ??_C@_0BN@DNAKNHOJ@Failed?5to?5load?5localgms?4ini?$CB?$AA@ 004bfa64     ship_server.obj
 0002:00003a88       ??_C@_0BG@PGHJPPBB@prs_compress?5failure?6?$AA@ 004bfa88     ship_server.obj
 0002:00003aa4       ??_C@_01EEMJAFIK@?6?$AA@   004bfaa4     ship_server.obj
 0002:00003aa8       ??_C@_07NBLBCICF@?$CI?$CF04X?$CJ?5?$AA@ 004bfaa8     ship_server.obj
 0002:00003ab4       ??_C@_05BFHEBJNP@?$CF02X?5?$AA@ 004bfab4     ship_server.obj
 0002:00003abc       ??_C@_03NDEAONJP@?5?5?5?$AA@ 004bfabc     ship_server.obj
 0002:00003ac0       ??_C@_04LOAOMKLI@?$CFs?6?6?$AA@ 004bfac0     ship_server.obj
 0002:00003ac8       ??_C@_0ED@INEAHMCP@ship?4ini?5is?5corrupted?4?5?$CIFailed?5t@ 004bfac8     ship_server.obj
 0002:00003b18       ??_C@_0CB@OMHGOABC@Failed?5to?5determine?5IP?5address?4?6@ 004bfb18     ship_server.obj
 0002:00003b40       ??_C@_0BJ@CHLDGIBP@Press?5?$FLENTER?$FN?5to?5quit?4?4?4?$AA@ 004bfb40     ship_server.obj
 0002:00003b60       ??_C@_0CG@FAKCPJB@Bad?5mask?5encountered?5in?5masks?4tx@ 004bfb60     ship_server.obj
 0002:00003b90       ??_C@_09NOLBFPBJ@masks?4txt?$AA@ 004bfb90     ship_server.obj
 0002:00003b9c       ??_C@_08LPDBCOLG@lang?4ini?$AA@ 004bfb9c     ship_server.obj
 0002:00003ba8       ??_C@_0DL@BCGLBIB@Language?5file?5does?5not?5exist?4?4?4?6@ 004bfba8     ship_server.obj
 0002:00003bf0       ??_C@_07NEKHPBCG@English?$AA@ 004bfbf0     ship_server.obj
 0002:00003bfc       ??_C@_0BF@KGNGOILC@Language?5?$CFu?5?$CI?$CFs?3?$CFs?$CJ?6?$AA@ 004bfbfc     ship_server.obj
 0002:00003c18       ??_C@_08IHDLEJA@ship?4ini?$AA@ 004bfc18     ship_server.obj
 0002:00003c24       ??_C@_0DI@FPMHBCCG@The?5configuration?5file?5ship?4ini?5@ 004bfc24     ship_server.obj
 0002:00003c68       ??_C@_0DC@HIFIJCMO@You?5cannot?5host?5more?5than?510?5blo@ 004bfc68     ship_server.obj
 0002:00003ca4       ??_C@_0DC@LDEIPINB@You?5have?5to?5host?5at?5least?5ONE?5bl@ 004bfca4     ship_server.obj
 0002:00003ce0       ??_C@_0GM@FDCDIDFH@?6You?8re?5attempting?5to?5server?5mor@ 004bfce0     ship_server.obj
 0002:00003d68       ??_C@_0GO@CCDKBKH@This?5copy?5of?5the?5ship?5serving?5so@ 004bfd68     ship_server.obj
 0002:00003dec       ??_C@_0BC@EJHNOPLE@Resolving?5?$CFs?5?4?4?4?6?$AA@ 004bfdec     ship_server.obj
 0002:00003e04       ??_C@_0BN@DLEOKBLF@Could?5not?5resolve?5host?5name?4?$AA@ 004bfe04     ship_server.obj
 0002:00003e28       ??_C@_0EE@GPBPFNJE@?6WARNING?3?5You?5have?5your?5experien@ 004bfe28     ship_server.obj
 0002:00003e80       ??_C@_0EF@MLINAMAG@As?5of?5ship_server?4exe?5version?50?4@ 004bfe80     ship_server.obj
 0002:00003ed4       ??_C@_0DP@JDHAGCOK@to?5represent?5100?$CF?$CF?5increments?4?5?5@ 004bfed4     ship_server.obj
 0002:00003f20       ??_C@_0DN@GIPBMFLN@press?5?$FLENTER?$FN?5to?5continue?0?5other@ 004bff20     ship_server.obj
 0002:00003f6c       ??_C@_01JLIPDDHJ@?3?$AA@   004bff6c     ship_server.obj
 0002:00003f70       ??_C@_02PHMGELLB@?6?6?$AA@ 004bff70     ship_server.obj
 0002:00003f74       ??_C@_0CB@KONHLFGI@ship?4ini?5seems?5to?5be?5corrupted?4?6@ 004bff74     ship_server.obj
 0002:00003f9c       ??_C@_0BI@FPIGFMFC@Connection?5successful?$CB?6?$AA@ 004bff9c     ship_server.obj
 0002:00003fb8       ??_C@_0CM@BHFKHNBN@Connection?5failed?4?5?5Retry?5in?5?$CFu?5@ 004bffb8     ship_server.obj
 0002:00003fec       ??_C@_0BC@JEPKPHPJ@Player?5Count?3?5?$CFu?6?$AA@ 004bffec     ship_server.obj
 0002:00004004       ??_C@_02JDPG@rb?$AA@       004c0004     ship_server.obj
 0002:00004008       ??_C@_0CE@HNDPFNAB@Could?5not?5load?5object?5data?5from?5@ 004c0008     ship_server.obj
 0002:00004034       ??_C@_0CB@BBNEKHEI@Could?5not?5load?5map?5data?5from?5?$CFs?6@ 004c0034     ship_server.obj
 0002:0000405c       ??_C@_0BH@POJDHLCB@map?2map_city00_00e?4dat?$AA@ 004c005c     ship_server.obj
 0002:00004078       ??_C@_0BH@FPAIFIEH@map?2map_city00_00o?4dat?$AA@ 004c0078     ship_server.obj
 0002:00004094       ??_C@_0BJ@JHHICPJK@map?2map_city00_00e_s?4dat?$AA@ 004c0094     ship_server.obj
 0002:000040b4       ??_C@_0BJ@GLIDDFC@map?2map_city00_00o_s?4dat?$AA@ 004c00b4     ship_server.obj
 0002:000040d4       ??_C@_0BE@ECLFGKG@map?2map_boss01e?4dat?$AA@ 004c00d4     ship_server.obj
 0002:000040ec       ??_C@_0BE@KFLAHFMA@map?2map_boss01o?4dat?$AA@ 004c00ec     ship_server.obj
 0002:00004104       ??_C@_0BE@DFMDEMDL@map?2map_boss02e?4dat?$AA@ 004c0104     ship_server.obj
 0002:0000411c       ??_C@_0BE@JEFIGPFN@map?2map_boss02o?4dat?$AA@ 004c011c     ship_server.obj
 0002:00004134       ??_C@_0BE@JDLEEHIP@map?2map_boss03e?4dat?$AA@ 004c0134     ship_server.obj
 0002:0000414c       ??_C@_0BE@DCCPGEOJ@map?2map_boss03o?4dat?$AA@ 004c014c     ship_server.obj
 0002:00004164       ??_C@_0BE@FGBDHJAB@map?2map_boss04e?4dat?$AA@ 004c0164     ship_server.obj
 0002:0000417c       ??_C@_0BI@JACDKDCD@map?2map_boss04_offo?4dat?$AA@ 004c017c     ship_server.obj
 0002:00004198       ??_C@_0BE@PHIIFKGH@map?2map_boss04o?4dat?$AA@ 004c0198     ship_server.obj
 0002:000041b0       ??_C@_0BH@GOIFJHJB@map?2map_labo00_00e?4dat?$AA@ 004c01b0     ship_server.obj
 0002:000041cc       ??_C@_0BH@MPBOLEPH@map?2map_labo00_00o?4dat?$AA@ 004c01cc     ship_server.obj
 0002:000041e8       ??_C@_0BJ@NKABLPGH@map?2map_labo00_00e_s?4dat?$AA@ 004c01e8     ship_server.obj
 0002:00004208       ??_C@_0BJ@ELMBKDKP@map?2map_labo00_00o_s?4dat?$AA@ 004c0208     ship_server.obj
 0002:00004228       ??_C@_0BE@PAGEHCLF@map?2map_boss05e?4dat?$AA@ 004c0228     ship_server.obj
 0002:00004240       ??_C@_0BE@MBIMGICI@map?2map_boss06e?4dat?$AA@ 004c0240     ship_server.obj
 0002:00004258       ??_C@_0BE@GHPLGDJM@map?2map_boss07e?4dat?$AA@ 004c0258     ship_server.obj
 0002:00004270       ??_C@_0BE@JBLDBDHF@map?2map_boss08e?4dat?$AA@ 004c0270     ship_server.obj
 0002:00004288       ??_C@_0BI@FBKNHMOD@map?2map_boss05_offo?4dat?$AA@ 004c0288     ship_server.obj
 0002:000042a4       ??_C@_0BI@MIEPBKOC@map?2map_boss06_offo?4dat?$AA@ 004c02a4     ship_server.obj
 0002:000042c0       ??_C@_0BI@JMBMFCC@map?2map_boss07_offo?4dat?$AA@ 004c02c0     ship_server.obj
 0002:000042dc       ??_C@_0BI@JKDJDBOE@map?2map_boss08_offo?4dat?$AA@ 004c02dc     ship_server.obj
 0002:000042f8       ??_C@_0BE@FBPPFBND@map?2map_boss05o?4dat?$AA@ 004c02f8     ship_server.obj
 0002:00004310       ??_C@_0BE@GABHELEO@map?2map_boss06o?4dat?$AA@ 004c0310     ship_server.obj
 0002:00004328       ??_C@_0BE@MGGAEAPK@map?2map_boss07o?4dat?$AA@ 004c0328     ship_server.obj
 0002:00004340       ??_C@_0BE@DACIDABD@map?2map_boss08o?4dat?$AA@ 004c0340     ship_server.obj
 0002:00004358       ??_C@_0BK@KGJKLHJN@map?2map_city02_00_00e?4dat?$AA@ 004c0358     ship_server.obj
 0002:00004378       ??_C@_0BK@HABJEPL@map?2map_city02_00_00o?4dat?$AA@ 004c0378     ship_server.obj
 0002:00004398       ??_C@_0BM@ENNKBILM@map?2map_city02_00_00e_s?4dat?$AA@ 004c0398     ship_server.obj
 0002:000043bc       ??_C@_0BM@NMBKAEHE@map?2map_city02_00_00o_s?4dat?$AA@ 004c03bc     ship_server.obj
 0002:000043e0       ??_C@_0BK@JDMDIMLE@map?2map_boss09_00_00e?4dat?$AA@ 004c03e0     ship_server.obj
 0002:00004400       ??_C@_0BK@DCFIKPNC@map?2map_boss09_00_00o?4dat?$AA@ 004c0400     ship_server.obj
 0002:00004420       ??_C@_0BN@ENLLFJIP@Bad?5game?5arguments?5supplied?4?$AA@ 004c0420     ship_server.obj
 0002:00004444       ??_C@_05FHBMKJFH@d?$AI?j?$BF?$AB?$AA@ 004c0444     ship_server.obj
 0002:0000444c       ??_C@_03EENFDDNJ@?$IEl?$JI?$AA@ 004c044c     ship_server.obj
 0002:00004450       ??_C@_0EL@ODBLJDFD@Lobby?5inventory?5problem?$CB?5?5It?8s?5a@ 004c0450     ship_server.obj
 0002:000044ac       ??_C@_0CC@FKOMHNPM@Trying?5to?5stack?5over?5the?5limit?4?4@ 004c04ac     ship_server.obj
 0002:000044d4       ??_C@_0BJ@GHGNMOGL@Inventory?5limit?5reached?4?$AA@ 004c04d4     ship_server.obj
 0002:000044f4       ??_C@_0CN@MGPKIBEA@Trying?5to?5delete?5more?5items?5than@ 004c04f4     ship_server.obj
 0002:0000452c       ??_C@_0BP@BFDDHIEB@Could?5not?5find?5item?5to?5delete?4?$AA@ 004c052c     ship_server.obj
 0002:00004554       ??_C@_0CO@PNDOBOBP@Trying?5to?5pull?5a?5fast?5one?5on?5the@ 004c0554     ship_server.obj
 0002:0000458c       ??_C@_0CG@FONBHGDE@Could?5not?5find?5bank?5item?5to?5with@ 004c058c     ship_server.obj
 0002:000045bc       ??_C@_0DB@NDFGPKJC@Trying?5to?5deposit?5more?5items?5tha@ 004c05bc     ship_server.obj
 0002:000045f8       ??_C@_0CA@JCPBFGEA@Could?5not?5find?5item?5to?5deposit?4?$AA@ 004c05f8     ship_server.obj
 0002:00004620       ??_C@_0CO@LEPLBJMN@Could?5not?5find?5item?5to?5delete?5fr@ 004c0620     ship_server.obj
 0002:00004658       ??_C@_0DM@NAMLKNDB@This?5ship?8s?5version?5is?5incompati@ 004c0658     ship_server.obj
 0002:000046a0       ??_C@_0EF@IKLNFOIB@This?5ship?8s?5IP?5address?5is?5alread@ 004c06a0     ship_server.obj
 0002:000046f8       ??_C@_0EE@OPOPOEHB@The?5IP?5address?5cannot?5be?5registe@ 004c06f8     ship_server.obj
 0002:00004750       ??_C@_0EI@BNEFNCHP@This?5ship?5did?5not?5pass?5the?5conne@ 004c0750     ship_server.obj
 0002:000047a8       ??_C@_0EG@BBNAKHMK@Please?5be?5sure?5the?5IP?5address?5sp@ 004c07a8     ship_server.obj
 0002:00004800       ??_C@_0EF@BFBKKGC@firewall?5has?5ship_serv?4exe?5on?5al@ 004c0800     ship_server.obj
 0002:00004854       ??_C@_0DI@HBMMJAKF@sure?5your?5ports?5are?5forwarded?4?5?5@ 004c0854     ship_server.obj
 0002:00004898       ??_C@_0EJ@GAKHBPMI@Please?5do?5not?5modify?5any?5data?5no@ 004c0898     ship_server.obj
 0002:000048f0       ??_C@_0BB@PNPGGBCE@login?5server?4?4?4?6?$AA@ 004c08f0     ship_server.obj
 0002:00004904       ??_C@_0CN@HKBDKMBN@Your?5ship_key?4bin?5file?5seems?5to?5@ 004c0904     ship_server.obj
 0002:0000493c       ??_C@_0CN@PFHPDNFM@Your?5ship?5key?5appears?5to?5already@ 004c093c     ship_server.obj
 0002:00004974       ??_C@_0CD@PGDOKPAG@Updated?5IP?5address?5to?5?$CFu?4?$CFu?4?$CFu?4?$CF@ 004c0974     ship_server.obj
 0002:000049a0       ??_C@_0EH@PBLFMHNL@Ship?5has?5successfully?5registered@ 004c09a0     ship_server.obj
 0002:000049f8       ??_C@_0CE@OHDNIEHD@Constructing?5Block?5List?5packet?4?4@ 004c09f8     ship_server.obj
 0002:00004a24       ??_C@_0BJ@OKHIAAEK@Load?5quest?5allowance?4?4?4?6?$AA@ 004c0a24     ship_server.obj
 0002:00004a44       ??_C@_0CB@BJEKKCHA@Quest?5allowance?5item?5count?3?5?$CFu?6?6@ 004c0a44     ship_server.obj
 0002:00004a6c       ??_C@_0CH@NLGMFDHO@Requesting?5drop?5charts?5from?5serv@ 004c0a6c     ship_server.obj
 0002:00004aa0       ??_C@_0FB@OOKEGMOM@The?5ship?5has?5failed?5authenticati@ 004c0aa0     ship_server.obj
 0002:00004b04       ??_C@_0BJ@NBFIDKFJ@GM?5?$CFu?5?$CI?$CFs?$CJ?5has?5connected?$AA@ 004c0b04     ship_server.obj
 0002:00004b24       ??_C@_0BL@IABNJFDM@User?5?$CFu?5?$CI?$CFs?$CJ?5has?5connected?$AA@ 004c0b24     ship_server.obj
 0002:00004b48       ??_C@_0IA@HICHDJJP@Your?5guild?5card?5database?5on?5the?5@ 004c0b48     ship_server.obj
 0002:00004be8       ??_C@_0EC@GKPALKFP@This?5account?5has?5just?5logged?5on?4@ 004c0be8     ship_server.obj
 0002:00004c38       ??_C@_0GF@MPKMBHAE@The?5server?5failed?5to?5create?5the?5@ 004c0c38     ship_server.obj
 0002:00004cb4       ??_C@_0DD@HIFDEBNN@Cannot?5create?5team?6because?5team?6@ 004c0cb4     ship_server.obj
 0002:00004cf4       ??_C@_0DG@JHNMJNEA@Cannot?5create?5team?6because?5you?5a@ 004c0cf4     ship_server.obj
 0002:00004d34       ??_C@_0CF@LLBAIPGG@Client?1Server?5synchronization?5er@ 004c0d34     ship_server.obj
 0002:00004d60       ??_C@_0HJ@GANJHAJL@This?5ship?5has?5unfortunately?5lost@ 004c0d60     ship_server.obj
 0002:00004df4       ??_C@_0BE@MEFFAOJO@Security?5violation?4?$AA@ 004c0df4     ship_server.obj
 0002:00004e0c       ??_C@_0CK@FBLKIOAC@Received?5drop?5chart?5from?5login?5s@ 004c0e0c     ship_server.obj
 0002:00004e40       ??_C@_0O@GFOLNHDG@Episode?5I?5?4?4?4?$AA@ 004c0e40     ship_server.obj
 0002:00004e50       ??_C@_05BMEHIPJD@?5OK?$CB?6?$AA@ 004c0e50     ship_server.obj
 0002:00004e58       ??_C@_0P@FEBDJHJB@Episode?5II?5?4?4?4?$AA@ 004c0e58     ship_server.obj
 0002:00004e6c       ??_C@_0P@KGJDCHNP@Episode?5IV?5?4?4?4?$AA@ 004c0e6c     ship_server.obj
 0002:00004e80       ??_C@_0DI@EMEKAEPA@?6Received?5rare?5monster?5appearanc@ 004c0e80     ship_server.obj
 0002:00004ec4       ??_C@_0CC@GCGEEIAH@Hildebear?5appearance?5rate?3?5?$CF3f?$CF?$CF@ 004c0ec4     ship_server.obj
 0002:00004eec       ??_C@_0BO@ENHDAAPE@Rappy?5appearance?5rate?3?5?$CF3f?$CF?$CF?6?$AA@ 004c0eec     ship_server.obj
 0002:00004f10       ??_C@_0BN@PAGIEHJP@Lily?5appearance?5rate?3?5?$CF3f?$CF?$CF?6?$AA@ 004c0f10     ship_server.obj
 0002:00004f34       ??_C@_0CG@LCJKNGMH@Pouilly?5Slime?5appearance?5rate?3?5?$CF@ 004c0f34     ship_server.obj
 0002:00004f64       ??_C@_0CD@LEJCBAHE@Merissa?5AA?5appearance?5rate?3?5?$CF3f?$CF@ 004c0f64     ship_server.obj
 0002:00004f90       ??_C@_0BP@PKNEDHPF@Pazuzu?5appearance?5rate?3?5?$CF3f?$CF?$CF?6?$AA@ 004c0f90     ship_server.obj
 0002:00004fb8       ??_C@_0CH@NLDAKMMA@Dorphon?5Eclair?5appearance?5rate?3?5@ 004c0fb8     ship_server.obj
 0002:00004fe8       ??_C@_0CB@JOGNCKHJ@Kondrieu?5appearance?5rate?3?5?$CF3f?$CF?$CF?6@ 004c0fe8     ship_server.obj
 0002:00005010       ??_C@_0CA@EMFHFOII@?6Now?5ready?5to?5serve?5players?4?4?4?6?$AA@ 004c1010     ship_server.obj
 0002:00005038       ??_C@_0CF@GHJCCHCI@GM?5?$CFu?5made?5a?5global?5announcement@ 004c1038     ship_server.obj
 0002:00005064       ??_C@_0DF@MDNDAECK@Could?5not?5find?5mag?5to?5feed?5or?5it@ 004c1064     ship_server.obj
 0002:000050a4       ??_C@_0BO@IIICIDNF@Could?5not?5find?5item?5to?5?$CCuse?$CC?4?$AA@ 004c10a4     ship_server.obj
 0002:000050c8       ??_C@_0CA@PPPFKMPI@You?5can?8t?5learn?5that?5technique?4?$AA@ 004c10c8     ship_server.obj
 0002:000050f0       ??_C@_0CI@MFBABNHN@Attempt?5to?5exceed?5material?5usage@ 004c10f0     ship_server.obj
 0002:00005120       ??_C@_0BL@IBPHGOMM@?$CCGod?1Equip?$CC?5is?5disallowed?4?$AA@ 004c1120     ship_server.obj
 0002:00005140       ??_C@_0DL@CJFLJOIP@There?5are?5no?5free?5slots?5on?5your?5@ 004c1140     ship_server.obj
 0002:00005188       ??_C@_0BO@DIBBDKPC@Could?5not?5find?5item?5to?5equip?4?$AA@ 004c1188     ship_server.obj
 0002:000051ac       ??_C@_0CA@PAFDJBNK@Could?5not?5find?5item?5to?5unequip?4?$AA@ 004c11ac     ship_server.obj
 0002:000051d4       ??_C@_02GMLFBBN@wb?$AA@    004c11d4     ship_server.obj
 0002:000051d8       ??_C@_0M@BAIFACKC@bandata?4dat?$AA@ 004c11d8     ship_server.obj
 0002:000051e8       ??_C@_0CJ@PGIFDMNI@Could?5not?5open?5bandata?4dat?5for?5w@ 004c11e8     ship_server.obj
 0002:0000521c       ??_C@_0BH@HLGIIBD@Ship?5ban?5list?5is?5full?4?$AA@ 004c121c     ship_server.obj
 0002:00005238       ??_C@_0BK@NIEODJMH@Ship?5ignore?5list?5is?5full?4?$AA@ 004c1238     ship_server.obj
 0002:00005258       ??_C@_0DE@MKKGCEFD@Client?5sent?5a?50x60?5packet?5whose?5@ 004c1258     ship_server.obj
 0002:00005298       ??_C@_0DE@IHABINLE@Command?3?5?$CF02X?5?$HM?5Size?3?5?$CF04X?5?$HM?5Siz@ 004c1298     ship_server.obj
 0002:000052d8       ??_C@_0DF@HNLFKLJH@No?5size?5check?5information?5for?50x@ 004c12d8     ship_server.obj
 0002:00005318       ??_C@_0DA@LJECIPBJ@60?5command?5?$CC?$CF02x?$CC?5blocked?5in?5gam@ 004c1318     ship_server.obj
 0002:00005354       ??_C@_02DKCKIIND@?$CFs?$AA@ 004c1354     ship_server.obj
 0002:00005358       ??_C@_0CN@KCBBEEFK@Using?5techniques?5on?5Pioneer?52?5is@ 004c1358     ship_server.obj
 0002:00005390       ??_C@_0CB@MIIBDBDO@Androids?5cannot?5cast?5techniques?4@ 004c1390     ship_server.obj
 0002:000053b8       ??_C@_0BI@OGJJLFPG@Invalid?5technique?5cast?4?$AA@ 004c13b8     ship_server.obj
 0002:000053d4       ??_C@_0CA@OJBGKDC@You?5cannot?5cast?5that?5technique?4?$AA@ 004c13d4     ship_server.obj
 0002:000053fc       ??_C@_0BE@JAIGMECF@Incorrect?5telepipe?4?$AA@ 004c13fc     ship_server.obj
 0002:00005418       ??_C@_0FJ@LLFLLHDH@Client?1server?5data?5synchronizati@ 004c1418     ship_server.obj
 0002:00005484       ??_C@_0BI@OEEPCLHK@Item?5donated?5to?5server?4?$AA@ 004c1484     ship_server.obj
 0002:000054a0       ??_C@_0CM@KIDJGDJC@Attempting?5to?5exchange?5for?5disal@ 004c14a0     ship_server.obj
 0002:000054d8       ??_C@_0EI@KDAHEHLL@No?5photon?5drops?5in?5user?8s?5invent@ 004c14d8     ship_server.obj
 0002:00005530       ??_C@_0BM@KDCGBPBB@Requested?5item?5not?5allowed?4?$AA@ 004c1530     ship_server.obj
 0002:00005554       ??_C@_0DE@IOOLANIC@Client?5sent?5a?50x62?5packet?5whose?5@ 004c1554     ship_server.obj
 0002:00005594       ??_C@_03GFPPOBLL@?$BE?$AB?$GA?$AA@ 004c1594     ship_server.obj
 0002:00005598       ??_C@_0CA@DJGCOKHJ@Not?5enough?5meseta?5for?5purchase?4?$AA@ 004c1598     ship_server.obj
 0002:000055c0       ??_C@_0BM@EOKJFDCH@Could?5not?5find?5item?5to?5Tek?4?$AA@ 004c15c0     ship_server.obj
 0002:000055e4       ??_C@_0BK@NOFKOBJA@Item?5duplication?5attempt?$CB?$AA@ 004c15e4     ship_server.obj
 0002:00005604       ??_C@_0CK@IIGCCCLK@Client?1server?5data?5synchronizati@ 004c1604     ship_server.obj
 0002:00005638       ??_C@_0BO@GPLEFPMI@Can?8t?5deposit?4?5?5Bank?5is?5full?4?$AA@ 004c1638     ship_server.obj
 0002:0000565c       ??_C@_0CE@GGELELFG@You?5aren?8t?5the?5master?5of?5your?5te@ 004c165c     ship_server.obj
 0002:00005688       ??_C@_0KA@PAIOPHBI@You?5did?5not?5receive?5the?5quest?5re@ 004c1688     ship_server.obj
 0002:00005748       ??_C@_0FA@LOPBEEHN@User?5?$CFu?5attempted?5to?5claim?5quest@ 004c1748     ship_server.obj
 0002:000057a8       ??_C@_0BN@PECEMKMA@Could?5not?5find?5item?5to?5wrap?4?$AA@ 004c17a8     ship_server.obj
 0002:000057cc       ??_C@_0DE@FPFFKBLN@62?5command?5?$CC?$CF02x?$CC?5not?5handled?5in@ 004c17cc     ship_server.obj
 0002:0000580c       ??_C@_0DE@HGKKKMEB@Client?5sent?5a?50x6D?5packet?5whose?5@ 004c180c     ship_server.obj
 0002:0000584c       ??_C@_0CO@DMCIBBOF@Command?3?5?$CF02X?5?$HM?5Size?3?5?$CF04X?5?$HM?5Siz@ 004c184c     ship_server.obj
 0002:00005888       ??_C@_0ED@JODPGMHP@Technique?5data?5check?5failed?4?6?6So@ 004c1888     ship_server.obj
 0002:000058d8       ??_C@_02PCIJFNDE@?$AN?6?$AA@ 004c18d8     ship_server.obj
 0002:000058dc       ??_C@_01MCMALHOG@a?$AA@    004c18dc     ship_server.obj
 0002:000058e0       ??_C@_08KAOMADBL@ship?4log?$AA@ 004c18e0     ship_server.obj
 0002:000058ec       ??_C@_0BL@HKLLDAEN@Unable?5to?5log?5to?5ship?4log?6?$AA@ 004c18ec     ship_server.obj
 0002:0000590c       ??_C@_0BN@HEBHGBOP@?$FL?$CF02u?9?$CF02u?9?$CFu?0?5?$CF02u?3?$CF02u?$FN?5?$CFs?$AA@ 004c190c     ship_server.obj
 0002:00005930       ??_C@_06PONOOGMN@gm?4log?$AA@ 004c1930     ship_server.obj
 0002:00005938       ??_C@_0BJ@CIKHJBCP@Unable?5to?5log?5to?5gm?4log?6?$AA@ 004c1938     ship_server.obj
 0002:00005958       ??_C@_02BMCALKD@?5?0?$AA@  004c1958     ship_server.obj
 0002:0000595c       ??_C@_05GFCDIDHO@debug?$AA@ 004c195c     ship_server.obj
 0002:00005964       ??_C@_07NJNCBGOF@setpass?$AA@ 004c1964     ship_server.obj
 0002:00005970       ??_C@_0BD@FFDNOGFF@Need?5new?5password?4?$AA@ 004c1970     ship_server.obj
 0002:00005988       ??_C@_0BH@GNJPOALF@Room?5password?5changed?4?$AA@ 004c1988     ship_server.obj
 0002:000059a4       ??_C@_05OMEEDKDH@arrow?$AA@ 004c19a4     ship_server.obj
 0002:000059ac       ??_C@_0BC@GPPCGJDF@Need?5arrow?5digit?4?$AA@ 004c19ac     ship_server.obj
 0002:000059c4       ??_C@_04IOHABJIC@lang?$AA@ 004c19c4     ship_server.obj
 0002:000059cc       ??_C@_0BF@MPDGENEO@Need?5language?5digit?4?$AA@ 004c19cc     ship_server.obj
 0002:000059e8       ??_C@_0BD@PJJDBCKN@Current?5language?3?6?$AA@ 004c19e8     ship_server.obj
 0002:00005a00       ??_C@_03BPGDPAOH@npc?$AA@  004c1a00     ship_server.obj
 0002:00005a04       ??_C@_0CI@JKNENDHF@Need?5NPC?5digit?4?5?$CImax?5?$DN?511?0?50?5to?5@ 004c1a04     ship_server.obj
 0002:00005a34       ??_C@_0DD@BBLAGFHE@Skin?5updated?0?5change?5blocks?5for?5@ 004c1a34     ship_server.obj
 0002:00005a74       ??_C@_05GFHEIIDD@event?$AA@ 004c1a74     ship_server.obj
 0002:00005a7c       ??_C@_0BC@PNMPLOGP@Need?5event?5digit?4?$AA@ 004c1a7c     ship_server.obj
 0002:00005a94       ??_C@_0CD@EDLIFOHD@GM?5?$CFu?5has?5changed?5ship?5event?5to?5@ 004c1a94     ship_server.obj
 0002:00005ac0       ??_C@_06BIKNOOIM@redbox?$AA@ 004c1ac0     ship_server.obj
 0002:00005ac8       ??_C@_0BJ@OLEMLFMF@Red?5box?5mode?5turned?5off?4?$AA@ 004c1ac8     ship_server.obj
 0002:00005ae8       ??_C@_0CC@GEFLICOG@GM?5?$CFu?5has?5deactivated?5redbox?5mod@ 004c1ae8     ship_server.obj
 0002:00005b10       ??_C@_0BI@CPHOHPHA@Red?5box?5mode?5turned?5on?$CB?$AA@ 004c1b10     ship_server.obj
 0002:00005b2c       ??_C@_0CA@CILDIGO@GM?5?$CFu?5has?5activated?5redbox?5mode?$AA@ 004c1b2c     ship_server.obj
 0002:00005b54       ??_C@_04NHONDGDE@item?$AA@ 004c1b54     ship_server.obj
 0002:00005b5c       ??_C@_0CC@JGKGLBNA@Cannot?5make?5items?5in?5the?5lobby?$CB?$CB@ 004c1b5c     ship_server.obj
 0002:00005b84       ??_C@_0DP@MILGJDKO@You?5must?5specify?5at?5least?5four?5a@ 004c1b84     ship_server.obj
 0002:00005bd0       ??_C@_0CH@FANKOEMF@Main?5arguments?5is?5an?5incorrect?5l@ 004c1bd0     ship_server.obj
 0002:00005c00       ??_C@_0CM@IHPJGHBJ@Some?5arguments?5were?5incorrect?5an@ 004c1c00     ship_server.obj
 0002:00005c34       ??_C@_0BG@LCJMEGDI@GM?5?$CFu?5created?5an?5item?$AA@ 004c1c34     ship_server.obj
 0002:00005c50       ??_C@_0EP@LGOHDBAA@Item?5data?3?5?$CF02X?$CF02X?$CF02X?$CF02X?0?$CF02X@ 004c1c50     ship_server.obj
 0002:00005cb0       ??_C@_0O@KMEOELD@Item?5created?4?$AA@ 004c1cb0     ship_server.obj
 0002:00005cc0       ??_C@_04BMBHJADG@give?$AA@ 004c1cc0     ship_server.obj
 0002:00005cc8       ??_C@_0CC@PGDPBCEI@Cannot?5give?5items?5in?5the?5lobby?$CB?$CB@ 004c1cc8     ship_server.obj
 0002:00005cf0       ??_C@_0BH@PAEPFLPD@GM?5?$CFu?5obtained?5an?5item?$AA@ 004c1cf0     ship_server.obj
 0002:00005d0c       ??_C@_0P@FCKBPDJD@Item?5obtained?4?$AA@ 004c1d0c     ship_server.obj
 0002:00005d20       ??_C@_06DIFMMGHJ@warpme?$AA@ 004c1d20     ship_server.obj
 0002:00005d28       ??_C@_0BL@LKNAPMBD@Can?8t?5warp?5in?5the?5lobby?$CB?$CB?$CB?$AA@ 004c1d28     ship_server.obj
 0002:00005d48       ??_C@_0BI@GKMOGPLP@Need?5area?5to?5warp?5to?4?4?4?$AA@ 004c1d48     ship_server.obj
 0002:00005d64       ??_C@_0DJ@OFFPBFAL@Warping?5past?5area?517?5would?5proba@ 004c1d64     ship_server.obj
 0002:00005da8       ??_C@_02BLAHNHF@dc?$AA@    004c1da8     ship_server.obj
 0002:00005dac       ??_C@_0CD@ONIMMEJL@Need?5a?5guild?5card?5?$CD?5to?5disconnec@ 004c1dac     ship_server.obj
 0002:00005dd8       ??_C@_0CC@PPKHOIPK@You?5may?5not?5disconnect?5this?5user@ 004c1dd8     ship_server.obj
 0002:00005e00       ??_C@_0CE@NBIFJFGN@GM?5?$CFu?5has?5disconnected?5user?5?$CFu?5?$CI@ 004c1e00     ship_server.obj
 0002:00005e2c       ??_C@_0CC@LMLMACDD@You?8ve?5been?5disconnected?5by?5a?5GM@ 004c1e2c     ship_server.obj
 0002:00005e54       ??_C@_03PNPPPIFF@ban?$AA@  004c1e54     ship_server.obj
 0002:00005e58       ??_C@_0BM@EIOEAABN@Need?5a?5guild?5card?5?$CD?5to?5ban?4?$AA@ 004c1e58     ship_server.obj
 0002:00005e7c       ??_C@_0CK@ODNOGDBI@GM?5?$CFu?5has?5removed?5ban?5from?5guild@ 004c1e7c     ship_server.obj
 0002:00005eb0       ??_C@_0N@LIHMKOLM@Ban?5removed?4?$AA@ 004c1eb0     ship_server.obj
 0002:00005ec0       ??_C@_0BL@BMOCPDOD@You?5may?5not?5ban?5this?5user?4?$AA@ 004c1ec0     ship_server.obj
 0002:00005ee0       ??_C@_0BO@HOAKGJCL@GM?5?$CFu?5has?5banned?5user?5?$CFu?5?$CI?$CFs?$CJ?$AA@ 004c1ee0     ship_server.obj
 0002:00005f04       ??_C@_0BM@MMOPGCHF@You?8ve?5been?5banned?5by?5a?5GM?4?$AA@ 004c1f04     ship_server.obj
 0002:00005f28       ??_C@_0BG@PAMOAJGG@User?5has?5been?5banned?4?$AA@ 004c1f28     ship_server.obj
 0002:00005f44       ??_C@_05LLFADILH@ipban?$AA@ 004c1f44     ship_server.obj
 0002:00005f4c       ??_C@_0BP@HLBEGHNI@Need?5a?5guild?5card?5?$CD?5to?5IP?5ban?4?$AA@ 004c1f4c     ship_server.obj
 0002:00005f74       ??_C@_0CN@MBAMIGIF@GM?5?$CFu?5has?5removed?5IP?5ban?5from?5gu@ 004c1f74     ship_server.obj
 0002:00005fac       ??_C@_0BA@FIDFIMFA@IP?5ban?5removed?4?$AA@ 004c1fac     ship_server.obj
 0002:00005fc0       ??_C@_0CB@EFHHHBOP@GM?5?$CFu?5has?5IP?5banned?5user?5?$CFu?5?$CI?$CFs?$CJ@ 004c1fc0     ship_server.obj
 0002:00005fe8       ??_C@_0BJ@MHDBPNAO@User?5has?5been?5IP?5banned?4?$AA@ 004c1fe8     ship_server.obj
 0002:00006008       ??_C@_05MCCMDHAC@hwban?$AA@ 004c2008     ship_server.obj
 0002:00006010       ??_C@_0BP@HCBJFJMI@Need?5a?5guild?5card?5?$CD?5to?5HW?5ban?4?$AA@ 004c2010     ship_server.obj
 0002:00006038       ??_C@_0CN@HHEDOGOC@GM?5?$CFu?5has?5removed?5HW?5ban?5from?5gu@ 004c2038     ship_server.obj
 0002:00006070       ??_C@_0BA@GNFMBCNL@HW?5ban?5removed?4?$AA@ 004c2070     ship_server.obj
 0002:00006084       ??_C@_0CB@LLNNKFHL@GM?5?$CFu?5has?5HW?5banned?5user?5?$CFu?5?$CI?$CFs?$CJ@ 004c2084     ship_server.obj
 0002:000060ac       ??_C@_0BJ@OEGDDJLH@User?5has?5been?5HW?5banned?4?$AA@ 004c20ac     ship_server.obj
 0002:000060cc       ??_C@_05INFJIAE@dcall?$AA@ 004c20cc     ship_server.obj
 0002:000060d4       ??_C@_0DK@EBHOJMDA@Blocking?5connections?5until?5all?5u@ 004c20d4     ship_server.obj
 0002:0000611c       ??_C@_0CB@NCDKHGIG@GM?5?$CFu?5has?5disconnected?5all?5users@ 004c211c     ship_server.obj
 0002:00006144       ??_C@_08NHEEDBM@announce?$AA@ 004c2144     ship_server.obj
 0002:00006150       ??_C@_0BE@JIGNOMBK@Announce?6cancelled?4?$AA@ 004c2150     ship_server.obj
 0002:00006168       ??_C@_0BM@CBCPMPAM@Announce?5by?6sending?5a?6mail?4?$AA@ 004c2168     ship_server.obj
 0002:0000618c       ??_C@_06FJKEMHGD@global?$AA@ 004c218c     ship_server.obj
 0002:00006194       ??_C@_0CD@CGBPAMGH@Global?5announce?6by?5sending?6a?5mai@ 004c2194     ship_server.obj
 0002:000061c0       ??_C@_07EEELHLDH@levelup?$AA@ 004c21c0     ship_server.obj
 0002:000061cc       ??_C@_0CA@JJPIHCEC@Cannot?5level?5up?5in?5the?5lobby?$CB?$CB?$CB?$AA@ 004c21cc     ship_server.obj
 0002:000061f4       ??_C@_0DE@CKAJNEAE@Please?5leave?5Pioneer?52?5before?5us@ 004c21f4     ship_server.obj
 0002:00006234       ??_C@_0CO@IJALHBNM@Must?5specify?5a?5target?5level?5to?5l@ 004c2234     ship_server.obj
 0002:0000626c       ??_C@_0DH@HGIPLDDM@Target?5level?5must?5be?5higher?5than@ 004c226c     ship_server.obj
 0002:000062b0       ??_C@_0P@IHFEDIAA@updatelocalgms?$AA@ 004c22b0     ship_server.obj
 0002:000062c4       ??_C@_0BI@PHOMEGBC@Local?5GM?5file?5reloaded?4?$AA@ 004c22c4     ship_server.obj
 0002:000062e0       ??_C@_0M@INEDBDLN@updatemasks?$AA@ 004c22e0     ship_server.obj
 0002:000062f0       ??_C@_0BM@LEMNHPMI@IP?5ban?5masks?5file?5reloaded?4?$AA@ 004c22f0     ship_server.obj
 0002:00006314       ??_C@_04JNPFOIOP@bank?$AA@ 004c2314     ship_server.obj
 0002:0000631c       ??_C@_0BA@MIFDBNPA@Bank?3?5Character?$AA@ 004c231c     ship_server.obj
 0002:00006330       ??_C@_0N@GLDLFDCE@Bank?3?5Common?$AA@ 004c2330     ship_server.obj
 0002:00006340       ??_C@_06GDPEBLPA@ignore?$AA@ 004c2340     ship_server.obj
 0002:00006348       ??_C@_0BP@GMJNCGGP@Need?5a?5guild?5card?5?$CD?5to?5ignore?4?$AA@ 004c2348     ship_server.obj
 0002:00006370       ??_C@_0BO@IGJMEBIP@User?5no?5longer?5being?5ignored?4?$AA@ 004c2370     ship_server.obj
 0002:00006394       ??_C@_0BF@JALBMOEO@User?5is?5now?5ignored?4?$AA@ 004c2394     ship_server.obj
 0002:000063b0       ??_C@_0BF@BPFJKMOG@Ignore?5list?5is?5full?4?$AA@ 004c23b0     ship_server.obj
 0002:000063cc       ??_C@_04HNOAJPBH@stfu?$AA@ 004c23cc     ship_server.obj
 0002:000063d4       ??_C@_0CA@DALCEHCP@Need?5a?5guild?5card?5?$CD?5to?5silence?4?$AA@ 004c23d4     ship_server.obj
 0002:000063fc       ??_C@_0BP@EABHNEJD@You?5may?5not?5silence?5this?5user?4?$AA@ 004c23fc     ship_server.obj
 0002:00006424       ??_C@_0CA@DAOAMHNA@GM?5?$CFu?5has?5silenced?5user?5?$CFu?5?$CI?$CFs?$CJ?$AA@ 004c2424     ship_server.obj
 0002:0000644c       ??_C@_0BI@KJMGAGDN@User?5has?5been?5silenced?4?$AA@ 004c244c     ship_server.obj
 0002:00006468       ??_C@_0BG@MLHGIBCK@You?8ve?5been?5silenced?4?$AA@ 004c2468     ship_server.obj
 0002:00006484       ??_C@_0CM@PEDNALF@GM?5?$CFu?5has?5removed?5silence?5from?5u@ 004c2484     ship_server.obj
 0002:000064b8       ??_C@_0BO@NPNHIONJ@User?5is?5now?5allowed?5to?5speak?4?$AA@ 004c24b8     ship_server.obj
 0002:000064dc       ??_C@_0BK@HHHBJJLC@You?5may?5now?5speak?5freely?4?$AA@ 004c24dc     ship_server.obj
 0002:000064fc       ??_C@_07KFKODFMC@warpall?$AA@ 004c24fc     ship_server.obj
 0002:00006508       ??_C@_04NDIAIBCF@?4bbc?$AA@ 004c2508     ship_server.obj
 0002:00006510       ??_C@_0CN@CBBMHHNJ@User?5?$CFu?5?$CI?$CFs?$CJ?5has?5wrote?5character@ 004c2510     ship_server.obj
 0002:00006548       ??_C@_0CA@KCHIPHN@Your?5debug?5data?5has?5been?5saved?4?$AA@ 004c2548     ship_server.obj
 0002:00006570       ??_C@_0CI@CPAOAAHD@Your?5debug?5data?5has?5already?5been@ 004c2570     ship_server.obj
 0002:000065a0       ??_C@_05MAJFADFL@HUmar?$AA@ 004c25a0     ship_server.obj
 0002:000065a8       ??_C@_09OPGAMIJI@HUnewearl?$AA@ 004c25a8     ship_server.obj
 0002:000065b4       ??_C@_06JNIHFNL@HUcast?$AA@ 004c25b4     ship_server.obj
 0002:000065bc       ??_C@_08CKFLCFPJ@HUcaseal?$AA@ 004c25bc     ship_server.obj
 0002:000065c8       ??_C@_05PHLIBDOE@RAmar?$AA@ 004c25c8     ship_server.obj
 0002:000065d0       ??_C@_06FCDBPGNG@RAcast?$AA@ 004c25d0     ship_server.obj
 0002:000065d8       ??_C@_08OLEENCMH@RAcaseal?$AA@ 004c25d8     ship_server.obj
 0002:000065e4       ??_C@_06GONILKNJ@RAmarl?$AA@ 004c25e4     ship_server.obj
 0002:000065ec       ??_C@_06BAFBHNFJ@FOnewm?$AA@ 004c25ec     ship_server.obj
 0002:000065f4       ??_C@_09MIEHDAME@FOnewearl?$AA@ 004c25f4     ship_server.obj
 0002:00006600       ??_C@_06MHEDGDHE@FOmarl?$AA@ 004c2600     ship_server.obj
 0002:00006608       ??_C@_05NAMPONAI@FOmar?$AA@ 004c2608     ship_server.obj
 0002:00006610       ??_C@_07NBCGADJA@Unknown?$AA@ 004c2610     ship_server.obj
 0002:0000661c       ??_C@_07KMGNNLPP@Time?5?3?5?$AA@ 004c261c     ship_server.obj
 0002:00006628       ??_C@_08NMEPJAGI@Quest?5?3?5?$AA@ 004c2628     ship_server.obj
 0002:00006634       ??_C@_0BH@JDMLMACO@Game?5no?5longer?5active?4?$AA@ 004c2634     ship_server.obj
 0002:00006650       ??_C@_0EK@FGKLLBBC@Episode?5I?6?6You?5must?5be?5level?620?5@ 004c2650     ship_server.obj
 0002:000066a8       ??_C@_0EP@CNJAAJHC@Episode?5I?6?6You?5must?5be?5level?650?5@ 004c26a8     ship_server.obj
 0002:00006708       ??_C@_0EO@MLKJGPLI@Episode?5I?6?6You?5must?5be?5level?690?5@ 004c2708     ship_server.obj
 0002:00006768       ??_C@_0EL@MIPJDGIH@Episode?5II?6?6You?5must?5be?5level?630@ 004c2768     ship_server.obj
 0002:000067c8       ??_C@_0FA@BHBBEHHJ@Episode?5II?6?6You?5must?5be?5level?660@ 004c27c8     ship_server.obj
 0002:00006828       ??_C@_0FA@DMFMOAFI@Episode?5II?6?6You?5must?5be?5level?610@ 004c2828     ship_server.obj
 0002:00006888       ??_C@_0EL@FFHGAALA@Episode?5IV?6?6You?5must?5be?5level?640@ 004c2888     ship_server.obj
 0002:000068e8       ??_C@_0FA@FBJCHENM@Episode?5IV?6?6You?5must?5be?5level?670@ 004c28e8     ship_server.obj
 0002:00006948       ??_C@_0FA@HBLGOFBP@Episode?5IV?6?6You?5must?5be?5level?611@ 004c2948     ship_server.obj
 0002:000069a8       ??_C@_0N@HKGDCIPN@Game?5is?5full?$AA@ 004c29a8     ship_server.obj
 0002:000069b8       ??_C@_0BL@EGHAHNFH@Quest?5already?5in?5progress?4?$AA@ 004c29b8     ship_server.obj
 0002:000069d8       ??_C@_0BP@PJAMGLCK@Cannot?5join?5a?5one?6person?5game?4?$AA@ 004c29d8     ship_server.obj
 0002:00006a00       ??_C@_0BE@FMJKNIIE@Incorrect?5password?4?$AA@ 004c2a00     ship_server.obj
 0002:00006a18       ??_C@_0CK@PDAKPDED@Player?5is?5bursting?4?6Please?5wait?5@ 004c2a18     ship_server.obj
 0002:00006a4c       ??_C@_0CP@HFJGBALI@Player?5is?5loading?6quest?4?6Please?5@ 004c2a4c     ship_server.obj
 0002:00006a88       ??_C@_0EG@PFKJICJK@You?5must?5progress?6further?5in?5the@ 004c2a88     ship_server.obj
 0002:00006adc       ??_C@_0DL@POOGMFEM@Please?5clear?6the?5remaining?6quest@ 004c2adc     ship_server.obj
 0002:00006b24       ??_C@_0DD@OAJFHHID@The?5party?5no?5longer?6qualifies?5to@ 004c2b24     ship_server.obj
 0002:00006b64       ??_C@_0BO@PNADOPKK@Unknown?5battle?5rule?5loaded?4?4?4?$AA@ 004c2b64     ship_server.obj
 0002:00006b88       ??_C@_0BG@PLDFCGGD@Quest?5already?5loaded?4?$AA@ 004c2b88     ship_server.obj
 0002:00006ba4       ??_C@_0CM@IONFHEAI@Only?5the?5leader?5of?5a?5team?5can?5st@ 004c2ba4     ship_server.obj
 0002:00006bd8       ??_C@_0P@GPJJODPE@Block?5is?5full?4?$AA@ 004c2bd8     ship_server.obj
 0002:00006bec       ??_C@_0CC@JFIFGGLJ@Player?5already?6belongs?5to?5a?5team@ 004c2bec     ship_server.obj
 0002:00006c14       ??_C@_0BA@CCINDFFE@Member?5removed?4?$AA@ 004c2c14     ship_server.obj
 0002:00006c28       ??_C@_0CB@GMCIEDML@Your?5privilege?5level?5is?6too?5low?4@ 004c2c28     ship_server.obj
 0002:00006c50       ??_C@_0EI@DACLBHDJ@Tethealla?5Ship?5Server?5coded?5by?5S@ 004c2c50     ship_server.obj
 0002:00006ca8       ??_C@_0CJ@OOBBEPID@You?5must?5wait?6awhile?5before?6tryi@ 004c2ca8     ship_server.obj
 0002:00006cdc       ??_C@_0BP@CFNOFMKO@GM?5?$CFu?5made?5an?5announcement?3?5?$CFs?$AA@ 004c2cdc     ship_server.obj
 0002:00006d04       ??_C@_0P@FDAAJDIO@Lobby?5is?5full?$CB?$AA@ 004c2d04     ship_server.obj
 0002:00006d18       ??_C@_0EK@BNGKAHCO@Challenge?5games?5are?5NOT?5supporte@ 004c2d18     ship_server.obj
 0002:00006d70       ??_C@_09KJGLFCBI@Lol?0?5nub?4?$AA@ 004c2d70     ship_server.obj
 0002:00006d80       ??_C@_0FF@BCJNLMNA@Sorry?0?5limit?5of?5game?6creation?5ha@ 004c2d80     ship_server.obj
 0002:00006de8       ??_C@_0BM@PFNDKDOJ@GM?5?$CFu?5?$CI?$CFs?$CJ?5has?5disconnected?$AA@ 004c2de8     ship_server.obj
 0002:00006e0c       ??_C@_0BO@JEOGLPEK@User?5?$CFu?5?$CI?$CFs?$CJ?5has?5disconnected?$AA@ 004c2e0c     ship_server.obj
 0002:00006e30       ??_C@_0CD@FEAKBJEM@Client?5has?5closed?5the?5connection@ 004c2e30     ship_server.obj
 0002:00006e5c       ??_C@_0BP@DMAMFCEL@You?5are?5banned?5from?5this?5ship?4?$AA@ 004c2e5c     ship_server.obj
 0002:00006e84       ??_C@_0BA@KHFEBKOO@Loading?5?$CFs?5?4?4?4?5?$AA@ 004c2e84     ship_server.obj
 0002:00006e98       ??_C@_0BA@LEPLOJDH@?$CFs?5is?5missing?4?6?$AA@ 004c2e98     ship_server.obj
 0002:00006eac       ??_C@_0BC@BFLNPBPJ@?$CFs?5is?5corrupted?4?6?$AA@ 004c2eac     ship_server.obj
 0002:00006ec4       ??_C@_04GMALNMBL@OK?$CB?6?$AA@ 004c2ec4     ship_server.obj
 0002:00006ecc       ??_C@_0BI@PBHBLJKE@Checksum?5of?5file?3?5?$CF08x?6?$AA@ 004c2ecc     ship_server.obj
 0002:00006ee8       ??_C@_0DD@DBCGDAGH@WARNING?3?5Battle?5parameter?5file?5h@ 004c2ee8     ship_server.obj
 0002:00006f28       ??_C@_0CB@LHMELLJB@Loading?5quest?5list?5from?5?$CFs?5?4?4?4?5?6@ 004c2f28     ship_server.obj
 0002:00006f50       ??_C@_06BOMNECPH@quest?2?$AA@ 004c2f50     ship_server.obj
 0002:00006f58       ??_C@_09HIBHGHCO@quest?4lst?$AA@ 004c2f58     ship_server.obj
 0002:00006f64       ??_C@_01IDAFKMJL@_?$AA@    004c2f64     ship_server.obj
 0002:00006f68       ??_C@_04IJELDEIF@?4qst?$AA@ 004c2f68     ship_server.obj
 0002:00006f70       ??_C@_04KPHBLPLG@?4raw?$AA@ 004c2f70     ship_server.obj
 0002:00006f78       ??_C@_04GKHLBAIJ@?4bin?$AA@ 004c2f78     ship_server.obj
 0002:00006f80       ??_C@_0BJ@MLEHLAGD@PRS?5buffer?5too?5small?4?4?4?6?$AA@ 004c2f80     ship_server.obj
 0002:00006fa0       ??_C@_0BD@NNBMKPJA@Memory?5corrupted?$CB?6?$AA@ 004c2fa0     ship_server.obj
 0002:00006fb8       ??_C@_04PBCOOEDG@?4dat?$AA@ 004c2fb8     ship_server.obj
 0002:00006fc0       ??_C@_0BN@MCHGJMAO@Area?5out?5of?5range?5in?5quest?$CB?6?$AA@ 004c2fc0     ship_server.obj
 0002:00006fe4       ??_C@_0DJ@JMOJFBJK@Loaded?5quest?5?$CFs?5?$CI?$CFs?$CJ?0?6Object?5cou@ 004c2fe4     ship_server.obj
 0002:00007028       ??_C@_0DG@OOOGJOLP@Quest?5file?5?$CFs?5is?5missing?$CB?5?5Could@ 004c3028     ship_server.obj
 0002:00007068       ??_C@_0DJ@LCENPHI@Non?9fatal?3?5Alternate?5quest?5langu@ 004c3068     ship_server.obj
 0002:000070ac       ??_C@_0CO@FLLIAOCM@The?5parameter?5file?5?$CFs?5appears?5to@ 004c30ac     ship_server.obj
 0002:000070e4       ??_C@_0CA@IOLIOAEO@CSV?5file?5has?5too?5many?5entries?4?6?$AA@ 004c30e4     ship_server.obj
 0002:0000710c       ??_C@_0BF@DNMPPKGN@Loaded?5?$CFu?5lines?4?4?4?$AN?6?$AA@ 004c310c     ship_server.obj
 0002:00007128       ??_C@_0BD@KHAJFJIB@param?2armorpmt?4ini?$AA@ 004c3128     ship_server.obj
 0002:00007140       ??_C@_0BE@MEOHOPPC@param?2shieldpmt?4ini?$AA@ 004c3140     ship_server.obj
 0002:00007158       ??_C@_0BE@DNNDCPHN@param?2weaponpmt?4ini?$AA@ 004c3158     ship_server.obj
 0002:00007170       ??_C@_0P@MLIBOENL@param?2tech?4ini?$AA@ 004c3170     ship_server.obj
 0002:00007184       ??_C@_0CA@MOLHCOFO@Technique?5CSV?5file?5is?5corrupt?4?6?$AA@ 004c3184     ship_server.obj
 0002:000071ac       ??_C@_0P@GBMDCJMH@shop?2shop2?4dat?$AA@ 004c31ac     ship_server.obj
 0002:000071c0       ??_C@_0BL@BEJPKDPJ@shop?2shop2?4dat?5is?5missing?4?$AA@ 004c31c0     ship_server.obj
 0002:000071e0       ??_C@_0BP@HIMMDOAB@Tethealla?5Ship?5Server?5version?5?$AA@ 004c31e0     ship_server.obj
 0002:00007208       ??_C@_05OEGJOJOL@0?4144?$AA@ 004c3208     ship_server.obj
 0002:00007210       ??_C@_0BC@HJBNGNPL@?5coded?5by?5Sodaboy?$AA@ 004c3210     ship_server.obj
 0002:00007228       ??_C@_0EK@LCBIAFNC@?6Tethealla?5Ship?5Server?5version?5?$CF@ 004c3228     ship_server.obj
 0002:00007280       ??_C@_0EL@EAFCNHA@?9?$DN?9?$DN?9?$DN?9?$DN?9?$DN?9?$DN?9?$DN?9?$DN?9?$DN?9?$DN?9?$DN?9?$DN?9?$DN?9?$DN?9?$DN?9?$DN@ 004c3280     ship_server.obj
 0002:000072dc       ??_C@_0DN@DKLLOGAF@This?5program?5comes?5with?5ABSOLUTE@ 004c32dc     ship_server.obj
 0002:00007328       ??_C@_0BP@NHDPIFJC@see?5section?515?5in?5gpl?93?40?4txt?6?$AA@ 004c3328     ship_server.obj
 0002:00007350       ??_C@_0DP@LCBDMDFH@This?5is?5free?5software?0?5and?5you?5a@ 004c3350     ship_server.obj
 0002:0000739c       ??_C@_0DI@EJDIPKHE@under?5certain?5conditions?$DL?5see?5gp@ 004c339c     ship_server.obj
 0002:000073e0       ??_C@_0CJ@NFHHAMCC@Loading?5configuration?5from?5ship?4@ 004c33e0     ship_server.obj
 0002:00007414       ??_C@_05HAOGCKLK@OK?$CB?6?6?$AA@ 004c3414     ship_server.obj
 0002:0000741c       ??_C@_0BK@KKAKAKHA@Loading?5language?5file?4?4?4?6?$AA@ 004c341c     ship_server.obj
 0002:0000743c       ??_C@_0BJ@MCENNGBA@Loading?5ship_key?4bin?4?4?4?5?$AA@ 004c343c     ship_server.obj
 0002:0000745c       ??_C@_0N@ICFEILIO@ship_key?4bin?$AA@ 004c345c     ship_server.obj
 0002:0000746c       ??_C@_0CA@CHOEBJAO@Could?5not?5locate?5ship_key?4bin?$CB?6?$AA@ 004c346c     ship_server.obj
 0002:00007494       ??_C@_0BH@OPMMGONO@Hit?5?$FLENTER?$FN?5to?5quit?4?4?4?$AA@ 004c3494     ship_server.obj
 0002:000074b0       ??_C@_0CH@PFIIOFAF@OK?$CB?6?6Loading?5weapon?5parameter?5fi@ 004c34b0     ship_server.obj
 0002:000074e0       ??_C@_0M@MMBHGFLN@?6?4?4?5done?$CB?6?6?$AA@ 004c34e0     ship_server.obj
 0002:000074f0       ??_C@_0CL@PIIDMKCC@Loading?5armor?5?$CG?5barrier?5paramete@ 004c34f0     ship_server.obj
 0002:00007524       ??_C@_0CF@FALHPKKB@Loading?5technique?5parameter?5file@ 004c3524     ship_server.obj
 0002:00007550       ??_C@_0CE@PJAFNPBB@Loading?5battle?5parameter?5files?4?4@ 004c3550     ship_server.obj
 0002:0000757c       ??_C@_0BL@BDIGDJAM@param?2BattleParamEntry?4dat?$AA@ 004c357c     ship_server.obj
 0002:0000759c       ??_C@_0BO@FEEPIPCC@param?2BattleParamEntry_on?4dat?$AA@ 004c359c     ship_server.obj
 0002:000075c0       ??_C@_0BP@KBEKNOMF@param?2BattleParamEntry_lab?4dat?$AA@ 004c35c0     ship_server.obj
 0002:000075e8       ??_C@_0CC@EJNMMJOP@param?2BattleParamEntry_lab_on?4da@ 004c35e8     ship_server.obj
 0002:00007610       ??_C@_0BP@KFHLLJHO@param?2BattleParamEntry_ep4?4dat?$AA@ 004c3610     ship_server.obj
 0002:00007638       ??_C@_0CC@PLLFCFEA@param?2BattleParamEntry_ep4_on?4da@ 004c3638     ship_server.obj
 0002:00007660       ??_C@_0CI@LCKLDECL@?6?4?4?5done?$CB?6?6Building?5common?5table@ 004c3660     ship_server.obj
 0002:00007690       ??_C@_0BK@IJLFIOGA@Weapon?5drop?5rate?3?5?$CF03f?$CF?$CF?6?$AA@ 004c3690     ship_server.obj
 0002:000076b0       ??_C@_0BJ@PDDADKJO@Armor?5drop?5rate?3?5?$CF03f?$CF?$CF?6?$AA@ 004c36b0     ship_server.obj
 0002:000076d0       ??_C@_0BH@HDDEJIO@Mag?5drop?5rate?3?5?$CF03f?$CF?$CF?6?$AA@ 004c36d0     ship_server.obj
 0002:000076ec       ??_C@_0BI@JMMOJEFJ@Tool?5drop?5rate?3?5?$CF03f?$CF?$CF?6?$AA@ 004c36ec     ship_server.obj
 0002:00007708       ??_C@_0BK@DKFAIDNN@Meseta?5drop?5rate?3?5?$CF03f?$CF?$CF?6?$AA@ 004c3708     ship_server.obj
 0002:00007728       ??_C@_0BI@EBLCFBLM@Experience?5rate?3?5?$CFu?$CF?$CF?6?6?$AA@ 004c3728     ship_server.obj
 0002:00007744       ??_C@_0L@DGHCPKFP@?4?4?5done?$CB?6?6?$AA@ 004c3744     ship_server.obj
 0002:00007754       ??_C@_0BN@HHOPEPEJ@Loading?5param?2ItemPT?4gsl?4?4?4?6?$AA@ 004c3754     ship_server.obj
 0002:00007778       ??_C@_0BB@PGKDAIMK@param?2ItemPT?4gsl?$AA@ 004c3778     ship_server.obj
 0002:0000778c       ??_C@_0CC@IPMLBMOF@Can?8t?5proceed?5without?5ItemPT?4gsl@ 004c378c     ship_server.obj
 0002:000077b4       ??_C@_0DD@BOJMGPKG@Parse?5Episode?5I?5data?4?4?4?5?$CIThis?5ma@ 004c37b4     ship_server.obj
 0002:000077f4       ??_C@_0DE@FEOPLLKM@Parse?5Episode?5II?5data?4?4?4?5?$CIThis?5m@ 004c37f4     ship_server.obj
 0002:00007834       ??_C@_0CD@GMFINJKL@Loading?5param?2PlyLevelTbl?4bin?5?4?4@ 004c3834     ship_server.obj
 0002:00007860       ??_C@_0BG@FELIPDPO@param?2PlyLevelTbl?4bin?$AA@ 004c3860     ship_server.obj
 0002:0000787c       ??_C@_0CI@EECDMICF@Can?8t?5proceed?5without?5PlyLevelTb@ 004c387c     ship_server.obj
 0002:000078ac       ??_C@_0CD@KNKBCKNO@OK?$CB?6?6?4?4?5done?$CB?6?6Loading?5quests?4?4?4@ 004c38ac     ship_server.obj
 0002:000078d8       ??_C@_0BC@LBKKLKGC@quest?2ep1team?4ini?$AA@ 004c38d8     ship_server.obj
 0002:000078f0       ??_C@_0BC@FKJNABGB@quest?2ep2team?4ini?$AA@ 004c38f0     ship_server.obj
 0002:00007908       ??_C@_0BC@FHIDHBCG@quest?2ep4team?4ini?$AA@ 004c3908     ship_server.obj
 0002:00007920       ??_C@_0BC@GIBEALKI@quest?2ep1solo?4ini?$AA@ 004c3920     ship_server.obj
 0002:00007938       ??_C@_0BC@IDCDLAKL@quest?2ep2solo?4ini?$AA@ 004c3938     ship_server.obj
 0002:00007950       ??_C@_0BC@IODNMAOM@quest?2ep4solo?4ini?$AA@ 004c3950     ship_server.obj
 0002:00007968       ??_C@_0BB@IODEAGDN@quest?2ep1gov?4ini?$AA@ 004c3968     ship_server.obj
 0002:0000797c       ??_C@_0BB@LHLJDKPI@quest?2ep2gov?4ini?$AA@ 004c397c     ship_server.obj
 0002:00007990       ??_C@_0BB@MEKDEDHC@quest?2ep4gov?4ini?$AA@ 004c3990     ship_server.obj
 0002:000079a4       ??_C@_0BB@LNPIODEA@quest?2battle?4ini?$AA@ 004c39a4     ship_server.obj
 0002:000079b8       ??_C@_0DB@DJMJIMKI@?6?$CFu?5bytes?5of?5memory?5allocated?5fo@ 004c39b8     ship_server.obj
 0002:000079f4       ??_C@_0BK@OFOHPJFK@Loading?5shop?2shop?4dat?5?4?4?4?$AA@ 004c39f4     ship_server.obj
 0002:00007a14       ??_C@_0O@JPHJEHNO@shop?2shop?4dat?$AA@ 004c3a14     ship_server.obj
 0002:00007a24       ??_C@_0CB@LHCNICJF@Can?8t?5proceed?5without?5shop?4dat?$CB?6@ 004c3a24     ship_server.obj
 0002:00007a4c       ??_C@_0BN@CMPIBFGJ@Failed?5to?5read?5shop?5data?4?4?4?6?$AA@ 004c3a4c     ship_server.obj
 0002:00007a70       ??_C@_07DPFIIBML@done?$CB?6?6?$AA@ 004c3a70     ship_server.obj
 0002:00007a7c       ??_C@_0BJ@GNCCBFLC@?6Ship?5server?5parameters?6?$AA@ 004c3a7c     ship_server.obj
 0002:00007a9c       ??_C@_0BJ@KJAFPGHJ@?1?1?1?1?1?1?1?1?1?1?1?1?1?1?1?1?1?1?1?1?1?1?1?6?$AA@ 004c3a9c     ship_server.obj
 0002:00007abc       ??_C@_0BB@BKDJBBLI@IP?3?5?$CFu?4?$CFu?4?$CFu?4?$CFu?6?$AA@ 004c3abc     ship_server.obj
 0002:00007ad0       ??_C@_0P@LEHJIBMD@Ship?5Port?3?5?$CFu?6?$AA@ 004c3ad0     ship_server.obj
 0002:00007ae4       ??_C@_0BG@MIHEKMAK@Number?5of?5Blocks?3?5?$CFu?6?$AA@ 004c3ae4     ship_server.obj
 0002:00007b00       ??_C@_0BJ@PMEHBEHP@Maximum?5Connections?3?5?$CFu?6?$AA@ 004c3b00     ship_server.obj
 0002:00007b20       ??_C@_0BO@BDEELJBO@Logon?5server?5IP?3?5?$CFu?4?$CFu?4?$CFu?4?$CFu?6?$AA@ 004c3b20     ship_server.obj
 0002:00007b44       ??_C@_0CE@EBFHLEHO@?6Connecting?5to?5the?5logon?5server?4@ 004c3b44     ship_server.obj
 0002:00007b70       ??_C@_0CO@PMMPFE@?6Allocating?5?$CFu?5bytes?5of?5memory?5f@ 004c3b70     ship_server.obj
 0002:00007ba8       ??_C@_0BA@BLONFKFG@Out?5of?5memory?$CB?6?$AA@ 004c3ba8     ship_server.obj
 0002:00007bbc       ??_C@_0DD@IMKJLNIN@?6Allocating?5?$CFu?5bytes?5of?5memory?5f@ 004c3bbc     ship_server.obj
 0002:00007bfc       ??_C@_0BF@KOOBMKGO@Loading?5ban?5data?4?4?4?5?$AA@ 004c3bfc     ship_server.obj
 0002:00007c18       ??_C@_0DB@JFNGCLFB@done?$CB?6?6?$CFu?5bans?5loaded?4?6?$CFu?5IP?5mas@ 004c3c18     ship_server.obj
 0002:00007c54       ??_C@_0CH@FDKAJEEA@Opening?5ship?5port?5?$CFu?5for?5connect@ 004c3c54     ship_server.obj
 0002:00007c84       ??_C@_0DC@LAMFMJMJ@Opening?5block?5port?5?$CFu?5?$CIBLOCK?$CFu?$CJ?5@ 004c3c84     ship_server.obj
 0002:00007cc0       ??_C@_0CJ@DFLJLKJN@Failed?5to?5open?5port?5?$CFu?5for?5conne@ 004c3cc0     ship_server.obj
 0002:00007cf4       ??_C@_0CL@OEKNIMKM@Failed?5to?5open?5ship?5port?5for?5con@ 004c3cf4     ship_server.obj
 0002:00007d28       ??_C@_0P@OELFKJNB@?6Listening?4?4?4?6?$AA@ 004c3d28     ship_server.obj
 0002:00007d3c       ??_C@_07NOJCOIHC@sodaboy?$AA@ 004c3d3c     ship_server.obj
 0002:00007d48       ??_C@_0BI@DHHMNJID@RegisterClass?5failure?4?6?$AA@ 004c3d48     ship_server.obj
 0002:00007d64       ??_C@_0O@DOGBPIGL@hidden?5window?$AA@ 004c3d64     ship_server.obj
 0002:00007d74       ??_C@_0BJ@LBGGMCCH@Failed?5to?5create?5window?4?$AA@ 004c3d74     ship_server.obj
 0002:00007d94       ??_C@_0BA@POHOBBPF@Tethealla?5Ship?5?$AA@ 004c3d94     ship_server.obj
 0002:00007da8       ??_C@_0BN@BHALMGL@?5?9?5Double?5click?5to?5show?1hide?$AA@ 004c3da8     ship_server.obj
 0002:00007dcc       ??_C@_0CH@DCGMGJKG@No?5longer?5blocking?5new?5connectio@ 004c3dcc     ship_server.obj
 0002:00007dfc       ??_C@_0CO@COMMJHKA@Disconnected?5user?5?$CFu?0?5left?5to?5di@ 004c3dfc     ship_server.obj
 0002:00007e34       ??_C@_0CB@DKFLPAKH@You?5were?5disconnected?5by?5a?5GM?4?4?4@ 004c3e34     ship_server.obj
 0002:00007e60       ??_C@_0EG@LKHLIEJO@Logon?5server?5ping?5timeout?4?5?5Atte@ 004c3e60     ship_server.obj
 0002:00007eb4       ??_C@_0CB@GCHODKEF@Reconnecting?5to?5login?5server?4?4?4?6@ 004c3eb4     ship_server.obj
 0002:00007edc       ??_C@_0CF@PDFDJHDK@Accepted?5SHIP?5connection?5from?5?$CFs@ 004c3edc     ship_server.obj
 0002:00007f08       ??_C@_0CG@EPKEGMBE@Accepted?5BLOCK?5connection?5from?5?$CF@ 004c3f08     ship_server.obj
 0002:00007f38       ??_C@_0EC@DLKNJLLN@?$CFu?5disconnected?5for?5possible?5DDO@ 004c3f38     ship_server.obj
 0002:00007f88       ??_C@_0CI@MDNFPBFI@Could?5not?5send?5data?5to?5logon?5ser@ 004c3f88     ship_server.obj
 0002:00007fb8       ??_C@_0BC@NGPAFNHH@Socket?5Error?5?$CFu?4?6?$AA@ 004c3fb8     ship_server.obj
 0002:00007fd0       ??_C@_0CK@MPJAGJMH@Lost?5connection?5with?5the?5logon?5s@ 004c3fd0     ship_server.obj
 0002:00008004       ??_C@_0BM@PLHECIAJ@Reconnect?5in?5?$CFu?5seconds?4?4?4?6?$AA@ 004c4004     ship_server.obj
 0002:00008028       ??_C@_0CK@GGFNCPNA@Could?5not?5read?5data?5from?5logon?5s@ 004c4028     ship_server.obj
 0002:00008060       ??_C@_0GH@DIPCCCJK@Received?5too?5much?5data?5from?5the?5@ 004c4060     ship_server.obj
 0002:000080dc       ??_C@_0CA@DJODHPEE@Could?5not?5listen?5for?5connection?$AA@ 004c40dc     ship_server.obj
 0002:00008104       ??_C@_0BM@IAPHMMAA@Could?5not?5accept?5connection?$AA@ 004c4104     ship_server.obj
 0002:00008128       ??_C@_0BI@CAGHNOEM@Could?5not?5create?5socket?$AA@ 004c4128     ship_server.obj
 0002:00008144       ??_C@_0BO@FEDCDCF@Could?5not?5make?5TCP?5connection?$AA@ 004c4144     ship_server.obj
 0002:00008168       ??_C@_0BH@HFJJMMCF@Could?5not?5bind?5to?5port?$AA@ 004c4168     ship_server.obj
 0002:00008184       ??_C@_08GDGGOJBC@?$CFs?5?3?5?$CFs?6?$AA@ 004c4184     ship_server.obj
 0002:00008190       __real@00000000            004c4190     ship_server.obj
 0002:00008198       __real@3ee4f8b588e368f1    004c4198     ship_server.obj
 0002:000081a8       __real@3ff0000000000000    004c41a8     ship_server.obj
 0002:000081b8       __real@4000000000000000    004c41b8     ship_server.obj
 0002:000081c8       __real@4008000000000000    004c41c8     ship_server.obj
 0002:000081d8       __real@4010000000000000    004c41d8     ship_server.obj
 0002:000081e8       __real@4014000000000000    004c41e8     ship_server.obj
 0002:000081f8       __real@4020000000000000    004c41f8     ship_server.obj
 0002:00008208       __real@4022000000000000    004c4208     ship_server.obj
 0002:00008218       __real@4024000000000000    004c4218     ship_server.obj
 0002:00008228       __real@4035000000000000    004c4228     ship_server.obj
 0002:00008238       __real@4039000000000000    004c4238     ship_server.obj
 0002:00008248       __real@4072c00000000000    004c4248     ship_server.obj
 0002:00008254       __real@447a0000            004c4254     ship_server.obj
 0002:00008260       __xmm@41f00000000000000000000000000000 004c4260     ship_server.obj
 0002:00008274       ??_C@_0N@JFDMEAJL@?1dev?1urandom?$AA@ 004c4274     mtwist:mtwist.obj
 0002:00008284       ??_C@_0M@CDGCLAEA@?1dev?1random?$AA@ 004c4284     mtwist:mtwist.obj
 0002:00008290       ??_C@_03PMGGPEJJ@?$CFd?6?$AA@ 004c4290     mtwist:mtwist.obj
 0002:00008294       ??_C@_04IGLCGODE@?$CFlu?5?$AA@ 004c4294     mtwist:mtwist.obj
 0002:0000829c       ??_C@_02DPKJAMEF@?$CFd?$AA@ 004c429c     mtwist:mtwist.obj
 0002:000082a0       ??_C@_03FKNCMABI@?$CFlu?$AA@ 004c42a0     mtwist:mtwist.obj
 0002:000082ac       ?ProcessDetach@NativeDll@<CrtImplementationDetails>@@0IB 004c42ac     LIBCMTD:tolower.obj
 0002:000082b0       ?ProcessAttach@NativeDll@<CrtImplementationDetails>@@0IB 004c42b0     LIBCMTD:tolower.obj
 0002:000082b4       ?ThreadAttach@NativeDll@<CrtImplementationDetails>@@0IB 004c42b4     LIBCMTD:tolower.obj
 0002:000082b8       ?ThreadDetach@NativeDll@<CrtImplementationDetails>@@0IB 004c42b8     LIBCMTD:tolower.obj
 0002:000082bc       ?ProcessVerifier@NativeDll@<CrtImplementationDetails>@@0IB 004c42bc     LIBCMTD:tolower.obj
 0002:000082c0       ??_C@_15GANGMFKL@?$AA?$CF?$AAs?$AA?$AA@ 004c42c0     LIBCMTD:strerror.obj
 0002:000082c8       ??_C@_0EA@FCLIIPNN@Visual?5C?$CL?$CL?5CRT?3?5Not?5enough?5memor@ 004c42c8     LIBCMTD:strerror.obj
 0002:00008308       ??_C@_0CJ@CJMICBEP@f?3?2dd?2vctools?2crt?2crtw32?2misc?2st@ 004c4308     LIBCMTD:strerror.obj
 0002:00008338       ??_C@_1FC@IIDLIEAI@?$AAf?$AA?3?$AA?2?$AAd?$AAd?$AA?2?$AAv?$AAc?$AAt?$AAo?$AAo?$AAl?$AAs?$AA?2?$AAc?$AAr?$AAt?$AA?2?$AAc?$AAr?$AAt?$AAw?$AA3?$AA2?$AA?2?$AAm?$AAi?$AAs?$AAc?$AA?2?$AAs?$AAt@ 004c4338     LIBCMTD:strerror.obj
 0002:0000838c       ??_C@_1BC@CPPAPMCG@?$AAs?$AAt?$AAr?$AAe?$AAr?$AAr?$AAo?$AAr?$AA?$AA@ 004c438c     LIBCMTD:strerror.obj
 0002:000083a0       ??_C@_1GM@HFLCJPGH@?$AAs?$AAt?$AAr?$AAc?$AAp?$AAy?$AA_?$AAs?$AA?$CI?$AAe?$AAr?$AAr?$AAm?$AAs?$AAg?$AA?0?$AA?5?$AA?$CI?$AA9?$AA4?$AA?$CL?$AA3?$AA8?$AA?$CL?$AA2?$AA?$CJ?$AA?0?$AA?5?$AA_?$AAg?$AAe?$AAt@ 004c43a0     LIBCMTD:strerror.obj
 0002:0000840c       ??_C@_1BO@PNINNIGK@?$AAb?$AAu?$AAf?$AAf?$AAe?$AAr?$AA?5?$AA?$CB?$AA?$DN?$AA?5?$AAN?$AAU?$AAL?$AAL?$AA?$AA@ 004c440c     LIBCMTD:strerror.obj
 0002:0000842c       ??_C@_1BG@CLIBDOC@?$AAs?$AAt?$AAr?$AAe?$AAr?$AAr?$AAo?$AAr?$AA_?$AAs?$AA?$AA@ 004c442c     LIBCMTD:strerror.obj
 0002:00008444       ??_C@_1CC@JNJFIMGE@?$AAs?$AAi?$AAz?$AAe?$AAI?$AAn?$AAT?$AAC?$AAh?$AAa?$AAr?$AAs?$AA?5?$AA?$DO?$AA?5?$AA0?$AA?$AA@ 004c4444     LIBCMTD:strerror.obj
 0002:00008468       ??_C@_1JI@GAHGOJMC@?$AAs?$AAt?$AAr?$AAn?$AAc?$AAp?$AAy?$AA_?$AAs?$AA?$CI?$AAb?$AAu?$AAf?$AAf?$AAe?$AAr?$AA?0?$AA?5?$AAs?$AAi?$AAz?$AAe?$AAI?$AAn?$AAT?$AAC?$AAh?$AAa?$AAr?$AAs?$AA?0?$AA?5@ 004c4468     LIBCMTD:strerror.obj
 0002:00008500       ??_C@_1BO@JIBAMMGI@?$AAs?$AAt?$AAr?$AAi?$AAn?$AAg?$AA?5?$AA?$CB?$AA?$DN?$AA?5?$AAN?$AAU?$AAL?$AAL?$AA?$AA@ 004c4500     LIBCMTD:strupr.obj
 0002:00008520       ??_C@_1FC@NEEBCHNL@?$AAf?$AA?3?$AA?2?$AAd?$AAd?$AA?2?$AAv?$AAc?$AAt?$AAo?$AAo?$AAl?$AAs?$AA?2?$AAc?$AAr?$AAt?$AA?2?$AAc?$AAr?$AAt?$AAw?$AA3?$AA2?$AA?2?$AAs?$AAt?$AAr?$AAi?$AAn?$AAg?$AA?2@ 004c4520     LIBCMTD:strupr.obj
 0002:00008574       ??_C@_1BA@DIKNJIGG@?$AA_?$AAs?$AAt?$AAr?$AAu?$AAp?$AAr?$AA?$AA@ 004c4574     LIBCMTD:strupr.obj
 0002:00008584       ??_C@_1CC@NFHGNMIC@?$AA_?$AAs?$AAt?$AAr?$AAu?$AAp?$AAr?$AA_?$AAs?$AA_?$AAl?$AA_?$AAs?$AAt?$AAa?$AAt?$AA?$AA@ 004c4584     LIBCMTD:strupr.obj
 0002:000085a8       ??_C@_1DM@FHLMIEG@?$AAS?$AAt?$AAr?$AAi?$AAn?$AAg?$AA?5?$AAi?$AAs?$AA?5?$AAn?$AAo?$AAt?$AA?5?$AAn?$AAu?$AAl?$AAl?$AA?5?$AAt?$AAe?$AAr?$AAm?$AAi?$AAn?$AAa?$AAt?$AAe?$AAd?$AA?$AA@ 004c45a8     LIBCMTD:strupr.obj
 0002:000085e8       ??_C@_1FA@MJKDNFFB@?$AA?$CI?$AAL?$AA?$CC?$AAS?$AAt?$AAr?$AAi?$AAn?$AAg?$AA?5?$AAi?$AAs?$AA?5?$AAn?$AAo?$AAt?$AA?5?$AAn?$AAu?$AAl?$AAl?$AA?5?$AAt?$AAe?$AAr?$AAm?$AAi?$AAn?$AAa?$AAt?$AAe?$AAd@ 004c45e8     LIBCMTD:strupr.obj
 0002:00008638       ??_C@_1CI@HCPHDDLE@?$AAB?$AAu?$AAf?$AAf?$AAe?$AAr?$AA?5?$AAi?$AAs?$AA?5?$AAt?$AAo?$AAo?$AA?5?$AAs?$AAm?$AAa?$AAl?$AAl?$AA?$AA@ 004c4638     LIBCMTD:strupr.obj
 0002:00008660       ??_C@_1DM@MADKGDLO@?$AA?$CI?$AAL?$AA?$CC?$AAB?$AAu?$AAf?$AAf?$AAe?$AAr?$AA?5?$AAi?$AAs?$AA?5?$AAt?$AAo?$AAo?$AA?5?$AAs?$AAm?$AAa?$AAl?$AAl?$AA?$CC?$AA?5?$AA?$CG?$AA?$CG?$AA?5?$AA0?$AA?$CJ?$AA?$AA@ 004c4660     LIBCMTD:strupr.obj
 0002:0000869c       ??_C@_1BO@LKEBEKJP@?$AAp?$AAV?$AAa?$AAl?$AAu?$AAe?$AA?5?$AA?$CB?$AA?$DN?$AA?5?$AAN?$AAU?$AAL?$AAL?$AA?$AA@ 004c469c     LIBCMTD:dosmap.obj
 0002:000086c0       ??_C@_1EM@IOHICOCC@?$AAf?$AA?3?$AA?2?$AAd?$AAd?$AA?2?$AAv?$AAc?$AAt?$AAo?$AAo?$AAl?$AAs?$AA?2?$AAc?$AAr?$AAt?$AA?2?$AAc?$AAr?$AAt?$AAw?$AA3?$AA2?$AA?2?$AAd?$AAo?$AAs?$AA?2?$AAd?$AAo?$AAs@ 004c46c0     LIBCMTD:dosmap.obj
 0002:0000870c       ??_C@_1BG@KCMPBBDK@?$AA_?$AAg?$AAe?$AAt?$AA_?$AAe?$AAr?$AAr?$AAn?$AAo?$AA?$AA@ 004c470c     LIBCMTD:dosmap.obj
 0002:00008724       ??_C@_1BM@INIPHHDD@?$AA_?$AAg?$AAe?$AAt?$AA_?$AAd?$AAo?$AAs?$AAe?$AAr?$AAr?$AAn?$AAo?$AA?$AA@ 004c4724     LIBCMTD:dosmap.obj
 0002:00008740       ??_C@_1BI@BGOHAHKC@?$AAm?$AAs?$AAc?$AAo?$AAr?$AAe?$AAe?$AA?4?$AAd?$AAl?$AAl?$AA?$AA@ 004c4740     LIBCMTD:crt0dat.obj
 0002:00008758       ??_C@_0P@MIGLKIOC@CorExitProcess?$AA@ 004c4758     LIBCMTD:crt0dat.obj
 0002:00008768       ??_C@_1FG@MHCBBJEK@?$AAf?$AA?3?$AA?2?$AAd?$AAd?$AA?2?$AAv?$AAc?$AAt?$AAo?$AAo?$AAl?$AAs?$AA?2?$AAc?$AAr?$AAt?$AA?2?$AAc?$AAr?$AAt?$AAw?$AA3?$AA2?$AA?2?$AAs?$AAt?$AAa?$AAr?$AAt?$AAu?$AAp@ 004c4768     LIBCMTD:crt0dat.obj
 0002:000087c0       ??_C@_1BK@PNLDCCDP@?$AA_?$AAg?$AAe?$AAt?$AA_?$AAw?$AAp?$AAg?$AAm?$AAp?$AAt?$AAr?$AA?$AA@ 004c47c0     LIBCMTD:crt0dat.obj
 0002:000087dc       ??_C@_1CC@CDIPMFPD@?$AA_?$AAw?$AAp?$AAg?$AAm?$AAp?$AAt?$AAr?$AA?5?$AA?$CB?$AA?$DN?$AA?5?$AAN?$AAU?$AAL?$AAL?$AA?$AA@ 004c47dc     LIBCMTD:crt0dat.obj
 0002:00008800       ??_C@_1BI@COAAPHJK@?$AA_?$AAg?$AAe?$AAt?$AA_?$AAp?$AAg?$AAm?$AAp?$AAt?$AAr?$AA?$AA@ 004c4800     LIBCMTD:crt0dat.obj
 0002:00008818       ??_C@_1CA@BBNAFCKO@?$AA_?$AAp?$AAg?$AAm?$AAp?$AAt?$AAr?$AA?5?$AA?$CB?$AA?$DN?$AA?5?$AAN?$AAU?$AAL?$AAL?$AA?$AA@ 004c4818     LIBCMTD:crt0dat.obj
 0002:00008838       ??_C@_1BK@DJNILIMN@?$AAp?$AAa?$AAt?$AAh?$AA?5?$AA?$CB?$AA?$DN?$AA?5?$AAN?$AAU?$AAL?$AAL?$AA?$AA@ 004c4838     LIBCMTD:crt0dat.obj
 0002:00008854       ??_C@_1DG@KANBJOCK@?$AA_?$AA_?$AAc?$AAo?$AAp?$AAy?$AA_?$AAp?$AAa?$AAt?$AAh?$AA_?$AAt?$AAo?$AA_?$AAw?$AAi?$AAd?$AAe?$AA_?$AAs?$AAt?$AAr?$AAi?$AAn?$AAg?$AA?$AA@ 004c4854     LIBCMTD:crt0dat.obj
 0002:0000888c       ??_C@_1CA@BGODLPHH@?$AAo?$AAu?$AAt?$AAP?$AAa?$AAt?$AAh?$AA?5?$AA?$CB?$AA?$DN?$AA?5?$AAN?$AAU?$AAL?$AAL?$AA?$AA@ 004c488c     LIBCMTD:crt0dat.obj
 0002:000088ac       ??_C@_0CL@LMMOJFEN@f?3?2dd?2vctools?2crt?2crtw32?2startup@ 004c48ac     LIBCMTD:crt0dat.obj
 0002:000088d8       ??_C@_1CC@NLGECIOD@?$AAi?$AAn?$AAS?$AAt?$AAr?$AAi?$AAn?$AAg?$AA?5?$AA?$CB?$AA?$DN?$AA?5?$AAN?$AAU?$AAL?$AAL?$AA?$AA@ 004c48d8     LIBCMTD:crt0dat.obj
 0002:000088fc       ??_C@_1BO@PNPLHAEP@?$AA_?$AA_?$AAc?$AAo?$AAp?$AAy?$AA_?$AAt?$AAo?$AA_?$AAc?$AAh?$AAa?$AAr?$AA?$AA@ 004c48fc     LIBCMTD:crt0dat.obj
 0002:0000891c       ??_C@_1CE@HIPDKGHC@?$AAo?$AAu?$AAt?$AAS?$AAt?$AAr?$AAi?$AAn?$AAg?$AA?5?$AA?$CB?$AA?$DN?$AA?5?$AAN?$AAU?$AAL?$AAL?$AA?$AA@ 004c491c     LIBCMTD:crt0dat.obj
 0002:00008940       ??_C@_0CH@FPHLCLAF@f?3?2dd?2vctools?2crt?2crtw32?2stdio?2_@ 004c4940     LIBCMTD:_file.obj
 0002:00008968       ??_C@_1CC@FADMNIL@?$AA?$CI?$AAs?$AAt?$AAr?$AAe?$AAa?$AAm?$AA?5?$AA?$CB?$AA?$DN?$AA?5?$AAN?$AAU?$AAL?$AAL?$AA?$CJ?$AA?$AA@ 004c4968     LIBCMTD:fclose.obj
 0002:00008990       ??_C@_1FA@HHFEGMDA@?$AAf?$AA?3?$AA?2?$AAd?$AAd?$AA?2?$AAv?$AAc?$AAt?$AAo?$AAo?$AAl?$AAs?$AA?2?$AAc?$AAr?$AAt?$AA?2?$AAc?$AAr?$AAt?$AAw?$AA3?$AA2?$AA?2?$AAs?$AAt?$AAd?$AAi?$AAo?$AA?2?$AAf@ 004c4990     LIBCMTD:fclose.obj
 0002:000089e0       ??_C@_1O@EGMJNCOI@?$AAf?$AAc?$AAl?$AAo?$AAs?$AAe?$AA?$AA@ 004c49e0     LIBCMTD:fclose.obj
 0002:000089f0       ??_C@_1BM@JMKHIAHP@?$AA?$CI?$AAs?$AAt?$AAr?$AA?5?$AA?$CB?$AA?$DN?$AA?5?$AAN?$AAU?$AAL?$AAL?$AA?$CJ?$AA?$AA@ 004c49f0     LIBCMTD:fclose.obj
 0002:00008a0c       ??_C@_1BO@JINCABEC@?$AA_?$AAf?$AAc?$AAl?$AAo?$AAs?$AAe?$AA_?$AAn?$AAo?$AAl?$AAo?$AAc?$AAk?$AA?$AA@ 004c4a0c     LIBCMTD:fclose.obj
 0002:00008a30       ??_C@_1FC@KMCLOOLI@?$AAf?$AA?3?$AA?2?$AAd?$AAd?$AA?2?$AAv?$AAc?$AAt?$AAo?$AAo?$AAl?$AAs?$AA?2?$AAc?$AAr?$AAt?$AA?2?$AAc?$AAr?$AAt?$AAw?$AA3?$AA2?$AA?2?$AAs?$AAt?$AAd?$AAi?$AAo?$AA?2?$AAf@ 004c4a30     LIBCMTD:feoferr.obj
 0002:00008a84       ??_C@_19LPGIFIDB@?$AAf?$AAe?$AAo?$AAf?$AA?$AA@ 004c4a84     LIBCMTD:feoferr.obj
 0002:00008a90       ??_C@_1O@MOPHEPGP@?$AAf?$AAe?$AAr?$AAr?$AAo?$AAr?$AA?$AA@ 004c4a90     LIBCMTD:feoferr.obj
 0002:00008aa0       ??_C@_1EK@KICPAPCG@?$AA?$CI?$AA?5?$AAs?$AAt?$AAr?$AAi?$AAn?$AAg?$AA?5?$AA?$CB?$AA?$DN?$AA?5?$AAN?$AAU?$AAL?$AAL?$AA?5?$AA?$CJ?$AA?5?$AA?$HM?$AA?$HM?$AA?5?$AA?$CI?$AA?5?$AAc?$AAo?$AAu?$AAn?$AAt?$AA?5?$AA?$DN?$AA?$DN@ 004c4aa0     LIBCMTD:fgets.obj
 0002:00008af0       ??_C@_1EO@PGEPLMEM@?$AAf?$AA?3?$AA?2?$AAd?$AAd?$AA?2?$AAv?$AAc?$AAt?$AAo?$AAo?$AAl?$AAs?$AA?2?$AAc?$AAr?$AAt?$AA?2?$AAc?$AAr?$AAt?$AAw?$AA3?$AA2?$AA?2?$AAs?$AAt?$AAd?$AAi?$AAo?$AA?2?$AAf@ 004c4af0     LIBCMTD:fgets.obj
 0002:00008b40       ??_C@_1M@BEMABAL@?$AAf?$AAg?$AAe?$AAt?$AAs?$AA?$AA@ 004c4b40     LIBCMTD:fgets.obj
 0002:00008b4c       ??_C@_1BO@CLMMCNLO@?$AA?$CI?$AA?5?$AAc?$AAo?$AAu?$AAn?$AAt?$AA?5?$AA?$DO?$AA?$DN?$AA?5?$AA0?$AA?5?$AA?$CJ?$AA?$AA@ 004c4b4c     LIBCMTD:fgets.obj
 0002:00008b6c       ??_C@_1CA@EHPEFHFN@?$AA?$CI?$AA?5?$AAs?$AAt?$AAr?$AA?5?$AA?$CB?$AA?$DN?$AA?5?$AAN?$AAU?$AAL?$AAL?$AA?5?$AA?$CJ?$AA?$AA@ 004c4b6c     LIBCMTD:fgets.obj
 0002:00008b90       ??_C@_1BAA@ODEGEDCK@?$AA?$CI?$AA?5?$AA?$CI?$AA_?$AAS?$AAt?$AAr?$AAe?$AAa?$AAm?$AA?9?$AA?$DO?$AA_?$AAf?$AAl?$AAa?$AAg?$AA?5?$AA?$CG?$AA?5?$AA_?$AAI?$AAO?$AAS?$AAT?$AAR?$AAG?$AA?$CJ?$AA?5?$AA?$HM?$AA?$HM?$AA?5@ 004c4b90     LIBCMTD:fgets.obj
 0002:00008c90       ??_C@_1BO@CLGIAEOJ@?$AA?$CI?$AAf?$AAi?$AAl?$AAe?$AA?5?$AA?$CB?$AA?$DN?$AA?5?$AAN?$AAU?$AAL?$AAL?$AA?$CJ?$AA?$AA@ 004c4c90     LIBCMTD:fopen.obj
 0002:00008cb0       ??_C@_1EO@HOHPPGLK@?$AAf?$AA?3?$AA?2?$AAd?$AAd?$AA?2?$AAv?$AAc?$AAt?$AAo?$AAo?$AAl?$AAs?$AA?2?$AAc?$AAr?$AAt?$AA?2?$AAc?$AAr?$AAt?$AAw?$AA3?$AA2?$AA?2?$AAs?$AAt?$AAd?$AAi?$AAo?$AA?2?$AAf@ 004c4cb0     LIBCMTD:fopen.obj
 0002:00008d00       ??_C@_1BA@HNEAFMNL@?$AA_?$AAf?$AAs?$AAo?$AAp?$AAe?$AAn?$AA?$AA@ 004c4d00     LIBCMTD:fopen.obj
 0002:00008d10       ??_C@_1BO@MJMKAKCJ@?$AA?$CI?$AAm?$AAo?$AAd?$AAe?$AA?5?$AA?$CB?$AA?$DN?$AA?5?$AAN?$AAU?$AAL?$AAL?$AA?$CJ?$AA?$AA@ 004c4d10     LIBCMTD:fopen.obj
 0002:00008d30       ??_C@_1CI@HBNALCBB@?$AA?$CI?$AA?$CK?$AAm?$AAo?$AAd?$AAe?$AA?5?$AA?$CB?$AA?$DN?$AA?5?$AA_?$AAT?$AA?$CI?$AA?8?$AA?2?$AA0?$AA?8?$AA?$CJ?$AA?$CJ?$AA?$AA@ 004c4d30     LIBCMTD:fopen.obj
 0002:00008d58       ??_C@_1CA@LLJLFCDN@?$AA?$CI?$AAp?$AAf?$AAi?$AAl?$AAe?$AA?5?$AA?$CB?$AA?$DN?$AA?5?$AAN?$AAU?$AAL?$AAL?$AA?$CJ?$AA?$AA@ 004c4d58     LIBCMTD:fopen.obj
 0002:00008d78       ??_C@_1BA@PBGKCCAP@?$AAf?$AAo?$AAp?$AAe?$AAn?$AA_?$AAs?$AA?$AA@ 004c4d78     LIBCMTD:fopen.obj
 0002:00008d88       ??_C@_1FC@FLPGPAOO@?$AAf?$AA?3?$AA?2?$AAd?$AAd?$AA?2?$AAv?$AAc?$AAt?$AAo?$AAo?$AAl?$AAs?$AA?2?$AAc?$AAr?$AAt?$AA?2?$AAc?$AAr?$AAt?$AAw?$AA3?$AA2?$AA?2?$AAs?$AAt?$AAd?$AAi?$AAo?$AA?2?$AAf@ 004c4d88     LIBCMTD:fprintf.obj
 0002:00008ddc       ??_C@_1BA@DNOHIGNM@?$AAf?$AAp?$AAr?$AAi?$AAn?$AAt?$AAf?$AA?$AA@ 004c4ddc     LIBCMTD:fprintf.obj
 0002:00008dec       ??_C@_1CC@MGIEJOME@?$AA?$CI?$AAf?$AAo?$AAr?$AAm?$AAa?$AAt?$AA?5?$AA?$CB?$AA?$DN?$AA?5?$AAN?$AAU?$AAL?$AAL?$AA?$CJ?$AA?$AA@ 004c4dec     LIBCMTD:fprintf.obj
 0002:00008e10       ??_C@_1EO@KDKHJMND@?$AAf?$AA?3?$AA?2?$AAd?$AAd?$AA?2?$AAv?$AAc?$AAt?$AAo?$AAo?$AAl?$AAs?$AA?2?$AAc?$AAr?$AAt?$AA?2?$AAc?$AAr?$AAt?$AAw?$AA3?$AA2?$AA?2?$AAs?$AAt?$AAd?$AAi?$AAo?$AA?2?$AAf@ 004c4e10     LIBCMTD:fread.obj
 0002:00008e60       ??_C@_1BA@CMLCEIGG@?$AAf?$AAr?$AAe?$AAa?$AAd?$AA_?$AAs?$AA?$AA@ 004c4e60     LIBCMTD:fread.obj
 0002:00008e70       ??_C@_1CC@CGFEEBMC@?$AA?$CI?$AAb?$AAu?$AAf?$AAf?$AAe?$AAr?$AA?5?$AA?$CB?$AA?$DN?$AA?5?$AAN?$AAU?$AAL?$AAL?$AA?$CJ?$AA?$AA@ 004c4e70     LIBCMTD:fread.obj
 0002:00008e94       ??_C@_1CA@IDPOGFL@?$AA_?$AAf?$AAr?$AAe?$AAa?$AAd?$AA_?$AAn?$AAo?$AAl?$AAo?$AAc?$AAk?$AA_?$AAs?$AA?$AA@ 004c4e94     LIBCMTD:fread.obj
 0002:00008eb8       ??_C@_1EA@FAMECDND@?$AAn?$AAu?$AAm?$AA?5?$AA?$DM?$AA?$DN?$AA?5?$AA?$CI?$AAS?$AAI?$AAZ?$AAE?$AA_?$AAM?$AAA?$AAX?$AA?5?$AA?1?$AA?5?$AAe?$AAl?$AAe?$AAm?$AAe?$AAn?$AAt?$AAS?$AAi?$AAz?$AAe?$AA?$CJ?$AA?$AA@ 004c4eb8     LIBCMTD:fread.obj
 0002:00008ef8       ??_C@_1LG@DCNDJCHK@?$AA?$CI?$AA?$CC?$AAI?$AAn?$AAc?$AAo?$AAn?$AAs?$AAi?$AAs?$AAt?$AAe?$AAn?$AAt?$AA?5?$AAS?$AAt?$AAr?$AAe?$AAa?$AAm?$AA?5?$AAC?$AAo?$AAu?$AAn?$AAt?$AA?4?$AA?5?$AAF?$AAl?$AAu@ 004c4ef8     LIBCMTD:fread.obj
 0002:00008fb0       ??_C@_1DA@DKEFLDMG@?$AA?$CI?$AA?$CC?$AAb?$AAu?$AAf?$AAf?$AAe?$AAr?$AA?5?$AAt?$AAo?$AAo?$AA?5?$AAs?$AAm?$AAa?$AAl?$AAl?$AA?$CC?$AA?0?$AA?5?$AA0?$AA?$CJ?$AA?$AA@ 004c4fb0     LIBCMTD:fread.obj
 0002:00008fe0       ??_C@_1EO@OOGDMPHD@?$AAf?$AA?3?$AA?2?$AAd?$AAd?$AA?2?$AAv?$AAc?$AAt?$AAo?$AAo?$AAl?$AAs?$AA?2?$AAc?$AAr?$AAt?$AA?2?$AAc?$AAr?$AAt?$AAw?$AA3?$AA2?$AA?2?$AAs?$AAt?$AAd?$AAi?$AAo?$AA?2?$AAf@ 004c4fe0     LIBCMTD:fseek.obj
 0002:00009030       ??_C@_1M@HCCOIONH@?$AAf?$AAs?$AAe?$AAe?$AAk?$AA?$AA@ 004c5030     LIBCMTD:fseek.obj
 0002:00009040       ??_C@_1IO@PMHBOLJK@?$AA?$CI?$AA?$CI?$AAw?$AAh?$AAe?$AAn?$AAc?$AAe?$AA?5?$AA?$DN?$AA?$DN?$AA?5?$AAS?$AAE?$AAE?$AAK?$AA_?$AAS?$AAE?$AAT?$AA?$CJ?$AA?5?$AA?$HM?$AA?$HM?$AA?5?$AA?$CI?$AAw?$AAh?$AAe?$AAn?$AAc?$AAe@ 004c5040     LIBCMTD:fseek.obj
 0002:000090d0       ??_C@_1EO@HNHOEHGA@?$AAf?$AA?3?$AA?2?$AAd?$AAd?$AA?2?$AAv?$AAc?$AAt?$AAo?$AAo?$AAl?$AAs?$AA?2?$AAc?$AAr?$AAt?$AA?2?$AAc?$AAr?$AAt?$AAw?$AA3?$AA2?$AA?2?$AAs?$AAt?$AAd?$AAi?$AAo?$AA?2?$AAf@ 004c50d0     LIBCMTD:ftell.obj
 0002:00009120       ??_C@_1M@CKCKPMNP@?$AAf?$AAt?$AAe?$AAl?$AAl?$AA?$AA@ 004c5120     LIBCMTD:ftell.obj
 0002:0000912c       ??_C@_1BM@EPIDANEK@?$AA_?$AAf?$AAt?$AAe?$AAl?$AAl?$AA_?$AAn?$AAo?$AAl?$AAo?$AAc?$AAk?$AA?$AA@ 004c512c     LIBCMTD:ftell.obj
 0002:00009148       ??_C@_1FA@OFIKMJFM@?$AAf?$AA?3?$AA?2?$AAd?$AAd?$AA?2?$AAv?$AAc?$AAt?$AAo?$AAo?$AAl?$AAs?$AA?2?$AAc?$AAr?$AAt?$AA?2?$AAc?$AAr?$AAt?$AAw?$AA3?$AA2?$AA?2?$AAs?$AAt?$AAd?$AAi?$AAo?$AA?2?$AAf@ 004c5148     LIBCMTD:fwrite.obj
 0002:00009198       ??_C@_1O@KLNKIMAP@?$AAf?$AAw?$AAr?$AAi?$AAt?$AAe?$AA?$AA@ 004c5198     LIBCMTD:fwrite.obj
 0002:000091a8       ??_C@_1BO@JGPKCBCE@?$AA_?$AAf?$AAw?$AAr?$AAi?$AAt?$AAe?$AA_?$AAn?$AAo?$AAl?$AAo?$AAc?$AAk?$AA?$AA@ 004c51a8     LIBCMTD:fwrite.obj
 0002:000091c8       ??_C@_1DC@FHEPNAPF@?$AAn?$AAu?$AAm?$AA?5?$AA?$DM?$AA?$DN?$AA?5?$AA?$CI?$AAS?$AAI?$AAZ?$AAE?$AA_?$AAM?$AAA?$AAX?$AA?5?$AA?1?$AA?5?$AAs?$AAi?$AAz?$AAe?$AA?$CJ?$AA?$AA@ 004c51c8     LIBCMTD:fwrite.obj
 0002:000091fc       ??_C@_1CC@OLIJCKA@?$AA?$CI?$AAs?$AAt?$AAr?$AAi?$AAn?$AAg?$AA?5?$AA?$CB?$AA?$DN?$AA?5?$AAN?$AAU?$AAL?$AAL?$AA?$CJ?$AA?$AA@ 004c51fc     LIBCMTD:gets.obj
 0002:00009220       ??_C@_1EM@HBCLBFO@?$AAf?$AA?3?$AA?2?$AAd?$AAd?$AA?2?$AAv?$AAc?$AAt?$AAo?$AAo?$AAl?$AAs?$AA?2?$AAc?$AAr?$AAt?$AA?2?$AAc?$AAr?$AAt?$AAw?$AA3?$AA2?$AA?2?$AAs?$AAt?$AAd?$AAi?$AAo?$AA?2?$AAg@ 004c5220     LIBCMTD:gets.obj
 0002:0000926c       ??_C@_1BK@EGLIABPC@?$AA_?$AAg?$AAe?$AAt?$AAs?$AA_?$AAh?$AAe?$AAl?$AAp?$AAe?$AAr?$AA?$AA@ 004c526c     LIBCMTD:gets.obj
 0002:00009288       ??_C@_1CC@OOLOCGJA@?$AA?$CI?$AAb?$AAu?$AAf?$AAf?$AAe?$AAr?$AAS?$AAi?$AAz?$AAe?$AA?5?$AA?$DO?$AA?5?$AA0?$AA?$CJ?$AA?$AA@ 004c5288     LIBCMTD:gets.obj
 0002:000092b0       ??_C@_1FA@GMJBBNDK@?$AAf?$AA?3?$AA?2?$AAd?$AAd?$AA?2?$AAv?$AAc?$AAt?$AAo?$AAo?$AAl?$AAs?$AA?2?$AAc?$AAr?$AAt?$AA?2?$AAc?$AAr?$AAt?$AAw?$AA3?$AA2?$AA?2?$AAs?$AAt?$AAd?$AAi?$AAo?$AA?2?$AAp@ 004c52b0     LIBCMTD:printf.obj
 0002:00009300       ??_C@_1O@GKDHFACN@?$AAp?$AAr?$AAi?$AAn?$AAt?$AAf?$AA?$AA@ 004c5300     LIBCMTD:printf.obj
 0002:00009310       ??_C@_1FC@JALKILNE@?$AAf?$AA?3?$AA?2?$AAd?$AAd?$AA?2?$AAv?$AAc?$AAt?$AAo?$AAo?$AAl?$AAs?$AA?2?$AAc?$AAr?$AAt?$AA?2?$AAc?$AAr?$AAt?$AAw?$AA3?$AA2?$AA?2?$AAs?$AAt?$AAd?$AAi?$AAo?$AA?2?$AAs@ 004c5310     LIBCMTD:sprintf.obj
 0002:00009364       ??_C@_1BA@KBJJGFFE@?$AAs?$AAp?$AAr?$AAi?$AAn?$AAt?$AAf?$AA?$AA@ 004c5364     LIBCMTD:sprintf.obj
 0002:00009378       ??_C@_1FE@CKCGICM@?$AAf?$AA?3?$AA?2?$AAd?$AAd?$AA?2?$AAv?$AAc?$AAt?$AAo?$AAo?$AAl?$AAs?$AA?2?$AAc?$AAr?$AAt?$AA?2?$AAc?$AAr?$AAt?$AAw?$AA3?$AA2?$AA?2?$AAs?$AAt?$AAd?$AAi?$AAo?$AA?2?$AAv@ 004c5378     LIBCMTD:vsprintf.obj
 0002:000093cc       ??_C@_1BI@IGILPKD@?$AA_?$AAv?$AAs?$AAp?$AAr?$AAi?$AAn?$AAt?$AAf?$AA_?$AAl?$AA?$AA@ 004c53cc     LIBCMTD:vsprintf.obj
 0002:000093e4       ??_C@_1CE@HMKDJHB@?$AA_?$AAv?$AAs?$AAc?$AAp?$AAr?$AAi?$AAn?$AAt?$AAf?$AA_?$AAh?$AAe?$AAl?$AAp?$AAe?$AAr?$AA?$AA@ 004c53e4     LIBCMTD:vsprintf.obj
 0002:000094a8       ??_C@_0NN@NGPKDKPD@The?5value?5of?5ESP?5was?5not?5properl@ 004c54a8     LIBCMTD:error.obj
 0002:00009588       ??_C@_0BBN@GPMLNJCF@A?5cast?5to?5a?5smaller?5data?5type?5ha@ 004c5588     LIBCMTD:error.obj
 0002:000096a8       ??_C@_0BN@FFOINMNJ@Stack?5memory?5was?5corrupted?6?$AN?$AA@ 004c56a8     LIBCMTD:error.obj
 0002:000096c8       ??_C@_0DG@HKJMLLLP@A?5local?5variable?5was?5used?5before@ 004c56c8     LIBCMTD:error.obj
 0002:00009700       ??_C@_0CM@NGINOKPC@Stack?5memory?5around?5_alloca?5was?5@ 004c5700     LIBCMTD:error.obj
 0002:0000972c       ??_C@_0BO@GNIAFIKK@Unknown?5Runtime?5Check?5Error?6?$AN?$AA@ 004c572c     LIBCMTD:error.obj
 0002:00009750       ??_C@_1GM@OLMCBDMB@?$AAR?$AAu?$AAn?$AAt?$AAi?$AAm?$AAe?$AA?5?$AAC?$AAh?$AAe?$AAc?$AAk?$AA?5?$AAE?$AAr?$AAr?$AAo?$AAr?$AA?4?$AA?6?$AA?$AN?$AA?5?$AAU?$AAn?$AAa?$AAb?$AAl?$AAe?$AA?5?$AAt?$AAo@ 004c5750     LIBCMTD:error.obj
 0002:000097c0       ??_C@_1EA@NFKNIFJP@?$AAR?$AAu?$AAn?$AA?9?$AAT?$AAi?$AAm?$AAe?$AA?5?$AAC?$AAh?$AAe?$AAc?$AAk?$AA?5?$AAF?$AAa?$AAi?$AAl?$AAu?$AAr?$AAe?$AA?5?$AA?$CD?$AA?$CF?$AAd?$AA?5?$AA?9?$AA?5?$AA?$CF?$AAs?$AA?$AA@ 004c57c0     LIBCMTD:error.obj
 0002:00009800       ??_C@_0BB@PFFGGCJP@Unknown?5Filename?$AA@ 004c5800     LIBCMTD:error.obj
 0002:00009814       ??_C@_0BE@GNBOBNCK@Unknown?5Module?5Name?$AA@ 004c5814     LIBCMTD:error.obj
 0002:00009828       ??_C@_0CA@IODNCDPG@Run?9Time?5Check?5Failure?5?$CD?$CFd?5?9?5?$CFs?$AA@ 004c5828     LIBCMTD:error.obj
 0002:00009848       ??_C@_0CG@IAFNJNEE@Stack?5corrupted?5near?5unknown?5var@ 004c5848     LIBCMTD:error.obj
 0002:00009870       ??_C@_05MKKEDADM@?$CF?42X?5?$AA@ 004c5870     LIBCMTD:error.obj
 0002:00009878       ??_C@_1BG@OILDLIOJ@?$AAu?$AAs?$AAe?$AAr?$AA3?$AA2?$AA?4?$AAd?$AAl?$AAl?$AA?$AA@ 004c5878     LIBCMTD:error.obj
 0002:00009890       ??_C@_09FOPFMPEJ@wsprintfA?$AA@ 004c5890     LIBCMTD:error.obj
 0002:000098a0       ??_C@_0EJ@LJKNEOLN@Stack?5area?5around?5_alloca?5memory@ 004c58a0     LIBCMTD:error.obj
 0002:000098ec       ??_C@_08OMAHNMHJ@?6Data?3?5?$DM?$AA@ 004c58ec     LIBCMTD:error.obj
 0002:000098f8       ??_C@_0CK@DKGBICFE@?6Allocation?5number?5within?5this?5f@ 004c58f8     LIBCMTD:error.obj
 0002:00009924       ??_C@_07DFDJCKFN@?6Size?3?5?$AA@ 004c5924     LIBCMTD:error.obj
 0002:0000992c       ??_C@_0N@MHFFIMFG@?6Address?3?50x?$AA@ 004c592c     LIBCMTD:error.obj
 0002:00009940       ??_C@_0EI@CLEPFNGI@Stack?5area?5around?5_alloca?5memory@ 004c5940     LIBCMTD:error.obj
 0002:00009988       ??_C@_0BC@KIBAILCI@?$CFs?$CFs?$CFp?$CFs?$CFld?$CFs?$CFd?$CFs?$AA@ 004c5988     LIBCMTD:error.obj
 0002:0000999c       ??_C@_02LLMPMKNF@?$DO?5?$AA@ 004c599c     LIBCMTD:error.obj
 0002:000099a0       ??_C@_08KJEDNCKC@?$CFs?$CFs?$CFs?$CFs?$AA@ 004c59a0     LIBCMTD:error.obj
 0002:000099ac       ??_C@_0DE@OHJBPMBP@A?5variable?5is?5being?5used?5without@ 004c59ac     LIBCMTD:error.obj
 0002:000099e0       __FPinit                   004c59e0     LIBCMTD:fpinit.obj
 0002:000099e4       ??_C@_1BO@BCOPJGHK@?$AA?$CI?$AA?5?$AAt?$AAp?$AA?5?$AA?$CB?$AA?$DN?$AA?5?$AAN?$AAU?$AAL?$AAL?$AA?5?$AA?$CJ?$AA?$AA@ 004c59e4     LIBCMTD:ftime64.obj
 0002:00009a08       ??_C@_1FA@CGAHEJFN@?$AAf?$AA?3?$AA?2?$AAd?$AAd?$AA?2?$AAv?$AAc?$AAt?$AAo?$AAo?$AAl?$AAs?$AA?2?$AAc?$AAr?$AAt?$AA?2?$AAc?$AAr?$AAt?$AAw?$AA3?$AA2?$AA?2?$AAt?$AAi?$AAm?$AAe?$AA?2?$AAf?$AAt@ 004c5a08     LIBCMTD:ftime64.obj
 0002:00009a58       ??_C@_1BG@OMGGMME@?$AA_?$AAf?$AAt?$AAi?$AAm?$AAe?$AA6?$AA4?$AA_?$AAs?$AA?$AA@ 004c5a58     LIBCMTD:ftime64.obj
 0002:00009a70       ??_C@_1DC@CMKCHHFC@?$AA_?$AAg?$AAe?$AAt?$AA_?$AAt?$AAi?$AAm?$AAe?$AAz?$AAo?$AAn?$AAe?$AA?$CI?$AA?$CG?$AAt?$AAi?$AAm?$AAe?$AAz?$AAo?$AAn?$AAe?$AA?$CJ?$AA?$AA@ 004c5a70     LIBCMTD:ftime64.obj
 0002:00009aa8       ??_C@_1FA@HCAJDIPN@?$AAf?$AA?3?$AA?2?$AAd?$AAd?$AA?2?$AAv?$AAc?$AAt?$AAo?$AAo?$AAl?$AAs?$AA?2?$AAc?$AAr?$AAt?$AA?2?$AAc?$AAr?$AAt?$AAw?$AA3?$AA2?$AA?2?$AAs?$AAt?$AAd?$AAi?$AAo?$AA?2?$AAf@ 004c5aa8     LIBCMTD:fscanf.obj
 0002:00009af8       ??_C@_1BG@NDFLNKCO@?$AAv?$AAf?$AAs?$AAc?$AAa?$AAn?$AAf?$AA_?$AAf?$AAn?$AA?$AA@ 004c5af8     LIBCMTD:fscanf.obj
 0002:00009b10       ??_C@_1BK@MGMFAEKH@?$AAk?$AAe?$AAr?$AAn?$AAe?$AAl?$AA3?$AA2?$AA?4?$AAd?$AAl?$AAl?$AA?$AA@ 004c5b10     LIBCMTD:winapisupp.obj
 0002:00009b2c       ??_C@_08KNHFBNJ@FlsAlloc?$AA@ 004c5b2c     LIBCMTD:winapisupp.obj
 0002:00009b38       ??_C@_07PEJMOBNF@FlsFree?$AA@ 004c5b38     LIBCMTD:winapisupp.obj
 0002:00009b40       ??_C@_0M@GDNOONDI@FlsGetValue?$AA@ 004c5b40     LIBCMTD:winapisupp.obj
 0002:00009b4c       ??_C@_0M@JCPCPOEF@FlsSetValue?$AA@ 004c5b4c     LIBCMTD:winapisupp.obj
 0002:00009b58       ??_C@_0BM@HCFOFFN@InitializeCriticalSectionEx?$AA@ 004c5b58     LIBCMTD:winapisupp.obj
 0002:00009b74       ??_C@_0P@DLHPPCNH@CreateEventExW?$AA@ 004c5b74     LIBCMTD:winapisupp.obj
 0002:00009b84       ??_C@_0BD@KIEEOEEH@CreateSemaphoreExW?$AA@ 004c5b84     LIBCMTD:winapisupp.obj
 0002:00009b98       ??_C@_0BI@BKLFFAPO@SetThreadStackGuarantee?$AA@ 004c5b98     LIBCMTD:winapisupp.obj
 0002:00009bb0       ??_C@_0BG@OGFAJCKC@CreateThreadpoolTimer?$AA@ 004c5bb0     LIBCMTD:winapisupp.obj
 0002:00009bc8       ??_C@_0BD@LPLEMMDI@SetThreadpoolTimer?$AA@ 004c5bc8     LIBCMTD:winapisupp.obj
 0002:00009bdc       ??_C@_0CA@FMNJENH@WaitForThreadpoolTimerCallbacks?$AA@ 004c5bdc     LIBCMTD:winapisupp.obj
 0002:00009bfc       ??_C@_0BF@DCFCCNOC@CloseThreadpoolTimer?$AA@ 004c5bfc     LIBCMTD:winapisupp.obj
 0002:00009c14       ??_C@_0BF@FLABGKKM@CreateThreadpoolWait?$AA@ 004c5c14     LIBCMTD:winapisupp.obj
 0002:00009c2c       ??_C@_0BC@MGCOHNA@SetThreadpoolWait?$AA@ 004c5c2c     LIBCMTD:winapisupp.obj
 0002:00009c40       ??_C@_0BE@OCIOMIMP@CloseThreadpoolWait?$AA@ 004c5c40     LIBCMTD:winapisupp.obj
 0002:00009c54       ??_C@_0BJ@LKGHFHBO@FlushProcessWriteBuffers?$AA@ 004c5c54     LIBCMTD:winapisupp.obj
 0002:00009c70       ??_C@_0BP@KALKKPMO@FreeLibraryWhenCallbackReturns?$AA@ 004c5c70     LIBCMTD:winapisupp.obj
 0002:00009c90       ??_C@_0BK@DFNBACLA@GetCurrentProcessorNumber?$AA@ 004c5c90     LIBCMTD:winapisupp.obj
 0002:00009cac       ??_C@_0BP@KHGALBC@GetLogicalProcessorInformation?$AA@ 004c5cac     LIBCMTD:winapisupp.obj
 0002:00009ccc       ??_C@_0BE@FKKLLFLM@CreateSymbolicLinkW?$AA@ 004c5ccc     LIBCMTD:winapisupp.obj
 0002:00009ce0       ??_C@_0BJ@OHNKDLIJ@SetDefaultDllDirectories?$AA@ 004c5ce0     LIBCMTD:winapisupp.obj
 0002:00009cfc       ??_C@_0BE@LJANKFHF@EnumSystemLocalesEx?$AA@ 004c5cfc     LIBCMTD:winapisupp.obj
 0002:00009d10       ??_C@_0BA@IHGNDAEB@CompareStringEx?$AA@ 004c5d10     LIBCMTD:winapisupp.obj
 0002:00009d20       ??_C@_0BA@EPCJIIPD@GetDateFormatEx?$AA@ 004c5d20     LIBCMTD:winapisupp.obj
 0002:00009d30       ??_C@_0BA@ONOKGCMP@GetLocaleInfoEx?$AA@ 004c5d30     LIBCMTD:winapisupp.obj
 0002:00009d40       ??_C@_0BA@CIJJKCJJ@GetTimeFormatEx?$AA@ 004c5d40     LIBCMTD:winapisupp.obj
 0002:00009d50       ??_C@_0BJ@PBCCBIPI@GetUserDefaultLocaleName?$AA@ 004c5d50     LIBCMTD:winapisupp.obj
 0002:00009d6c       ??_C@_0BC@CELBKLLA@IsValidLocaleName?$AA@ 004c5d6c     LIBCMTD:winapisupp.obj
 0002:00009d80       ??_C@_0O@KKBNKAPF@LCMapStringEx?$AA@ 004c5d80     LIBCMTD:winapisupp.obj
 0002:00009d90       ??_C@_0BE@JOGNEJCI@GetCurrentPackageId?$AA@ 004c5d90     LIBCMTD:winapisupp.obj
 0002:00009da4       ??_C@_0P@CDHHOHKP@GetTickCount64?$AA@ 004c5da4     LIBCMTD:winapisupp.obj
 0002:00009db4       ??_C@_0BO@KPCLFDJJ@GetFileInformationByHandleExW?$AA@ 004c5db4     LIBCMTD:winapisupp.obj
 0002:00009dd4       ??_C@_0BM@MHIDLABK@SetFileInformationByHandleW?$AA@ 004c5dd4     LIBCMTD:winapisupp.obj
 0002:00009df0       ??_C@_1BJK@FEBNHLFF@?$AA?$CI?$AA?$CI?$AAp?$AAt?$AAl?$AAo?$AAc?$AAi?$AA?9?$AA?$DO?$AAl?$AAc?$AA_?$AAc?$AAa?$AAt?$AAe?$AAg?$AAo?$AAr?$AAy?$AA?$FL?$AAc?$AAa?$AAt?$AAe?$AAg?$AAo?$AAr?$AAy?$AA?$FN?$AA?4@ 004c5df0     LIBCMTD:localref.obj
 0002:00009f90       ??_C@_1FC@HINIIGNO@?$AAf?$AA?3?$AA?2?$AAd?$AAd?$AA?2?$AAv?$AAc?$AAt?$AAo?$AAo?$AAl?$AAs?$AA?2?$AAc?$AAr?$AAt?$AA?2?$AAc?$AAr?$AAt?$AAw?$AA3?$AA2?$AA?2?$AAm?$AAi?$AAs?$AAc?$AA?2?$AAl?$AAo@ 004c5f90     LIBCMTD:localref.obj
 0002:00009ff4       ??_C@_1M@HPNHIDJI@?$AAj?$AAa?$AA?9?$AAJ?$AAP?$AA?$AA@ 004c5ff4     LIBCMTD:mbctype.obj
 0002:0000a000       ??_C@_1M@BIBDDEMK@?$AAz?$AAh?$AA?9?$AAC?$AAN?$AA?$AA@ 004c6000     LIBCMTD:mbctype.obj
 0002:0000a00c       ??_C@_1M@JLOOOEGK@?$AAk?$AAo?$AA?9?$AAK?$AAR?$AA?$AA@ 004c600c     LIBCMTD:mbctype.obj
 0002:0000a018       ??_C@_1M@CLNBBOPM@?$AAz?$AAh?$AA?9?$AAT?$AAW?$AA?$AA@ 004c6018     LIBCMTD:mbctype.obj
 0002:0000a024       ??_C@_0CM@BEDCPGGG@f?3?2dd?2vctools?2crt?2crtw32?2mbstrin@ 004c6024     LIBCMTD:mbctype.obj
 0002:0000a050       ??_C@_1CI@JELMFMDH@?$AAc?$AA?5?$AA?$DO?$AA?$DN?$AA?5?$AA?9?$AA1?$AA?5?$AA?$CG?$AA?$CG?$AA?5?$AAc?$AA?5?$AA?$DM?$AA?$DN?$AA?5?$AA2?$AA5?$AA5?$AA?$AA@ 004c6050     LIBCMTD:isctype.obj
 0002:0000a078       ??_C@_1FG@IBFIOCOE@?$AAf?$AA?3?$AA?2?$AAd?$AAd?$AA?2?$AAv?$AAc?$AAt?$AAo?$AAo?$AAl?$AAs?$AA?2?$AAc?$AAr?$AAt?$AA?2?$AAc?$AAr?$AAt?$AAw?$AA3?$AA2?$AA?2?$AAc?$AAo?$AAn?$AAv?$AAe?$AAr?$AAt@ 004c6078     LIBCMTD:isctype.obj
 0002:0000a0d0       ??_C@_1FE@KNPCCODH@?$AA?$CI?$AA?$CC?$AAC?$AAo?$AAr?$AAr?$AAu?$AAp?$AAt?$AAe?$AAd?$AA?5?$AAp?$AAo?$AAi?$AAn?$AAt?$AAe?$AAr?$AA?5?$AAp?$AAa?$AAs?$AAs?$AAe?$AAd?$AA?5?$AAt?$AAo?$AA?5?$AA_?$AAf@ 004c60d0     LIBCMTD:a_map.obj
 0002:0000a128       ??_C@_1EI@DKDOCKPJ@?$AAf?$AA?3?$AA?2?$AAd?$AAd?$AA?2?$AAv?$AAc?$AAt?$AAo?$AAo?$AAl?$AAs?$AA?2?$AAc?$AAr?$AAt?$AA?2?$AAc?$AAr?$AAt?$AAw?$AA3?$AA2?$AA?2?$AAh?$AA?2?$AAm?$AAa?$AAl?$AAl?$AAo@ 004c6128     LIBCMTD:a_map.obj
 0002:0000a170       ??_C@_0CM@KPPOKOAI@f?3?2dd?2vctools?2crt?2crtw32?2startup@ 004c6170     LIBCMTD:tidtable.obj
 0002:0000a19c       ??_C@_03KOEHGMDN@Sun?$AA@  004c619c     LIBCMTD:nlsdata.obj
 0002:0000a1a0       ??_C@_03PDAGKDH@Mon?$AA@   004c61a0     LIBCMTD:nlsdata.obj
 0002:0000a1a4       ??_C@_03NAGEINEP@Tue?$AA@  004c61a4     LIBCMTD:nlsdata.obj
 0002:0000a1a8       ??_C@_03MHOMLAJA@Wed?$AA@  004c61a8     LIBCMTD:nlsdata.obj
 0002:0000a1ac       ??_C@_03IOFIKPDN@Thu?$AA@  004c61ac     LIBCMTD:nlsdata.obj
 0002:0000a1b0       ??_C@_03IDIOELNC@Fri?$AA@  004c61b0     LIBCMTD:nlsdata.obj
 0002:0000a1b4       ??_C@_03FEFJNEK@Sat?$AA@   004c61b4     LIBCMTD:nlsdata.obj
 0002:0000a1b8       ??_C@_06OOPIFAJ@Sunday?$AA@ 004c61b8     LIBCMTD:nlsdata.obj
 0002:0000a1c0       ??_C@_06JLEDEDGH@Monday?$AA@ 004c61c0     LIBCMTD:nlsdata.obj
 0002:0000a1c8       ??_C@_07BAAGCFCM@Tuesday?$AA@ 004c61c8     LIBCMTD:nlsdata.obj
 0002:0000a1d0       ??_C@_09DLIGFAKA@Wednesday?$AA@ 004c61d0     LIBCMTD:nlsdata.obj
 0002:0000a1dc       ??_C@_08HACCIKIA@Thursday?$AA@ 004c61dc     LIBCMTD:nlsdata.obj
 0002:0000a1e8       ??_C@_06JECMNKMI@Friday?$AA@ 004c61e8     LIBCMTD:nlsdata.obj
 0002:0000a1f0       ??_C@_08INBOOONO@Saturday?$AA@ 004c61f0     LIBCMTD:nlsdata.obj
 0002:0000a1fc       ??_C@_03JIHJHPIE@Jan?$AA@  004c61fc     LIBCMTD:nlsdata.obj
 0002:0000a200       ??_C@_03HJBDCHOM@Feb?$AA@  004c6200     LIBCMTD:nlsdata.obj
 0002:0000a204       ??_C@_03ODNJBKGA@Mar?$AA@  004c6204     LIBCMTD:nlsdata.obj
 0002:0000a208       ??_C@_03LEOLGMJP@Apr?$AA@  004c6208     LIBCMTD:nlsdata.obj
 0002:0000a20c       ??_C@_03CNMDKL@May?$AA@    004c620c     LIBCMTD:nlsdata.obj
 0002:0000a210       ??_C@_03IDFGHECI@Jun?$AA@  004c6210     LIBCMTD:nlsdata.obj
 0002:0000a214       ??_C@_03LBGABGKK@Jul?$AA@  004c6214     LIBCMTD:nlsdata.obj
 0002:0000a218       ??_C@_03IFJFEIGA@Aug?$AA@  004c6218     LIBCMTD:nlsdata.obj
 0002:0000a21c       ??_C@_03GGCAPAJC@Sep?$AA@  004c621c     LIBCMTD:nlsdata.obj
 0002:0000a220       ??_C@_03BMAOKBAD@Oct?$AA@  004c6220     LIBCMTD:nlsdata.obj
 0002:0000a224       ??_C@_03JPJOFNIA@Nov?$AA@  004c6224     LIBCMTD:nlsdata.obj
 0002:0000a228       ??_C@_03MKABNOCG@Dec?$AA@  004c6228     LIBCMTD:nlsdata.obj
 0002:0000a22c       ??_C@_07CGJPFGJA@January?$AA@ 004c622c     LIBCMTD:nlsdata.obj
 0002:0000a234       ??_C@_08GNJGEPFN@February?$AA@ 004c6234     LIBCMTD:nlsdata.obj
 0002:0000a240       ??_C@_05HPCKOFNC@March?$AA@ 004c6240     LIBCMTD:nlsdata.obj
 0002:0000a248       ??_C@_05DMJDNLEJ@April?$AA@ 004c6248     LIBCMTD:nlsdata.obj
 0002:0000a250       ??_C@_04CNLMGBGM@June?$AA@ 004c6250     LIBCMTD:nlsdata.obj
 0002:0000a258       ??_C@_04MIEPOIFP@July?$AA@ 004c6258     LIBCMTD:nlsdata.obj
 0002:0000a260       ??_C@_06LBBHFDDG@August?$AA@ 004c6260     LIBCMTD:nlsdata.obj
 0002:0000a268       ??_C@_09BHHEALKD@September?$AA@ 004c6268     LIBCMTD:nlsdata.obj
 0002:0000a274       ??_C@_07JJNFCEND@October?$AA@ 004c6274     LIBCMTD:nlsdata.obj
 0002:0000a27c       ??_C@_08HCHEGEOA@November?$AA@ 004c627c     LIBCMTD:nlsdata.obj
 0002:0000a288       ??_C@_08EDHMEBNP@December?$AA@ 004c6288     LIBCMTD:nlsdata.obj
 0002:0000a294       ??_C@_02DEDBPAFC@AM?$AA@   004c6294     LIBCMTD:nlsdata.obj
 0002:0000a298       ??_C@_02CJNFDJBF@PM?$AA@   004c6298     LIBCMTD:nlsdata.obj
 0002:0000a29c       ??_C@_08BPBNCDIB@MM?1dd?1yy?$AA@ 004c629c     LIBCMTD:nlsdata.obj
 0002:0000a2a8       ??_C@_0BE@CKGJFCPC@dddd?0?5MMMM?5dd?0?5yyyy?$AA@ 004c62a8     LIBCMTD:nlsdata.obj
 0002:0000a2bc       ??_C@_08JCCMCCIL@HH?3mm?3ss?$AA@ 004c62bc     LIBCMTD:nlsdata.obj
 0002:0000a2c8       ??_C@_17MBGCMIPB@?$AAS?$AAu?$AAn?$AA?$AA@ 004c62c8     LIBCMTD:nlsdata.obj
 0002:0000a2d0       ??_C@_17KBOMKBF@?$AAM?$AAo?$AAn?$AA?$AA@ 004c62d0     LIBCMTD:nlsdata.obj
 0002:0000a2d8       ??_C@_17BMKGEGOJ@?$AAT?$AAu?$AAe?$AA?$AA@ 004c62d8     LIBCMTD:nlsdata.obj
 0002:0000a2e0       ??_C@_17CJEDCEPE@?$AAW?$AAe?$AAd?$AA?$AA@ 004c62e0     LIBCMTD:nlsdata.obj
 0002:0000a2e8       ??_C@_17PDPHAADD@?$AAT?$AAh?$AAu?$AA?$AA@ 004c62e8     LIBCMTD:nlsdata.obj
 0002:0000a2f0       ??_C@_17HFOLPPLP@?$AAF?$AAr?$AAi?$AA?$AA@ 004c62f0     LIBCMTD:nlsdata.obj
 0002:0000a2f8       ??_C@_17GGIBDPIH@?$AAS?$AAa?$AAt?$AA?$AA@ 004c62f8     LIBCMTD:nlsdata.obj
 0002:0000a300       ??_C@_1O@IHNHDHPB@?$AAS?$AAu?$AAn?$AAd?$AAa?$AAy?$AA?$AA@ 004c6300     LIBCMTD:nlsdata.obj
 0002:0000a310       ??_C@_1O@MMNBFLIA@?$AAM?$AAo?$AAn?$AAd?$AAa?$AAy?$AA?$AA@ 004c6310     LIBCMTD:nlsdata.obj
 0002:0000a320       ??_C@_1BA@ENFBFFEK@?$AAT?$AAu?$AAe?$AAs?$AAd?$AAa?$AAy?$AA?$AA@ 004c6320     LIBCMTD:nlsdata.obj
 0002:0000a330       ??_C@_1BE@EBOGMDOH@?$AAW?$AAe?$AAd?$AAn?$AAe?$AAs?$AAd?$AAa?$AAy?$AA?$AA@ 004c6330     LIBCMTD:nlsdata.obj
 0002:0000a344       ??_C@_1BC@HHMNLIHE@?$AAT?$AAh?$AAu?$AAr?$AAs?$AAd?$AAa?$AAy?$AA?$AA@ 004c6344     LIBCMTD:nlsdata.obj
 0002:0000a358       ??_C@_1O@PDICJHAG@?$AAF?$AAr?$AAi?$AAd?$AAa?$AAy?$AA?$AA@ 004c6358     LIBCMTD:nlsdata.obj
 0002:0000a368       ??_C@_1BC@ENMNNPAJ@?$AAS?$AAa?$AAt?$AAu?$AAr?$AAd?$AAa?$AAy?$AA?$AA@ 004c6368     LIBCMTD:nlsdata.obj
 0002:0000a37c       ??_C@_17DKNBKCHM@?$AAJ?$AAa?$AAn?$AA?$AA@ 004c637c     LIBCMTD:nlsdata.obj
 0002:0000a384       ??_C@_17LMDJEKJN@?$AAF?$AAe?$AAb?$AA?$AA@ 004c6384     LIBCMTD:nlsdata.obj
 0002:0000a38c       ??_C@_17CKNLEDEC@?$AAM?$AAa?$AAr?$AA?$AA@ 004c638c     LIBCMTD:nlsdata.obj
 0002:0000a394       ??_C@_17LFPOIHDD@?$AAA?$AAp?$AAr?$AA?$AA@ 004c6394     LIBCMTD:nlsdata.obj
 0002:0000a39c       ??_C@_17PNNKMEED@?$AAM?$AAa?$AAy?$AA?$AA@ 004c639c     LIBCMTD:nlsdata.obj
 0002:0000a3a4       ??_C@_17KCJGOCPB@?$AAJ?$AAu?$AAn?$AA?$AA@ 004c63a4     LIBCMTD:nlsdata.obj
 0002:0000a3ac       ??_C@_17IJPCKHK@?$AAJ?$AAu?$AAl?$AA?$AA@ 004c63ac     LIBCMTD:nlsdata.obj
 0002:0000a3b4       ??_C@_17ICPELBCN@?$AAA?$AAu?$AAg?$AA?$AA@ 004c63b4     LIBCMTD:nlsdata.obj
 0002:0000a3bc       ??_C@_17HCHCOKMG@?$AAS?$AAe?$AAp?$AA?$AA@ 004c63bc     LIBCMTD:nlsdata.obj
 0002:0000a3c4       ??_C@_17FNLKOI@?$AAO?$AAc?$AAt?$AA?$AA@ 004c63c4     LIBCMTD:nlsdata.obj
 0002:0000a3cc       ??_C@_17BBDMLCIG@?$AAN?$AAo?$AAv?$AA?$AA@ 004c63cc     LIBCMTD:nlsdata.obj
 0002:0000a3d4       ??_C@_17EGKACKIF@?$AAD?$AAe?$AAc?$AA?$AA@ 004c63d4     LIBCMTD:nlsdata.obj
 0002:0000a3dc       ??_C@_1BA@EFMEIEBA@?$AAJ?$AAa?$AAn?$AAu?$AAa?$AAr?$AAy?$AA?$AA@ 004c63dc     LIBCMTD:nlsdata.obj
 0002:0000a3ec       ??_C@_1BC@JGDDFFAM@?$AAF?$AAe?$AAb?$AAr?$AAu?$AAa?$AAr?$AAy?$AA?$AA@ 004c63ec     LIBCMTD:nlsdata.obj
 0002:0000a400       ??_C@_1M@IKEENEDF@?$AAM?$AAa?$AAr?$AAc?$AAh?$AA?$AA@ 004c6400     LIBCMTD:nlsdata.obj
 0002:0000a40c       ??_C@_1M@GJNLMHFD@?$AAA?$AAp?$AAr?$AAi?$AAl?$AA?$AA@ 004c640c     LIBCMTD:nlsdata.obj
 0002:0000a418       ??_C@_19EPFLPGAP@?$AAJ?$AAu?$AAn?$AAe?$AA?$AA@ 004c6418     LIBCMTD:nlsdata.obj
 0002:0000a424       ??_C@_19BIFMLPCD@?$AAJ?$AAu?$AAl?$AAy?$AA?$AA@ 004c6424     LIBCMTD:nlsdata.obj
 0002:0000a430       ??_C@_1O@PAHLKOAC@?$AAA?$AAu?$AAg?$AAu?$AAs?$AAt?$AA?$AA@ 004c6430     LIBCMTD:nlsdata.obj
 0002:0000a440       ??_C@_1BE@DKAAMBJL@?$AAS?$AAe?$AAp?$AAt?$AAe?$AAm?$AAb?$AAe?$AAr?$AA?$AA@ 004c6440     LIBCMTD:nlsdata.obj
 0002:0000a454       ??_C@_1BA@EPANDLNG@?$AAO?$AAc?$AAt?$AAo?$AAb?$AAe?$AAr?$AA?$AA@ 004c6454     LIBCMTD:nlsdata.obj
 0002:0000a464       ??_C@_1BC@BGLIFPF@?$AAN?$AAo?$AAv?$AAe?$AAm?$AAb?$AAe?$AAr?$AA?$AA@ 004c6464     LIBCMTD:nlsdata.obj
 0002:0000a478       ??_C@_1BC@FEMKIFH@?$AAD?$AAe?$AAc?$AAe?$AAm?$AAb?$AAe?$AAr?$AA?$AA@ 004c6478     LIBCMTD:nlsdata.obj
 0002:0000a48c       ??_C@_15ODEHAHHF@?$AAA?$AAM?$AA?$AA@ 004c648c     LIBCMTD:nlsdata.obj
 0002:0000a494       ??_C@_15CLMNNGEL@?$AAP?$AAM?$AA?$AA@ 004c6494     LIBCMTD:nlsdata.obj
 0002:0000a49c       ??_C@_1BC@IEBCMHCM@?$AAM?$AAM?$AA?1?$AAd?$AAd?$AA?1?$AAy?$AAy?$AA?$AA@ 004c649c     LIBCMTD:nlsdata.obj
 0002:0000a4b0       ??_C@_1CI@KNAKOEBC@?$AAd?$AAd?$AAd?$AAd?$AA?0?$AA?5?$AAM?$AAM?$AAM?$AAM?$AA?5?$AAd?$AAd?$AA?0?$AA?5?$AAy?$AAy?$AAy?$AAy?$AA?$AA@ 004c64b0     LIBCMTD:nlsdata.obj
 0002:0000a4d8       ??_C@_1BC@GDGBMEMK@?$AAH?$AAH?$AA?3?$AAm?$AAm?$AA?3?$AAs?$AAs?$AA?$AA@ 004c64d8     LIBCMTD:nlsdata.obj
 0002:0000a4ec       ??_C@_1M@BMHNFIME@?$AAe?$AAn?$AA?9?$AAU?$AAS?$AA?$AA@ 004c64ec     LIBCMTD:nlsdata.obj
 0002:0000a4f8       ___lc_category             004c64f8     LIBCMTD:wsetloca.obj
 0002:0000a540       ??_C@_1O@GIFLHMA@?$AAL?$AAC?$AA_?$AAA?$AAL?$AAL?$AA?$AA@ 004c6540     LIBCMTD:wsetloca.obj
 0002:0000a550       ??_C@_1BG@PPOMIBNJ@?$AAL?$AAC?$AA_?$AAC?$AAO?$AAL?$AAL?$AAA?$AAT?$AAE?$AA?$AA@ 004c6550     LIBCMTD:wsetloca.obj
 0002:0000a568       ??_C@_1BC@FFJGAPJM@?$AAL?$AAC?$AA_?$AAC?$AAT?$AAY?$AAP?$AAE?$AA?$AA@ 004c6568     LIBCMTD:wsetloca.obj
 0002:0000a57c       ??_C@_1BI@PCKFNJFB@?$AAL?$AAC?$AA_?$AAM?$AAO?$AAN?$AAE?$AAT?$AAA?$AAR?$AAY?$AA?$AA@ 004c657c     LIBCMTD:wsetloca.obj
 0002:0000a594       ??_C@_1BG@ENIEDKID@?$AAL?$AAC?$AA_?$AAN?$AAU?$AAM?$AAE?$AAR?$AAI?$AAC?$AA?$AA@ 004c6594     LIBCMTD:wsetloca.obj
 0002:0000a5ac       ??_C@_1BA@HAAOMIIG@?$AAL?$AAC?$AA_?$AAT?$AAI?$AAM?$AAE?$AA?$AA@ 004c65ac     LIBCMTD:wsetloca.obj
 0002:0000a640       ??_C@_1GA@LDEGDKD@?$AA?$CI?$AA?$CC?$AAI?$AAn?$AAv?$AAa?$AAl?$AAi?$AAd?$AA?5?$AAp?$AAa?$AAr?$AAa?$AAm?$AAe?$AAt?$AAe?$AAr?$AA?5?$AAf?$AAo?$AAr?$AA?5?$AA_?$AAc?$AAo?$AAn?$AAf?$AAi?$AAg?$AAt@ 004c6640     LIBCMTD:wsetloca.obj
 0002:0000a6a0       ??_C@_1FC@GFIKBLFA@?$AAf?$AA?3?$AA?2?$AAd?$AAd?$AA?2?$AAv?$AAc?$AAt?$AAo?$AAo?$AAl?$AAs?$AA?2?$AAc?$AAr?$AAt?$AA?2?$AAc?$AAr?$AAt?$AAw?$AA3?$AA2?$AA?2?$AAm?$AAi?$AAs?$AAc?$AA?2?$AAw?$AAs@ 004c66a0     LIBCMTD:wsetloca.obj
 0002:0000a6f4       ??_C@_1CI@FGIONOJM@?$AA_?$AAc?$AAo?$AAn?$AAf?$AAi?$AAg?$AAt?$AAh?$AAr?$AAe?$AAa?$AAd?$AAl?$AAo?$AAc?$AAa?$AAl?$AAe?$AA?$AA@ 004c66f4     LIBCMTD:wsetloca.obj
 0002:0000a71c       ??_C@_0CJ@MIILEBP@f?3?2dd?2vctools?2crt?2crtw32?2misc?2ws@ 004c671c     LIBCMTD:wsetloca.obj
 0002:0000a748       ??_C@_1FG@OHLFEKMC@?$AAL?$AAC?$AA_?$AAM?$AAI?$AAN?$AA?5?$AA?$DM?$AA?$DN?$AA?5?$AA_?$AAc?$AAa?$AAt?$AAe?$AAg?$AAo?$AAr?$AAy?$AA?5?$AA?$CG?$AA?$CG?$AA?5?$AA_?$AAc?$AAa?$AAt?$AAe?$AAg?$AAo?$AAr?$AAy@ 004c6748     LIBCMTD:wsetloca.obj
 0002:0000a7a0       ??_C@_1BI@KJNPAEHL@?$AA_?$AAw?$AAs?$AAe?$AAt?$AAl?$AAo?$AAc?$AAa?$AAl?$AAe?$AA?$AA@ 004c67a0     LIBCMTD:wsetloca.obj
 0002:0000a7b8       ??_C@_15NBPDDFIP@?$AA?$DN?$AA?$DL?$AA?$AA@ 004c67b8     LIBCMTD:wsetloca.obj
 0002:0000a7c0       ??_C@_13PJJBFPED@?$AA?$DL?$AA?$AA@ 004c67c0     LIBCMTD:wsetloca.obj
 0002:0000a7c4       ??_C@_1CG@DKJCBBPP@?$AA_?$AAw?$AAs?$AAe?$AAt?$AAl?$AAo?$AAc?$AAa?$AAl?$AAe?$AA_?$AAn?$AAo?$AAl?$AAo?$AAc?$AAk?$AA?$AA@ 004c67c4     LIBCMTD:wsetloca.obj
 0002:0000a7f0       ??_C@_1IA@DGCOPCLP@?$AAw?$AAc?$AAs?$AAn?$AAc?$AAp?$AAy?$AA_?$AAs?$AA?$CI?$AAl?$AAc?$AAt?$AAe?$AAm?$AAp?$AA?0?$AA?5?$AA?$CI?$AAs?$AAi?$AAz?$AAe?$AAo?$AAf?$AA?$CI?$AAl?$AAc?$AAt?$AAe?$AAm?$AAp@ 004c67f0     LIBCMTD:wsetloca.obj
 0002:0000a870       ??_C@_1CI@ODOPEMNJ@?$AA_?$AAw?$AAs?$AAe?$AAt?$AAl?$AAo?$AAc?$AAa?$AAl?$AAe?$AA_?$AAs?$AAe?$AAt?$AA_?$AAc?$AAa?$AAt?$AA?$AA@ 004c6870     LIBCMTD:wsetloca.obj
 0002:0000a898       ??_C@_1EM@MHOCNIAA@?$AAw?$AAc?$AAs?$AAc?$AAp?$AAy?$AA_?$AAs?$AA?$CI?$AAp?$AAc?$AAh?$AA_?$AAc?$AAa?$AAt?$AA_?$AAl?$AAo?$AAc?$AAa?$AAl?$AAe?$AA?0?$AA?5?$AAc?$AAc?$AAh?$AA?0?$AA?5?$AAl?$AAc@ 004c6898     LIBCMTD:wsetloca.obj
 0002:0000a8e4       ??_C@_13NMPKAAJP@?$AA?$DN?$AA?$AA@ 004c68e4     LIBCMTD:wsetloca.obj
 0002:0000a8e8       ??_C@_1CI@LKOPFFBD@?$AA_?$AAw?$AAs?$AAe?$AAt?$AAl?$AAo?$AAc?$AAa?$AAl?$AAe?$AA_?$AAg?$AAe?$AAt?$AA_?$AAa?$AAl?$AAl?$AA?$AA@ 004c68e8     LIBCMTD:wsetloca.obj
 0002:0000a910       ??_C@_1DC@HMLJMODP@?$AAw?$AAc?$AAs?$AAc?$AAa?$AAt?$AA_?$AAs?$AA?$CI?$AAp?$AAc?$AAh?$AA?0?$AA?5?$AAc?$AAc?$AAh?$AA?0?$AA?5?$AAL?$AA?$CC?$AA?$DL?$AA?$CC?$AA?$CJ?$AA?$AA@ 004c6910     LIBCMTD:wsetloca.obj
 0002:0000a944       ??_C@_1BM@OIIBLEFG@?$AA_?$AAe?$AAx?$AAp?$AAa?$AAn?$AAd?$AAl?$AAo?$AAc?$AAa?$AAl?$AAe?$AA?$AA@ 004c6944     LIBCMTD:wsetloca.obj
 0002:0000a960       ??_C@_1BFG@FHLOBJGM@?$AAw?$AAc?$AAs?$AAn?$AAc?$AAp?$AAy?$AA_?$AAs?$AA?$CI?$AAl?$AAo?$AAc?$AAa?$AAl?$AAe?$AAN?$AAa?$AAm?$AAe?$AAO?$AAu?$AAt?$AAp?$AAu?$AAt?$AA?0?$AA?5?$AAl?$AAo?$AAc?$AAa@ 004c6960     LIBCMTD:wsetloca.obj
 0002:0000aab8       ??_C@_1EI@OCINLCHN@?$AAw?$AAc?$AAs?$AAc?$AAp?$AAy?$AA_?$AAs?$AA?$CI?$AAo?$AAu?$AAt?$AAp?$AAu?$AAt?$AA?0?$AA?5?$AAs?$AAi?$AAz?$AAe?$AAI?$AAn?$AAC?$AAh?$AAa?$AAr?$AAs?$AA?0?$AA?5?$AAL?$AA?$CC@ 004c6ab8     LIBCMTD:wsetloca.obj
 0002:0000ab00       ??_C@_13FHBKNHDA@?$AAC?$AA?$AA@ 004c6b00     LIBCMTD:wsetloca.obj
 0002:0000ab04       ??_C@_11LOCGONAA@?$AA?$AA@ 004c6b04     LIBCMTD:wsetloca.obj
 0002:0000ab08       ??_C@_1MO@NNCNEOAP@?$AAw?$AAc?$AAs?$AAn?$AAc?$AAp?$AAy?$AA_?$AAs?$AA?$CI?$AAl?$AAo?$AAc?$AAa?$AAl?$AAe?$AAN?$AAa?$AAm?$AAe?$AAO?$AAu?$AAt?$AAp?$AAu?$AAt?$AA?0?$AA?5?$AAl?$AAo?$AAc?$AAa@ 004c6b08     LIBCMTD:wsetloca.obj
 0002:0000abd8       ??_C@_1IG@MKDIEKFD@?$AAw?$AAc?$AAs?$AAn?$AAc?$AAp?$AAy?$AA_?$AAs?$AA?$CI?$AAc?$AAa?$AAc?$AAh?$AAe?$AAo?$AAu?$AAt?$AA?0?$AA?5?$AAc?$AAa?$AAc?$AAh?$AAe?$AAo?$AAu?$AAt?$AAL?$AAe?$AAn?$AA?0@ 004c6bd8     LIBCMTD:wsetloca.obj
 0002:0000ac60       ??_C@_1KK@KMIFPBBC@?$AAw?$AAc?$AAs?$AAn?$AAc?$AAp?$AAy?$AA_?$AAs?$AA?$CI?$AAl?$AAo?$AAc?$AAa?$AAl?$AAe?$AAN?$AAa?$AAm?$AAe?$AAO?$AAu?$AAt?$AAp?$AAu?$AAt?$AA?0?$AA?5?$AAl?$AAo?$AAc?$AAa@ 004c6c60     LIBCMTD:wsetloca.obj
 0002:0000ad10       ??_C@_1BEK@OJDMMIMP@?$AAw?$AAc?$AAs?$AAn?$AAc?$AAp?$AAy?$AA_?$AAs?$AA?$CI?$AA_?$AAp?$AAs?$AAe?$AAt?$AAl?$AAo?$AAc?$AA_?$AAd?$AAa?$AAt?$AAa?$AA?9?$AA?$DO?$AA_?$AAc?$AAa?$AAc?$AAh?$AAe?$AAL@ 004c6d10     LIBCMTD:wsetloca.obj
 0002:0000ae60       ??_C@_1BGG@FCLLNAOE@?$AAw?$AAc?$AAs?$AAn?$AAc?$AAp?$AAy?$AA_?$AAs?$AA?$CI?$AA_?$AAp?$AAs?$AAe?$AAt?$AAl?$AAo?$AAc?$AA_?$AAd?$AAa?$AAt?$AAa?$AA?9?$AA?$DO?$AA_?$AAc?$AAa?$AAc?$AAh?$AAe?$AAL@ 004c6e60     LIBCMTD:wsetloca.obj
 0002:0000afc8       ??_C@_1IC@FCCDBGLL@?$AAw?$AAc?$AAs?$AAn?$AAc?$AAp?$AAy?$AA_?$AAs?$AA?$CI?$AAc?$AAa?$AAc?$AAh?$AAe?$AAi?$AAn?$AA?0?$AA?5?$AAc?$AAa?$AAc?$AAh?$AAe?$AAi?$AAn?$AAL?$AAe?$AAn?$AA?0?$AA?5?$AAe@ 004c6fc8     LIBCMTD:wsetloca.obj
 0002:0000b050       ??_C@_1FA@HOOAAHFF@?$AAw?$AAc?$AAs?$AAc?$AAp?$AAy?$AA_?$AAs?$AA?$CI?$AAo?$AAu?$AAt?$AAp?$AAu?$AAt?$AA?0?$AA?5?$AAs?$AAi?$AAz?$AAe?$AAI?$AAn?$AAC?$AAh?$AAa?$AAr?$AAs?$AA?0?$AA?5?$AAc?$AAa@ 004c7050     LIBCMTD:wsetloca.obj
 0002:0000b0a0       ??_C@_1BC@LEOKFFML@?$AA_?$AAw?$AAc?$AAs?$AAc?$AAa?$AAt?$AAs?$AA?$AA@ 004c70a0     LIBCMTD:wsetloca.obj
 0002:0000b0b8       ??_C@_1BII@IONPPCCF@?$AAw?$AAc?$AAs?$AAc?$AAa?$AAt?$AA_?$AAs?$AA?$CI?$AAo?$AAu?$AAt?$AAs?$AAt?$AAr?$AA?0?$AA?5?$AAn?$AAu?$AAm?$AAb?$AAe?$AAr?$AAO?$AAf?$AAE?$AAl?$AAe?$AAm?$AAe?$AAn?$AAt@ 004c70b8     LIBCMTD:wsetloca.obj
 0002:0000b240       ??_C@_1BK@GNCHCGCN@?$AA_?$AA_?$AAl?$AAc?$AA_?$AAw?$AAc?$AAs?$AAt?$AAo?$AAl?$AAc?$AA?$AA@ 004c7240     LIBCMTD:wsetloca.obj
 0002:0000b260       ??_C@_1NI@NELJHJBO@?$AAw?$AAc?$AAs?$AAn?$AAc?$AAp?$AAy?$AA_?$AAs?$AA?$CI?$AAn?$AAa?$AAm?$AAe?$AAs?$AA?9?$AA?$DO?$AAs?$AAz?$AAC?$AAo?$AAd?$AAe?$AAP?$AAa?$AAg?$AAe?$AA?0?$AA?5?$AA?$CI?$AAs?$AAi@ 004c7260     LIBCMTD:wsetloca.obj
 0002:0000b338       ??_C@_17MBJJLFDM@?$AA_?$AA?4?$AA?0?$AA?$AA@ 004c7338     LIBCMTD:wsetloca.obj
 0002:0000b340       ??_C@_1MO@PBGOIBFL@?$AAw?$AAc?$AAs?$AAn?$AAc?$AAp?$AAy?$AA_?$AAs?$AA?$CI?$AAn?$AAa?$AAm?$AAe?$AAs?$AA?9?$AA?$DO?$AAs?$AAz?$AAL?$AAa?$AAn?$AAg?$AAu?$AAa?$AAg?$AAe?$AA?0?$AA?5?$AA?$CI?$AAs?$AAi@ 004c7340     LIBCMTD:wsetloca.obj
 0002:0000b410       ??_C@_1MI@CLMFNAAJ@?$AAw?$AAc?$AAs?$AAn?$AAc?$AAp?$AAy?$AA_?$AAs?$AA?$CI?$AAn?$AAa?$AAm?$AAe?$AAs?$AA?9?$AA?$DO?$AAs?$AAz?$AAC?$AAo?$AAu?$AAn?$AAt?$AAr?$AAy?$AA?0?$AA?5?$AA?$CI?$AAs?$AAi?$AAz@ 004c7410     LIBCMTD:wsetloca.obj
 0002:0000b4d8       ??_C@_1MO@NBFBMKCB@?$AAw?$AAc?$AAs?$AAn?$AAc?$AAp?$AAy?$AA_?$AAs?$AA?$CI?$AAn?$AAa?$AAm?$AAe?$AAs?$AA?9?$AA?$DO?$AAs?$AAz?$AAC?$AAo?$AAd?$AAe?$AAP?$AAa?$AAg?$AAe?$AA?0?$AA?5?$AA?$CI?$AAs?$AAi@ 004c74d8     LIBCMTD:wsetloca.obj
 0002:0000b5a8       ??_C@_1BK@HEBMGPEK@?$AA_?$AA_?$AAl?$AAc?$AA_?$AAl?$AAc?$AAt?$AAo?$AAw?$AAc?$AAs?$AA?$AA@ 004c75a8     LIBCMTD:wsetloca.obj
 0002:0000b5c8       ??_C@_1GM@FOFMGOEK@?$AAw?$AAc?$AAs?$AAc?$AAp?$AAy?$AA_?$AAs?$AA?$CI?$AAl?$AAo?$AAc?$AAa?$AAl?$AAe?$AA?0?$AA?5?$AAn?$AAu?$AAm?$AAb?$AAe?$AAr?$AAO?$AAf?$AAE?$AAl?$AAe?$AAm?$AAe?$AAn?$AAt@ 004c75c8     LIBCMTD:wsetloca.obj
 0002:0000b634       ??_C@_13ENNFDPBH@?$AA_?$AA?$AA@ 004c7634     LIBCMTD:wsetloca.obj
 0002:0000b638       ??_C@_13JOFGPIOO@?$AA?4?$AA?$AA@ 004c7638     LIBCMTD:wsetloca.obj
 0002:0000b63c       ??_C@_1CG@HCGEAFEA@?$AA_?$AA_?$AAc?$AAo?$AAp?$AAy?$AA_?$AAl?$AAo?$AAc?$AAa?$AAl?$AAe?$AA_?$AAn?$AAa?$AAm?$AAe?$AA?$AA@ 004c763c     LIBCMTD:wsetloca.obj
 0002:0000b668       ??_C@_1GI@HBNMCKGD@?$AAw?$AAc?$AAs?$AAn?$AAc?$AAp?$AAy?$AA_?$AAs?$AA?$CI?$AAl?$AAo?$AAc?$AAa?$AAl?$AAe?$AAN?$AAa?$AAm?$AAe?$AAC?$AAo?$AAp?$AAy?$AA?0?$AA?5?$AAc?$AAc?$AAh?$AA?$CL?$AA1?$AA?0@ 004c7668     LIBCMTD:wsetloca.obj
 0002:0000b6d0       __sys_errlist              004c76d0     LIBCMTD:syserr.obj
 0002:0000b780       ??_C@_08INEPGKHH@No?5error?$AA@ 004c7780     LIBCMTD:syserr.obj
 0002:0000b78c       ??_C@_0BI@BJFCGOHL@Operation?5not?5permitted?$AA@ 004c778c     LIBCMTD:syserr.obj
 0002:0000b7a4       ??_C@_0BK@FMDHKPNF@No?5such?5file?5or?5directory?$AA@ 004c77a4     LIBCMTD:syserr.obj
 0002:0000b7c0       ??_C@_0BA@FKIAIBGA@No?5such?5process?$AA@ 004c77c0     LIBCMTD:syserr.obj
 0002:0000b7d0       ??_C@_0BK@FJBOAFDK@Interrupted?5function?5call?$AA@ 004c77d0     LIBCMTD:syserr.obj
 0002:0000b7ec       ??_C@_0BD@KKNFOBBD@Input?1output?5error?$AA@ 004c77ec     LIBCMTD:syserr.obj
 0002:0000b800       ??_C@_0BK@DPKMCKJ@No?5such?5device?5or?5address?$AA@ 004c7800     LIBCMTD:syserr.obj
 0002:0000b81c       ??_C@_0BC@MFFGCDFL@Arg?5list?5too?5long?$AA@ 004c781c     LIBCMTD:syserr.obj
 0002:0000b830       ??_C@_0BC@HKPNECK@Exec?5format?5error?$AA@ 004c7830     LIBCMTD:syserr.obj
 0002:0000b844       ??_C@_0BE@NFGDDCEF@Bad?5file?5descriptor?$AA@ 004c7844     LIBCMTD:syserr.obj
 0002:0000b858       ??_C@_0BD@LOHELEP@No?5child?5processes?$AA@ 004c7858     LIBCMTD:syserr.obj
 0002:0000b86c       ??_C@_0CB@EPFKGNAK@Resource?5temporarily?5unavailable@ 004c786c     LIBCMTD:syserr.obj
 0002:0000b890       ??_C@_0BB@IMDKMPFB@Not?5enough?5space?$AA@ 004c7890     LIBCMTD:syserr.obj
 0002:0000b8a4       ??_C@_0BC@HFNFNKAI@Permission?5denied?$AA@ 004c78a4     LIBCMTD:syserr.obj
 0002:0000b8b8       ??_C@_0M@LOEHLCJD@Bad?5address?$AA@ 004c78b8     LIBCMTD:syserr.obj
 0002:0000b8c4       ??_C@_0O@NIPGCINC@Unknown?5error?$AA@ 004c78c4     LIBCMTD:syserr.obj
 0002:0000b8d4       ??_C@_0BA@BIBLIOEK@Resource?5device?$AA@ 004c78d4     LIBCMTD:syserr.obj
 0002:0000b8e4       ??_C@_0M@NAAJNNGH@File?5exists?$AA@ 004c78e4     LIBCMTD:syserr.obj
 0002:0000b8f0       ??_C@_0O@OAMDNOCP@Improper?5link?$AA@ 004c78f0     LIBCMTD:syserr.obj
 0002:0000b900       ??_C@_0P@NLEIANHE@No?5such?5device?$AA@ 004c7900     LIBCMTD:syserr.obj
 0002:0000b910       ??_C@_0BA@CJBACOOL@Not?5a?5directory?$AA@ 004c7910     LIBCMTD:syserr.obj
 0002:0000b920       ??_C@_0P@NDHGCGKE@Is?5a?5directory?$AA@ 004c7920     LIBCMTD:syserr.obj
 0002:0000b930       ??_C@_0BB@HMGGCEBG@Invalid?5argument?$AA@ 004c7930     LIBCMTD:syserr.obj
 0002:0000b944       ??_C@_0BO@IIFBODJE@Too?5many?5open?5files?5in?5system?$AA@ 004c7944     LIBCMTD:syserr.obj
 0002:0000b964       ??_C@_0BE@INBJMKGG@Too?5many?5open?5files?$AA@ 004c7964     LIBCMTD:syserr.obj
 0002:0000b978       ??_C@_0CE@ONOKNLPF@Inappropriate?5I?1O?5control?5operat@ 004c7978     LIBCMTD:syserr.obj
 0002:0000b99c       ??_C@_0P@LFMMIPAE@File?5too?5large?$AA@ 004c799c     LIBCMTD:syserr.obj
 0002:0000b9ac       ??_C@_0BI@FEALHKLD@No?5space?5left?5on?5device?$AA@ 004c79ac     LIBCMTD:syserr.obj
 0002:0000b9c4       ??_C@_0N@FEHLOILP@Invalid?5seek?$AA@ 004c79c4     LIBCMTD:syserr.obj
 0002:0000b9d4       ??_C@_0BG@DDBFNKBH@Read?9only?5file?5system?$AA@ 004c79d4     LIBCMTD:syserr.obj
 0002:0000b9ec       ??_C@_0P@PKCJJLLM@Too?5many?5links?$AA@ 004c79ec     LIBCMTD:syserr.obj
 0002:0000b9fc       ??_C@_0M@LHEPIIOM@Broken?5pipe?$AA@ 004c79fc     LIBCMTD:syserr.obj
 0002:0000ba08       ??_C@_0N@MMJPGLJK@Domain?5error?$AA@ 004c7a08     LIBCMTD:syserr.obj
 0002:0000ba18       ??_C@_0BB@FCBJFCAJ@Result?5too?5large?$AA@ 004c7a18     LIBCMTD:syserr.obj
 0002:0000ba2c       ??_C@_0BK@JAEBMJJM@Resource?5deadlock?5avoided?$AA@ 004c7a2c     LIBCMTD:syserr.obj
 0002:0000ba48       ??_C@_0BC@BEDIHIDK@Filename?5too?5long?$AA@ 004c7a48     LIBCMTD:syserr.obj
 0002:0000ba5c       ??_C@_0BD@CLHBCGPB@No?5locks?5available?$AA@ 004c7a5c     LIBCMTD:syserr.obj
 0002:0000ba70       ??_C@_0BJ@IHEHINLI@Function?5not?5implemented?$AA@ 004c7a70     LIBCMTD:syserr.obj
 0002:0000ba8c       ??_C@_0BE@ICMCHPHH@Directory?5not?5empty?$AA@ 004c7a8c     LIBCMTD:syserr.obj
 0002:0000baa0       ??_C@_0BG@KLEAJEFJ@Illegal?5byte?5sequence?$AA@ 004c7aa0     LIBCMTD:syserr.obj
 0002:0000bab8       ??_C@_1FC@NCPEPIBI@?$AA?$CI?$AA?$CI?$AA_?$AAD?$AAs?$AAt?$AA?$CJ?$AA?$CJ?$AA?5?$AA?$CB?$AA?$DN?$AA?5?$AAN?$AAU?$AAL?$AAL?$AA?5?$AA?$CG?$AA?$CG?$AA?5?$AA?$CI?$AA?$CI?$AA_?$AAS?$AAi?$AAz?$AAe?$AAI?$AAn?$AAB?$AAy?$AAt@ 004c7ab8     LIBCMTD:strcpy_s.obj
 0002:0000bb10       ??_C@_1FA@ILDLFIFE@?$AAf?$AA?3?$AA?2?$AAd?$AAd?$AA?2?$AAv?$AAc?$AAt?$AAo?$AAo?$AAl?$AAs?$AA?2?$AAc?$AAr?$AAt?$AA?2?$AAc?$AAr?$AAt?$AAw?$AA3?$AA2?$AA?2?$AAh?$AA?2?$AAt?$AAc?$AAs?$AAc?$AAp@ 004c7b10     LIBCMTD:strcpy_s.obj
 0002:0000bb60       ??_C@_1BC@CFJEPFGF@?$AAs?$AAt?$AAr?$AAc?$AAp?$AAy?$AA_?$AAs?$AA?$AA@ 004c7b60     LIBCMTD:strcpy_s.obj
 0002:0000bb74       ??_C@_1CG@OFBJMIGJ@?$AA?$CI?$AA?$CI?$AA?$CI?$AA_?$AAS?$AAr?$AAc?$AA?$CJ?$AA?$CJ?$AA?$CJ?$AA?5?$AA?$CB?$AA?$DN?$AA?5?$AAN?$AAU?$AAL?$AAL?$AA?$AA@ 004c7b74     LIBCMTD:strcpy_s.obj
 0002:0000bba0       ??_C@_1FC@LFLBLJJB@?$AAf?$AA?3?$AA?2?$AAd?$AAd?$AA?2?$AAv?$AAc?$AAt?$AAo?$AAo?$AAl?$AAs?$AA?2?$AAc?$AAr?$AAt?$AA?2?$AAc?$AAr?$AAt?$AAw?$AA3?$AA2?$AA?2?$AAh?$AA?2?$AAt?$AAc?$AAs?$AAn?$AAc@ 004c7ba0     LIBCMTD:strncpy_s.obj
 0002:0000bbf4       ??_C@_1BE@NDMJHJJG@?$AAs?$AAt?$AAr?$AAn?$AAc?$AAp?$AAy?$AA_?$AAs?$AA?$AA@ 004c7bf4     LIBCMTD:strncpy_s.obj
 0002:0000bc14       ??_C@_1BA@GLMCNLEM@?$AAW?$AAa?$AAr?$AAn?$AAi?$AAn?$AAg?$AA?$AA@ 004c7c14     LIBCMTD:dbgrptw.obj
 0002:0000bc24       ??_C@_1M@ILHOPKA@?$AAE?$AAr?$AAr?$AAo?$AAr?$AA?$AA@ 004c7c24     LIBCMTD:dbgrptw.obj
 0002:0000bc30       ??_C@_1CC@CGHMNGDG@?$AAA?$AAs?$AAs?$AAe?$AAr?$AAt?$AAi?$AAo?$AAn?$AA?5?$AAF?$AAa?$AAi?$AAl?$AAe?$AAd?$AA?$AA@ 004c7c30     LIBCMTD:dbgrptw.obj
 0002:0000bc54       ??_C@_17LGKOMLJ@?$AA?4?$AA?4?$AA?4?$AA?$AA@ 004c7c54     LIBCMTD:dbgrptw.obj
 0002:0000bc60       ??_C@_1HI@OFEHGPPC@?$AAm?$AAo?$AAd?$AAe?$AA?5?$AA?$DN?$AA?$DN?$AA?5?$AA_?$AAC?$AAR?$AAT?$AA_?$AAR?$AAP?$AAT?$AAH?$AAO?$AAO?$AAK?$AA_?$AAI?$AAN?$AAS?$AAT?$AAA?$AAL?$AAL?$AA?5?$AA?$HM?$AA?$HM?$AA?5@ 004c7c60     LIBCMTD:dbgrptw.obj
 0002:0000bcd8       ??_C@_1EO@JACJHHCK@?$AAf?$AA?3?$AA?2?$AAd?$AAd?$AA?2?$AAv?$AAc?$AAt?$AAo?$AAo?$AAl?$AAs?$AA?2?$AAc?$AAr?$AAt?$AA?2?$AAc?$AAr?$AAt?$AAw?$AA3?$AA2?$AA?2?$AAm?$AAi?$AAs?$AAc?$AA?2?$AAd?$AAb@ 004c7cd8     LIBCMTD:dbgrptw.obj
 0002:0000bd28       ??_C@_1CI@IIHEAKEI@?$AA_?$AAC?$AAr?$AAt?$AAS?$AAe?$AAt?$AAR?$AAe?$AAp?$AAo?$AAr?$AAt?$AAH?$AAo?$AAo?$AAk?$AAW?$AA2?$AA?$AA@ 004c7d28     LIBCMTD:dbgrptw.obj
 0002:0000bd50       ??_C@_1CG@JBJEFOCM@?$AAp?$AAf?$AAn?$AAN?$AAe?$AAw?$AAH?$AAo?$AAo?$AAk?$AA?5?$AA?$CB?$AA?$DN?$AA?5?$AAN?$AAU?$AAL?$AAL?$AA?$AA@ 004c7d50     LIBCMTD:dbgrptw.obj
 0002:0000bd78       ??_C@_1FI@PHIAFFHM@?$AA?$CI?$AA?$CC?$AAT?$AAh?$AAe?$AA?5?$AAh?$AAo?$AAo?$AAk?$AA?5?$AAf?$AAu?$AAn?$AAc?$AAt?$AAi?$AAo?$AAn?$AA?5?$AAi?$AAs?$AA?5?$AAn?$AAo?$AAt?$AA?5?$AAi?$AAn?$AA?5?$AAt?$AAh@ 004c7d78     LIBCMTD:dbgrptw.obj
 0002:0000bdd0       ??_C@_0CH@BBGAHGHC@f?3?2dd?2vctools?2crt?2crtw32?2misc?2db@ 004c7dd0     LIBCMTD:dbgrptw.obj
 0002:0000bdf8       ??_C@_1CI@PGJIFDEK@?$AA_?$AA_?$AAc?$AAr?$AAt?$AAM?$AAe?$AAs?$AAs?$AAa?$AAg?$AAe?$AAW?$AAi?$AAn?$AAd?$AAo?$AAw?$AAW?$AA?$AA@ 004c7df8     LIBCMTD:dbgrptw.obj
 0002:0000be20       ??_C@_1GI@DEDNNLCI@?$AAw?$AAc?$AAs?$AAc?$AAp?$AAy?$AA_?$AAs?$AA?$CI?$AAs?$AAz?$AAE?$AAx?$AAe?$AAN?$AAa?$AAm?$AAe?$AA?0?$AA?5?$AA2?$AA6?$AA0?$AA?0?$AA?5?$AAL?$AA?$CC?$AA?$DM?$AAp?$AAr?$AAo?$AAg@ 004c7e20     LIBCMTD:dbgrptw.obj
 0002:0000be88       ??_C@_1CO@EAEJAADC@?$AA?$DM?$AAp?$AAr?$AAo?$AAg?$AAr?$AAa?$AAm?$AA?5?$AAn?$AAa?$AAm?$AAe?$AA?5?$AAu?$AAn?$AAk?$AAn?$AAo?$AAw?$AAn?$AA?$DO?$AA?$AA@ 004c7e88     LIBCMTD:dbgrptw.obj
 0002:0000beb8       ??_C@_1NO@LECLLHOL@?$AAm?$AAe?$AAm?$AAc?$AAp?$AAy?$AA_?$AAs?$AA?$CI?$AAs?$AAz?$AAS?$AAh?$AAo?$AAr?$AAt?$AAP?$AAr?$AAo?$AAg?$AAN?$AAa?$AAm?$AAe?$AA?0?$AA?5?$AAs?$AAi?$AAz?$AAe?$AAo?$AAf@ 004c7eb8     LIBCMTD:dbgrptw.obj
 0002:0000bf98       ??_C@_1OG@PMPPFHAF@?$AA?6?$AA?6?$AAF?$AAo?$AAr?$AA?5?$AAi?$AAn?$AAf?$AAo?$AAr?$AAm?$AAa?$AAt?$AAi?$AAo?$AAn?$AA?5?$AAo?$AAn?$AA?5?$AAh?$AAo?$AAw?$AA?5?$AAy?$AAo?$AAu?$AAr?$AA?5?$AAp?$AAr@ 004c7f98     LIBCMTD:dbgrptw.obj
 0002:0000c080       ??_C@_1BK@PEDCIPMA@?$AAE?$AAx?$AAp?$AAr?$AAe?$AAs?$AAs?$AAi?$AAo?$AAn?$AA?3?$AA?5?$AA?$AA@ 004c8080     LIBCMTD:dbgrptw.obj
 0002:0000c09c       ??_C@_15IABLJNFO@?$AA?6?$AA?6?$AA?$AA@ 004c809c     LIBCMTD:dbgrptw.obj
 0002:0000c0a4       ??_C@_1BA@GLLGCPCK@?$AA?6?$AAL?$AAi?$AAn?$AAe?$AA?3?$AA?5?$AA?$AA@ 004c80a4     LIBCMTD:dbgrptw.obj
 0002:0000c0b4       ??_C@_1BA@LNHECFIM@?$AA?6?$AAF?$AAi?$AAl?$AAe?$AA?3?$AA?5?$AA?$AA@ 004c80b4     LIBCMTD:dbgrptw.obj
 0002:0000c0c4       ??_C@_1BE@CGCJKGHI@?$AA?6?$AAM?$AAo?$AAd?$AAu?$AAl?$AAe?$AA?3?$AA?5?$AA?$AA@ 004c80c4     LIBCMTD:dbgrptw.obj
 0002:0000c0d8       ??_C@_1KM@HNMIBKJH@?$AAD?$AAe?$AAb?$AAu?$AAg?$AA?5?$AA?$CF?$AAs?$AA?$CB?$AA?6?$AA?6?$AAP?$AAr?$AAo?$AAg?$AAr?$AAa?$AAm?$AA?3?$AA?5?$AA?$CF?$AAs?$AA?$CF?$AAs?$AA?$CF?$AAs?$AA?$CF?$AAs?$AA?$CF?$AAs?$AA?$CF?$AAs@ 004c80d8     LIBCMTD:dbgrptw.obj
 0002:0000c184       ??_C@_1BI@KALLJECN@?$AA?$CI?$AA?$CK?$AA_?$AAe?$AAr?$AAr?$AAn?$AAo?$AA?$CI?$AA?$CJ?$AA?$CJ?$AA?$AA@ 004c8184     LIBCMTD:dbgrptw.obj
 0002:0000c1a0       ??_C@_1JI@EACPGHID@?$AAw?$AAc?$AAs?$AAc?$AAp?$AAy?$AA_?$AAs?$AA?$CI?$AAs?$AAz?$AAO?$AAu?$AAt?$AAM?$AAe?$AAs?$AAs?$AAa?$AAg?$AAe?$AA?0?$AA?5?$AA4?$AA0?$AA9?$AA6?$AA?0?$AA?5?$AAL?$AA?$CC?$AA_@ 004c81a0     LIBCMTD:dbgrptw.obj
 0002:0000c238       ??_C@_1FG@BBOLDHGF@?$AA_?$AAC?$AAr?$AAt?$AAD?$AAb?$AAg?$AAR?$AAe?$AAp?$AAo?$AAr?$AAt?$AA?3?$AA?5?$AAS?$AAt?$AAr?$AAi?$AAn?$AAg?$AA?5?$AAt?$AAo?$AAo?$AA?5?$AAl?$AAo?$AAn?$AAg?$AA?5?$AAo@ 004c8238     LIBCMTD:dbgrptw.obj
 0002:0000c290       ??_C@_1EK@MBDPDCGA@?$AAM?$AAi?$AAc?$AAr?$AAo?$AAs?$AAo?$AAf?$AAt?$AA?5?$AAV?$AAi?$AAs?$AAu?$AAa?$AAl?$AA?5?$AAC?$AA?$CL?$AA?$CL?$AA?5?$AAR?$AAu?$AAn?$AAt?$AAi?$AAm?$AAe?$AA?5?$AAL?$AAi?$AAb@ 004c8290     LIBCMTD:dbgrptw.obj
 0002:0000c2f0       ??_C@_04HJMOFLDF@Free?$AA@ 004c82f0     LIBCMTD:dbgheap.obj
 0002:0000c2f8       ??_C@_06EFAGIKOH@Normal?$AA@ 004c82f8     LIBCMTD:dbgheap.obj
 0002:0000c300       ??_C@_03OGPFLFLO@CRT?$AA@  004c8300     LIBCMTD:dbgheap.obj
 0002:0000c304       ??_C@_06KMEJCCGM@Ignore?$AA@ 004c8304     LIBCMTD:dbgheap.obj
 0002:0000c30c       ??_C@_06PJIGMIJB@Client?$AA@ 004c830c     LIBCMTD:dbgheap.obj
 0002:0000c314       ??_C@_1CE@LJFEPPMP@?$AA_?$AAC?$AAr?$AAt?$AAC?$AAh?$AAe?$AAc?$AAk?$AAM?$AAe?$AAm?$AAo?$AAr?$AAy?$AA?$CI?$AA?$CJ?$AA?$AA@ 004c8314     LIBCMTD:dbgheap.obj
 0002:0000c338       ??_C@_1FA@JKEKCOIC@?$AAf?$AA?3?$AA?2?$AAd?$AAd?$AA?2?$AAv?$AAc?$AAt?$AAo?$AAo?$AAl?$AAs?$AA?2?$AAc?$AAr?$AAt?$AA?2?$AAc?$AAr?$AAt?$AAw?$AA3?$AA2?$AA?2?$AAm?$AAi?$AAs?$AAc?$AA?2?$AAd?$AAb@ 004c8338     LIBCMTD:dbgheap.obj
 0002:0000c388       ??_C@_0DF@BBEGIFEK@Client?5hook?5allocation?5failure?5a@ 004c8388     LIBCMTD:dbgheap.obj
 0002:0000c3c0       ??_C@_0CB@CCLOLAHO@Client?5hook?5allocation?5failure?4?6@ 004c83c0     LIBCMTD:dbgheap.obj
 0002:0000c3e4       ??_C@_0CF@BICKFLAF@Invalid?5allocation?5size?3?5?$CFIu?5byt@ 004c83e4     LIBCMTD:dbgheap.obj
 0002:0000c40c       ??_C@_0DC@JEMAGEKG@Error?3?5memory?5allocation?3?5bad?5me@ 004c840c     LIBCMTD:dbgheap.obj
 0002:0000c440       ??_C@_0DI@KKJPDPGM@Client?5hook?5re?9allocation?5failur@ 004c8440     LIBCMTD:dbgheap.obj
 0002:0000c478       ??_C@_0CE@DOFMDOL@Client?5hook?5re?9allocation?5failur@ 004c8478     LIBCMTD:dbgheap.obj
 0002:0000c4a0       ??_C@_0ED@GPCPBAGP@Invalid?5allocation?5size?3?5?$CFIu?5byt@ 004c84a0     LIBCMTD:dbgheap.obj
 0002:0000c4e8       ??_C@_0FA@EFEIGJKG@Error?3?5memory?5allocation?3?5bad?5me@ 004c84e8     LIBCMTD:dbgheap.obj
 0002:0000c538       ??_C@_0EM@LGFLMAGJ@The?5Block?5at?50x?$CFp?5was?5allocated?5@ 004c8538     LIBCMTD:dbgheap.obj
 0002:0000c588       ??_C@_1EE@GFOPCECE@?$AA_?$AAC?$AAr?$AAt?$AAI?$AAs?$AAV?$AAa?$AAl?$AAi?$AAd?$AAH?$AAe?$AAa?$AAp?$AAP?$AAo?$AAi?$AAn?$AAt?$AAe?$AAr?$AA?$CI?$AAp?$AAU?$AAs?$AAe?$AAr?$AAD?$AAa?$AAt?$AAa@ 004c8588     LIBCMTD:dbgheap.obj
 0002:0000c5d0       ??_C@_1IK@DCPKDGNH@?$AAp?$AAO?$AAl?$AAd?$AAB?$AAl?$AAo?$AAc?$AAk?$AA?9?$AA?$DO?$AAn?$AAL?$AAi?$AAn?$AAe?$AA?5?$AA?$DN?$AA?$DN?$AA?5?$AAI?$AAG?$AAN?$AAO?$AAR?$AAE?$AA_?$AAL?$AAI?$AAN?$AAE?$AA?5@ 004c85d0     LIBCMTD:dbgheap.obj
 0002:0000c65c       ??_C@_0DA@HFBKENN@Error?3?5possible?5heap?5corruption?5@ 004c865c     LIBCMTD:dbgheap.obj
 0002:0000c690       ??_C@_1GE@PCKLOLAO@?$AAf?$AAR?$AAe?$AAa?$AAl?$AAl?$AAo?$AAc?$AA?5?$AA?$HM?$AA?$HM?$AA?5?$AA?$CI?$AA?$CB?$AAf?$AAR?$AAe?$AAa?$AAl?$AAl?$AAo?$AAc?$AA?5?$AA?$CG?$AA?$CG?$AA?5?$AAp?$AAN?$AAe?$AAw?$AAB?$AAl@ 004c8690     LIBCMTD:dbgheap.obj
 0002:0000c6f4       ??_C@_1DC@GEFKNOOL@?$AA_?$AAp?$AAL?$AAa?$AAs?$AAt?$AAB?$AAl?$AAo?$AAc?$AAk?$AA?5?$AA?$DN?$AA?$DN?$AA?5?$AAp?$AAO?$AAl?$AAd?$AAB?$AAl?$AAo?$AAc?$AAk?$AA?$AA@ 004c86f4     LIBCMTD:dbgheap.obj
 0002:0000c728       ??_C@_1DE@KOOKLFBB@?$AA_?$AAp?$AAF?$AAi?$AAr?$AAs?$AAt?$AAB?$AAl?$AAo?$AAc?$AAk?$AA?5?$AA?$DN?$AA?$DN?$AA?5?$AAp?$AAO?$AAl?$AAd?$AAB?$AAl?$AAo?$AAc?$AAk?$AA?$AA@ 004c8728     LIBCMTD:dbgheap.obj
 0002:0000c75c       ??_C@_1CE@CJACEFBA@?$AAp?$AAU?$AAs?$AAe?$AAr?$AAD?$AAa?$AAt?$AAa?$AA?5?$AA?$CB?$AA?$DN?$AA?5?$AAN?$AAU?$AAL?$AAL?$AA?$AA@ 004c875c     LIBCMTD:dbgheap.obj
 0002:0000c780       ??_C@_1BI@HAPNGHDP@?$AA_?$AAe?$AAx?$AAp?$AAa?$AAn?$AAd?$AA_?$AAd?$AAb?$AAg?$AA?$AA@ 004c8780     LIBCMTD:dbgheap.obj
 0002:0000c798       ??_C@_0EJ@HEIBCIMJ@The?5Block?5at?50x?$CFp?5was?5allocated?5@ 004c8798     LIBCMTD:dbgheap.obj
 0002:0000c7e4       ??_C@_0BL@KEIPLFAC@Client?5hook?5free?5failure?4?6?$AA@ 004c87e4     LIBCMTD:dbgheap.obj
 0002:0000c800       ??_C@_1EO@LHDAJOCM@?$AA_?$AAB?$AAL?$AAO?$AAC?$AAK?$AA_?$AAT?$AAY?$AAP?$AAE?$AA_?$AAI?$AAS?$AA_?$AAV?$AAA?$AAL?$AAI?$AAD?$AA?$CI?$AAp?$AAH?$AAe?$AAa?$AAd?$AA?9?$AA?$DO?$AAn?$AAB?$AAl?$AAo@ 004c8800     LIBCMTD:dbgheap.obj
 0002:0000c850       ??_C@_0KI@JGFOHMEB@HEAP?5CORRUPTION?5DETECTED?3?5before@ 004c8850     LIBCMTD:dbgheap.obj
 0002:0000c8f8       ??_C@_0IK@PJCGLBOB@HEAP?5CORRUPTION?5DETECTED?3?5before@ 004c88f8     LIBCMTD:dbgheap.obj
 0002:0000c988       ??_C@_0KE@MBMNHHHN@HEAP?5CORRUPTION?5DETECTED?3?5after?5@ 004c8988     LIBCMTD:dbgheap.obj
 0002:0000ca30       ??_C@_0IG@LEMBDCJK@HEAP?5CORRUPTION?5DETECTED?3?5after?5@ 004c8a30     LIBCMTD:dbgheap.obj
 0002:0000cab8       ??_C@_1HK@HPCBMDFG@?$AAp?$AAH?$AAe?$AAa?$AAd?$AA?9?$AA?$DO?$AAn?$AAL?$AAi?$AAn?$AAe?$AA?5?$AA?$DN?$AA?$DN?$AA?5?$AAI?$AAG?$AAN?$AAO?$AAR?$AAE?$AA_?$AAL?$AAI?$AAN?$AAE?$AA?5?$AA?$CG?$AA?$CG?$AA?5?$AAp@ 004c8ab8     LIBCMTD:dbgheap.obj
 0002:0000cb34       ??_C@_1DM@ODCJIDCP@?$AAp?$AAH?$AAe?$AAa?$AAd?$AA?9?$AA?$DO?$AAn?$AAB?$AAl?$AAo?$AAc?$AAk?$AAU?$AAs?$AAe?$AA?5?$AA?$DN?$AA?$DN?$AA?5?$AAn?$AAB?$AAl?$AAo?$AAc?$AAk?$AAU?$AAs?$AAe?$AA?$AA@ 004c8b34     LIBCMTD:dbgheap.obj
 0002:0000cb70       ??_C@_1CK@DMAGEMBG@?$AA_?$AAp?$AAL?$AAa?$AAs?$AAt?$AAB?$AAl?$AAo?$AAc?$AAk?$AA?5?$AA?$DN?$AA?$DN?$AA?5?$AAp?$AAH?$AAe?$AAa?$AAd?$AA?$AA@ 004c8b70     LIBCMTD:dbgheap.obj
 0002:0000cb9c       ??_C@_1CM@MMAADDMD@?$AA_?$AAp?$AAF?$AAi?$AAr?$AAs?$AAt?$AAB?$AAl?$AAo?$AAc?$AAk?$AA?5?$AA?$DN?$AA?$DN?$AA?5?$AAp?$AAH?$AAe?$AAa?$AAd?$AA?$AA@ 004c8b9c     LIBCMTD:dbgheap.obj
 0002:0000cbc8       ??_C@_1BG@MBKOGDLD@?$AA_?$AAm?$AAs?$AAi?$AAz?$AAe?$AA_?$AAd?$AAb?$AAg?$AA?$AA@ 004c8bc8     LIBCMTD:dbgheap.obj
 0002:0000cbe0       ??_C@_0CE@MKKHMBMK@_heapchk?5fails?5with?5_HEAPBADBEGI@ 004c8be0     LIBCMTD:dbgheap.obj
 0002:0000cc04       ??_C@_0CD@CPKEAPBD@_heapchk?5fails?5with?5_HEAPBADNODE@ 004c8c04     LIBCMTD:dbgheap.obj
 0002:0000cc28       ??_C@_0CC@MJGLGBDG@_heapchk?5fails?5with?5_HEAPBADEND?4@ 004c8c28     LIBCMTD:dbgheap.obj
 0002:0000cc4c       ??_C@_0CC@MFFCHFHO@_heapchk?5fails?5with?5_HEAPBADPTR?4@ 004c8c4c     LIBCMTD:dbgheap.obj
 0002:0000cc70       ??_C@_0CL@HNNNMKMJ@_heapchk?5fails?5with?5unknown?5retu@ 004c8c70     LIBCMTD:dbgheap.obj
 0002:0000cc9c       ??_C@_07OHKEFPKJ@DAMAGED?$AA@ 004c8c9c     LIBCMTD:dbgheap.obj
 0002:0000cca8       ??_C@_0KA@IHNJJKPL@HEAP?5CORRUPTION?5DETECTED?3?5on?5top@ 004c8ca8     LIBCMTD:dbgheap.obj
 0002:0000cd48       ??_C@_0IC@BBJIOOJH@HEAP?5CORRUPTION?5DETECTED?3?5on?5top@ 004c8d48     LIBCMTD:dbgheap.obj
 0002:0000cdd0       ??_C@_0EG@DGJMPDBH@?$CFhs?5located?5at?50x?$CFp?5is?5?$CFIu?5bytes@ 004c8dd0     LIBCMTD:dbgheap.obj
 0002:0000ce18       ??_C@_0CI@JMLBEDHJ@?$CFhs?5located?5at?50x?$CFp?5is?5?$CFIu?5bytes@ 004c8e18     LIBCMTD:dbgheap.obj
 0002:0000ce40       ??_C@_1BHO@NNANJNF@?$AA?$CI?$AAf?$AAN?$AAe?$AAw?$AAB?$AAi?$AAt?$AAs?$AA?$DN?$AA?$DN?$AA_?$AAC?$AAR?$AAT?$AAD?$AAB?$AAG?$AA_?$AAR?$AAE?$AAP?$AAO?$AAR?$AAT?$AA_?$AAF?$AAL?$AAA?$AAG?$AA?$CJ?$AA?5@ 004c8e40     LIBCMTD:dbgheap.obj
 0002:0000cfc0       ??_C@_1BO@GJFDNMNF@?$AA_?$AAC?$AAr?$AAt?$AAS?$AAe?$AAt?$AAD?$AAb?$AAg?$AAF?$AAl?$AAa?$AAg?$AA?$AA@ 004c8fc0     LIBCMTD:dbgheap.obj
 0002:0000cfe0       ??_C@_1BI@CJGCEEDL@?$AAp?$AAf?$AAn?$AA?5?$AA?$CB?$AA?$DN?$AA?5?$AAN?$AAU?$AAL?$AAL?$AA?$AA@ 004c8fe0     LIBCMTD:dbgheap.obj
 0002:0000cff8       ??_C@_1DE@GJCKCKEC@?$AA_?$AAC?$AAr?$AAt?$AAD?$AAo?$AAF?$AAo?$AAr?$AAA?$AAl?$AAl?$AAC?$AAl?$AAi?$AAe?$AAn?$AAt?$AAO?$AAb?$AAj?$AAe?$AAc?$AAt?$AAs?$AA?$AA@ 004c8ff8     LIBCMTD:dbgheap.obj
 0002:0000d02c       ??_C@_1BM@MIMANDHC@?$AAs?$AAt?$AAa?$AAt?$AAe?$AA?5?$AA?$CB?$AA?$DN?$AA?5?$AAN?$AAU?$AAL?$AAL?$AA?$AA@ 004c902c     LIBCMTD:dbgheap.obj
 0002:0000d048       ??_C@_1CE@NJJKELF@?$AA_?$AAC?$AAr?$AAt?$AAM?$AAe?$AAm?$AAC?$AAh?$AAe?$AAc?$AAk?$AAp?$AAo?$AAi?$AAn?$AAt?$AA?$AA@ 004c9048     LIBCMTD:dbgheap.obj
 0002:0000d06c       ??_C@_0DP@LEFMFBOD@Bad?5memory?5block?5found?5at?50x?$CFp?4?6@ 004c906c     LIBCMTD:dbgheap.obj
 0002:0000d0ac       ??_C@_0CB@EAAIGELO@Bad?5memory?5block?5found?5at?50x?$CFp?4?6@ 004c90ac     LIBCMTD:dbgheap.obj
 0002:0000d0d0       ??_C@_1CE@PDIENACM@?$AA_?$AAC?$AAr?$AAt?$AAM?$AAe?$AAm?$AAD?$AAi?$AAf?$AAf?$AAe?$AAr?$AAe?$AAn?$AAc?$AAe?$AA?$AA@ 004c90d0     LIBCMTD:dbgheap.obj
 0002:0000d0f4       ??_C@_1CC@DHPFEMMN@?$AAo?$AAl?$AAd?$AAS?$AAt?$AAa?$AAt?$AAe?$AA?5?$AA?$CB?$AA?$DN?$AA?5?$AAN?$AAU?$AAL?$AAL?$AA?$AA@ 004c90f4     LIBCMTD:dbgheap.obj
 0002:0000d118       ??_C@_1CC@DFPEDFBP@?$AAn?$AAe?$AAw?$AAS?$AAt?$AAa?$AAt?$AAe?$AA?5?$AA?$CB?$AA?$DN?$AA?5?$AAN?$AAU?$AAL?$AAL?$AA?$AA@ 004c9118     LIBCMTD:dbgheap.obj
 0002:0000d13c       ??_C@_1CG@LPFIACGM@?$AA_?$AAp?$AAr?$AAi?$AAn?$AAt?$AAM?$AAe?$AAm?$AAB?$AAl?$AAo?$AAc?$AAk?$AAD?$AAa?$AAt?$AAa?$AA?$AA@ 004c913c     LIBCMTD:dbgheap.obj
 0002:0000d164       ??_C@_0BA@HJBKCELP@?5Data?3?5?$DM?$CFs?$DO?5?$CFs?6?$AA@ 004c9164     LIBCMTD:dbgheap.obj
 0002:0000d174       ??_C@_0BE@KCIPKCIA@Dumping?5objects?5?9?$DO?6?$AA@ 004c9174     LIBCMTD:dbgheap.obj
 0002:0000d188       ??_C@_0BE@OIEFNFL@?$CDFile?5Error?$CD?$CI?$CFd?$CJ?5?3?5?$AA@ 004c9188     LIBCMTD:dbgheap.obj
 0002:0000d19c       ??_C@_0L@JMEFFCCJ@?$CFhs?$CI?$CFd?$CJ?5?3?5?$AA@ 004c919c     LIBCMTD:dbgheap.obj
 0002:0000d1a8       ??_C@_06PKLGBFGM@?$HL?$CFld?$HN?5?$AA@ 004c91a8     LIBCMTD:dbgheap.obj
 0002:0000d1b0       ??_C@_0DD@GHNAAKBB@client?5block?5at?50x?$CFp?0?5subtype?5?$CFx@ 004c91b0     LIBCMTD:dbgheap.obj
 0002:0000d1e4       ??_C@_0CH@FAGDDGPN@normal?5block?5at?50x?$CFp?0?5?$CFIu?5bytes?5@ 004c91e4     LIBCMTD:dbgheap.obj
 0002:0000d20c       ??_C@_0DA@MDLBNIBM@crt?5block?5at?50x?$CFp?0?5subtype?5?$CFx?0?5?$CF@ 004c920c     LIBCMTD:dbgheap.obj
 0002:0000d23c       ??_C@_0BH@GFGKJDCO@Object?5dump?5complete?4?6?$AA@ 004c923c     LIBCMTD:dbgheap.obj
 0002:0000d254       ??_C@_0BI@JBFPOEJA@Detected?5memory?5leaks?$CB?6?$AA@ 004c9254     LIBCMTD:dbgheap.obj
 0002:0000d26c       ??_C@_1CM@MPNIBKGK@?$AA_?$AAC?$AAr?$AAt?$AAM?$AAe?$AAm?$AAD?$AAu?$AAm?$AAp?$AAS?$AAt?$AAa?$AAt?$AAi?$AAs?$AAt?$AAi?$AAc?$AAs?$AA?$AA@ 004c926c     LIBCMTD:dbgheap.obj
 0002:0000d298       ??_C@_0BO@DACNIABB@?$CFId?5bytes?5in?5?$CFId?5?$CFhs?5Blocks?4?6?$AA@ 004c9298     LIBCMTD:dbgheap.obj
 0002:0000d2b8       ??_C@_0CB@BLHDAFNE@Largest?5number?5used?3?5?$CFId?5bytes?4?6@ 004c92b8     LIBCMTD:dbgheap.obj
 0002:0000d2dc       ??_C@_0BP@DEDHGGGI@Total?5allocations?3?5?$CFId?5bytes?4?6?$AA@ 004c92dc     LIBCMTD:dbgheap.obj
 0002:0000d2fc       ??_C@_1CE@NPMGPNNP@?$AAI?$AAS?$AA_?$AA2?$AA_?$AAP?$AAO?$AAW?$AA_?$AAN?$AA?$CI?$AAa?$AAl?$AAi?$AAg?$AAn?$AA?$CJ?$AA?$AA@ 004c92fc     LIBCMTD:dbgheap.obj
 0002:0000d320       ??_C@_1DG@DONCJBBJ@?$AA_?$AAa?$AAl?$AAi?$AAg?$AAn?$AAe?$AAd?$AA_?$AAo?$AAf?$AAf?$AAs?$AAe?$AAt?$AA_?$AAm?$AAa?$AAl?$AAl?$AAo?$AAc?$AA_?$AAd?$AAb?$AAg?$AA?$AA@ 004c9320     LIBCMTD:dbgheap.obj
 0002:0000d358       ??_C@_1DK@LFLKFPDA@?$AAo?$AAf?$AAf?$AAs?$AAe?$AAt?$AA?5?$AA?$DN?$AA?$DN?$AA?5?$AA0?$AA?5?$AA?$HM?$AA?$HM?$AA?5?$AAo?$AAf?$AAf?$AAs?$AAe?$AAt?$AA?5?$AA?$DM?$AA?5?$AAs?$AAi?$AAz?$AAe?$AA?$AA@ 004c9358     LIBCMTD:dbgheap.obj
 0002:0000d398       ??_C@_0EI@NDNJMAJK@The?5block?5at?50x?$CFp?5was?5not?5alloca@ 004c9398     LIBCMTD:dbgheap.obj
 0002:0000d3e0       ??_C@_0DL@PGHMMKNE@Damage?5before?50x?$CFp?5which?5was?5all@ 004c93e0     LIBCMTD:dbgheap.obj
 0002:0000d41c       ??_C@_1DI@NINIKFFK@?$AA_?$AAa?$AAl?$AAi?$AAg?$AAn?$AAe?$AAd?$AA_?$AAo?$AAf?$AAf?$AAs?$AAe?$AAt?$AA_?$AAr?$AAe?$AAa?$AAl?$AAl?$AAo?$AAc?$AA_?$AAd?$AAb?$AAg?$AA?$AA@ 004c941c     LIBCMTD:dbgheap.obj
 0002:0000d458       ??_C@_0EF@PGELACII@The?5block?5at?50x?$CFp?5was?5not?5alloca@ 004c9458     LIBCMTD:dbgheap.obj
 0002:0000d4a0       ??_C@_1CC@MOBIKHH@?$AAm?$AAe?$AAm?$AAb?$AAl?$AAo?$AAc?$AAk?$AA?5?$AA?$CB?$AA?$DN?$AA?5?$AAN?$AAU?$AAL?$AAL?$AA?$AA@ 004c94a0     LIBCMTD:dbgheap.obj
 0002:0000d4c4       ??_C@_1CG@CEGMHIMN@?$AA_?$AAa?$AAl?$AAi?$AAg?$AAn?$AAe?$AAd?$AA_?$AAm?$AAs?$AAi?$AAz?$AAe?$AA_?$AAd?$AAb?$AAg?$AA?$AA@ 004c94c4     LIBCMTD:dbgheap.obj
 0002:0000d4ec       ??_C@_0CJ@LPLBAFNO@f?3?2dd?2vctools?2crt?2crtw32?2startup@ 004c94ec     LIBCMTD:mlock.obj
 0002:0000d5d0       ??_C@_1FK@PGACCAFB@?$AAR?$AA6?$AA0?$AA0?$AA2?$AA?$AN?$AA?6?$AA?9?$AA?5?$AAf?$AAl?$AAo?$AAa?$AAt?$AAi?$AAn?$AAg?$AA?5?$AAp?$AAo?$AAi?$AAn?$AAt?$AA?5?$AAs?$AAu?$AAp?$AAp?$AAo?$AAr?$AAt?$AA?5@ 004c95d0     LIBCMTD:crt0msg.obj
 0002:0000d630       ??_C@_1FE@LLNEDJMD@?$AAR?$AA6?$AA0?$AA0?$AA8?$AA?$AN?$AA?6?$AA?9?$AA?5?$AAn?$AAo?$AAt?$AA?5?$AAe?$AAn?$AAo?$AAu?$AAg?$AAh?$AA?5?$AAs?$AAp?$AAa?$AAc?$AAe?$AA?5?$AAf?$AAo?$AAr?$AA?5?$AAa?$AAr@ 004c9630     LIBCMTD:crt0msg.obj
 0002:0000d688       ??_C@_1FI@HONFMGBI@?$AAR?$AA6?$AA0?$AA0?$AA9?$AA?$AN?$AA?6?$AA?9?$AA?5?$AAn?$AAo?$AAt?$AA?5?$AAe?$AAn?$AAo?$AAu?$AAg?$AAh?$AA?5?$AAs?$AAp?$AAa?$AAc?$AAe?$AA?5?$AAf?$AAo?$AAr?$AA?5?$AAe?$AAn@ 004c9688     LIBCMTD:crt0msg.obj
 0002:0000d6e0       ??_C@_1EG@BEHAGFJD@?$AAR?$AA6?$AA0?$AA1?$AA0?$AA?$AN?$AA?6?$AA?9?$AA?5?$AAa?$AAb?$AAo?$AAr?$AAt?$AA?$CI?$AA?$CJ?$AA?5?$AAh?$AAa?$AAs?$AA?5?$AAb?$AAe?$AAe?$AAn?$AA?5?$AAc?$AAa?$AAl?$AAl?$AAe?$AAd@ 004c96e0     LIBCMTD:crt0msg.obj
 0002:0000d728       ??_C@_1FI@LOGNIKDM@?$AAR?$AA6?$AA0?$AA1?$AA6?$AA?$AN?$AA?6?$AA?9?$AA?5?$AAn?$AAo?$AAt?$AA?5?$AAe?$AAn?$AAo?$AAu?$AAg?$AAh?$AA?5?$AAs?$AAp?$AAa?$AAc?$AAe?$AA?5?$AAf?$AAo?$AAr?$AA?5?$AAt?$AAh@ 004c9728     LIBCMTD:crt0msg.obj
 0002:0000d780       ??_C@_1FK@BEOGODMC@?$AAR?$AA6?$AA0?$AA1?$AA7?$AA?$AN?$AA?6?$AA?9?$AA?5?$AAu?$AAn?$AAe?$AAx?$AAp?$AAe?$AAc?$AAt?$AAe?$AAd?$AA?5?$AAm?$AAu?$AAl?$AAt?$AAi?$AAt?$AAh?$AAr?$AAe?$AAa?$AAd?$AA?5@ 004c9780     LIBCMTD:crt0msg.obj
 0002:0000d7e0       ??_C@_1EC@JIBHAOPH@?$AAR?$AA6?$AA0?$AA1?$AA8?$AA?$AN?$AA?6?$AA?9?$AA?5?$AAu?$AAn?$AAe?$AAx?$AAp?$AAe?$AAc?$AAt?$AAe?$AAd?$AA?5?$AAh?$AAe?$AAa?$AAp?$AA?5?$AAe?$AAr?$AAr?$AAo?$AAr?$AA?$AN?$AA?6@ 004c97e0     LIBCMTD:crt0msg.obj
 0002:0000d828       ??_C@_1FC@ECHBIFBC@?$AAR?$AA6?$AA0?$AA1?$AA9?$AA?$AN?$AA?6?$AA?9?$AA?5?$AAu?$AAn?$AAa?$AAb?$AAl?$AAe?$AA?5?$AAt?$AAo?$AA?5?$AAo?$AAp?$AAe?$AAn?$AA?5?$AAc?$AAo?$AAn?$AAs?$AAo?$AAl?$AAe?$AA?5@ 004c9828     LIBCMTD:crt0msg.obj
 0002:0000d880       ??_C@_1GK@FHCKBEFA@?$AAR?$AA6?$AA0?$AA2?$AA4?$AA?$AN?$AA?6?$AA?9?$AA?5?$AAn?$AAo?$AAt?$AA?5?$AAe?$AAn?$AAo?$AAu?$AAg?$AAh?$AA?5?$AAs?$AAp?$AAa?$AAc?$AAe?$AA?5?$AAf?$AAo?$AAr?$AA?5?$AA_?$AAo@ 004c9880     LIBCMTD:crt0msg.obj
 0002:0000d8f0       ??_C@_1EM@MAADIHMB@?$AAR?$AA6?$AA0?$AA2?$AA5?$AA?$AN?$AA?6?$AA?9?$AA?5?$AAp?$AAu?$AAr?$AAe?$AA?5?$AAv?$AAi?$AAr?$AAt?$AAu?$AAa?$AAl?$AA?5?$AAf?$AAu?$AAn?$AAc?$AAt?$AAi?$AAo?$AAn?$AA?5?$AAc@ 004c98f0     LIBCMTD:crt0msg.obj
 0002:0000d940       ??_C@_1GK@MCAAGJMO@?$AAR?$AA6?$AA0?$AA2?$AA6?$AA?$AN?$AA?6?$AA?9?$AA?5?$AAn?$AAo?$AAt?$AA?5?$AAe?$AAn?$AAo?$AAu?$AAg?$AAh?$AA?5?$AAs?$AAp?$AAa?$AAc?$AAe?$AA?5?$AAf?$AAo?$AAr?$AA?5?$AAs?$AAt@ 004c9940     LIBCMTD:crt0msg.obj
 0002:0000d9b0       ??_C@_1GK@MFGOKLAG@?$AAR?$AA6?$AA0?$AA2?$AA7?$AA?$AN?$AA?6?$AA?9?$AA?5?$AAn?$AAo?$AAt?$AA?5?$AAe?$AAn?$AAo?$AAu?$AAg?$AAh?$AA?5?$AAs?$AAp?$AAa?$AAc?$AAe?$AA?5?$AAf?$AAo?$AAr?$AA?5?$AAl?$AAo@ 004c99b0     LIBCMTD:crt0msg.obj
 0002:0000da20       ??_C@_1EK@HHFLMAOL@?$AAR?$AA6?$AA0?$AA2?$AA8?$AA?$AN?$AA?6?$AA?9?$AA?5?$AAu?$AAn?$AAa?$AAb?$AAl?$AAe?$AA?5?$AAt?$AAo?$AA?5?$AAi?$AAn?$AAi?$AAt?$AAi?$AAa?$AAl?$AAi?$AAz?$AAe?$AA?5?$AAh?$AAe@ 004c9a20     LIBCMTD:crt0msg.obj
 0002:0000da6c       ??_C@_1DO@BMFCDCD@?$AAR?$AA6?$AA0?$AA3?$AA0?$AA?$AN?$AA?6?$AA?9?$AA?5?$AAC?$AAR?$AAT?$AA?5?$AAn?$AAo?$AAt?$AA?5?$AAi?$AAn?$AAi?$AAt?$AAi?$AAa?$AAl?$AAi?$AAz?$AAe?$AAd?$AA?$AN?$AA?6?$AA?$AA@ 004c9a6c     LIBCMTD:crt0msg.obj
 0002:0000dab0       ??_C@_1MG@ENCOOIDF@?$AAR?$AA6?$AA0?$AA3?$AA1?$AA?$AN?$AA?6?$AA?9?$AA?5?$AAA?$AAt?$AAt?$AAe?$AAm?$AAp?$AAt?$AA?5?$AAt?$AAo?$AA?5?$AAi?$AAn?$AAi?$AAt?$AAi?$AAa?$AAl?$AAi?$AAz?$AAe?$AA?5?$AAt@ 004c9ab0     LIBCMTD:crt0msg.obj
 0002:0000db78       ??_C@_1GG@GOPILAJP@?$AAR?$AA6?$AA0?$AA3?$AA2?$AA?$AN?$AA?6?$AA?9?$AA?5?$AAn?$AAo?$AAt?$AA?5?$AAe?$AAn?$AAo?$AAu?$AAg?$AAh?$AA?5?$AAs?$AAp?$AAa?$AAc?$AAe?$AA?5?$AAf?$AAo?$AAr?$AA?5?$AAl?$AAo@ 004c9b78     LIBCMTD:crt0msg.obj
 0002:0000dbe0       ??_C@_1BOO@KGEDBGAJ@?$AAR?$AA6?$AA0?$AA3?$AA3?$AA?$AN?$AA?6?$AA?9?$AA?5?$AAA?$AAt?$AAt?$AAe?$AAm?$AAp?$AAt?$AA?5?$AAt?$AAo?$AA?5?$AAu?$AAs?$AAe?$AA?5?$AAM?$AAS?$AAI?$AAL?$AA?5?$AAc?$AAo?$AAd@ 004c9be0     LIBCMTD:crt0msg.obj
 0002:0000ddd0       ??_C@_1GG@MKFPEKFO@?$AAR?$AA6?$AA0?$AA3?$AA4?$AA?$AN?$AA?6?$AA?9?$AA?5?$AAi?$AAn?$AAc?$AAo?$AAn?$AAs?$AAi?$AAs?$AAt?$AAe?$AAn?$AAt?$AA?5?$AAo?$AAn?$AAe?$AAx?$AAi?$AAt?$AA?5?$AAb?$AAe?$AAg@ 004c9dd0     LIBCMTD:crt0msg.obj
 0002:0000de38       ??_C@_1BO@BFCDCGC@?$AAD?$AAO?$AAM?$AAA?$AAI?$AAN?$AA?5?$AAe?$AAr?$AAr?$AAo?$AAr?$AA?$AN?$AA?6?$AA?$AA@ 004c9e38     LIBCMTD:crt0msg.obj
 0002:0000de58       ??_C@_1BK@KMOMNAAI@?$AAS?$AAI?$AAN?$AAG?$AA?5?$AAe?$AAr?$AAr?$AAo?$AAr?$AA?$AN?$AA?6?$AA?$AA@ 004c9e58     LIBCMTD:crt0msg.obj
 0002:0000de74       ??_C@_1BM@JBBEPPHI@?$AAT?$AAL?$AAO?$AAS?$AAS?$AA?5?$AAe?$AAr?$AAr?$AAo?$AAr?$AA?$AN?$AA?6?$AA?$AA@ 004c9e74     LIBCMTD:crt0msg.obj
 0002:0000de90       ??_C@_15JNBOKNOG@?$AA?$AN?$AA?6?$AA?$AA@ 004c9e90     LIBCMTD:crt0msg.obj
 0002:0000de98       ??_C@_1BO@BKOMIGKJ@?$AAr?$AAu?$AAn?$AAt?$AAi?$AAm?$AAe?$AA?5?$AAe?$AAr?$AAr?$AAo?$AAr?$AA?5?$AA?$AA@ 004c9e98     LIBCMTD:crt0msg.obj
 0002:0000deb8       ??_C@_1FG@ILOHEEMG@?$AAf?$AA?3?$AA?2?$AAd?$AAd?$AA?2?$AAv?$AAc?$AAt?$AAo?$AAo?$AAl?$AAs?$AA?2?$AAc?$AAr?$AAt?$AA?2?$AAc?$AAr?$AAt?$AAw?$AA3?$AA2?$AA?2?$AAs?$AAt?$AAa?$AAr?$AAt?$AAu?$AAp@ 004c9eb8     LIBCMTD:crt0msg.obj
 0002:0000df10       ??_C@_1BI@EAHMBMEC@?$AA_?$AAN?$AAM?$AAS?$AAG?$AA_?$AAW?$AAR?$AAI?$AAT?$AAE?$AA?$AA@ 004c9f10     LIBCMTD:crt0msg.obj
 0002:0000df28       ??_C@_1KO@BKLCKNFL@?$AAw?$AAc?$AAs?$AAc?$AAp?$AAy?$AA_?$AAs?$AA?$CI?$AAo?$AAu?$AAt?$AAm?$AAs?$AAg?$AA?0?$AA?5?$AA?$CI?$AAs?$AAi?$AAz?$AAe?$AAo?$AAf?$AA?$CI?$AAo?$AAu?$AAt?$AAm?$AAs?$AAg?$AA?$CJ@ 004c9f28     LIBCMTD:crt0msg.obj
 0002:0000dfd8       ??_C@_1DE@JNGNBFGO@?$AAR?$AAu?$AAn?$AAt?$AAi?$AAm?$AAe?$AA?5?$AAE?$AAr?$AAr?$AAo?$AAr?$AA?$CB?$AA?6?$AA?6?$AAP?$AAr?$AAo?$AAg?$AAr?$AAa?$AAm?$AA?3?$AA?5?$AA?$AA@ 004c9fd8     LIBCMTD:crt0msg.obj
 0002:0000e010       ??_C@_1HK@FJJNAABO@?$AAw?$AAc?$AAs?$AAc?$AAp?$AAy?$AA_?$AAs?$AA?$CI?$AAp?$AAr?$AAo?$AAg?$AAn?$AAa?$AAm?$AAe?$AA?0?$AA?5?$AAp?$AAr?$AAo?$AAg?$AAn?$AAa?$AAm?$AAe?$AA_?$AAs?$AAi?$AAz?$AAe@ 004ca010     LIBCMTD:crt0msg.obj
 0002:0000e090       ??_C@_1HI@FLHKGEBE@?$AAw?$AAc?$AAs?$AAn?$AAc?$AAp?$AAy?$AA_?$AAs?$AA?$CI?$AAp?$AAc?$AAh?$AA?0?$AA?5?$AAp?$AAr?$AAo?$AAg?$AAn?$AAa?$AAm?$AAe?$AA_?$AAs?$AAi?$AAz?$AAe?$AA?5?$AA?9?$AA?5?$AA?$CI@ 004ca090     LIBCMTD:crt0msg.obj
 0002:0000e108       ??_C@_1IA@DCJGKHFO@?$AAw?$AAc?$AAs?$AAc?$AAa?$AAt?$AA_?$AAs?$AA?$CI?$AAo?$AAu?$AAt?$AAm?$AAs?$AAg?$AA?0?$AA?5?$AA?$CI?$AAs?$AAi?$AAz?$AAe?$AAo?$AAf?$AA?$CI?$AAo?$AAu?$AAt?$AAm?$AAs?$AAg?$AA?$CJ@ 004ca108     LIBCMTD:crt0msg.obj
 0002:0000e188       ??_C@_1IG@NMONDPP@?$AAw?$AAc?$AAs?$AAc?$AAa?$AAt?$AA_?$AAs?$AA?$CI?$AAo?$AAu?$AAt?$AAm?$AAs?$AAg?$AA?0?$AA?5?$AA?$CI?$AAs?$AAi?$AAz?$AAe?$AAo?$AAf?$AA?$CI?$AAo?$AAu?$AAt?$AAm?$AAs?$AAg?$AA?$CJ@ 004ca188     LIBCMTD:crt0msg.obj
 0002:0000e210       ??_C@_0CH@JPGODKFM@f?3?2dd?2vctools?2crt?2crtw32?2misc?2on@ 004ca210     LIBCMTD:onexit.obj
 0002:0000e238       ??_C@_1BC@JLLICHIC@?$AAp?$AAn?$AAh?$AA?5?$AA?$DN?$AA?$DN?$AA?5?$AA0?$AA?$AA@ 004ca238     LIBCMTD:handler.obj
 0002:0000e250       ??_C@_1FE@HELBPGKC@?$AAf?$AA?3?$AA?2?$AAd?$AAd?$AA?2?$AAv?$AAc?$AAt?$AAo?$AAo?$AAl?$AAs?$AA?2?$AAc?$AAr?$AAt?$AA?2?$AAc?$AAr?$AAt?$AAw?$AA3?$AA2?$AA?2?$AAh?$AAe?$AAa?$AAp?$AA?2?$AAh?$AAa@ 004ca250     LIBCMTD:handler.obj
 0002:0000e2a4       ??_C@_0CJ@PLENACMA@f?3?2dd?2vctools?2crt?2crtw32?2misc?2in@ 004ca2a4     LIBCMTD:inithelp.obj
 0002:0000e2d0       ??_C@_1FC@PPCAPEFB@?$AAf?$AA?3?$AA?2?$AAd?$AAd?$AA?2?$AAv?$AAc?$AAt?$AAo?$AAo?$AAl?$AAs?$AA?2?$AAc?$AAr?$AAt?$AA?2?$AAc?$AAr?$AAt?$AAw?$AA3?$AA2?$AA?2?$AAm?$AAi?$AAs?$AAc?$AA?2?$AAi?$AAn@ 004ca2d0     LIBCMTD:inithelp.obj
 0002:0000e324       ??_C@_1CA@KHHCPEI@?$AA_?$AA_?$AAg?$AAe?$AAt?$AAl?$AAo?$AAc?$AAa?$AAl?$AAe?$AAi?$AAn?$AAf?$AAo?$AA?$AA@ 004ca324     LIBCMTD:inithelp.obj
 0002:0000e348       ??_C@_1GO@NGIGJNHH@?$AAs?$AAt?$AAr?$AAn?$AAc?$AAp?$AAy?$AA_?$AAs?$AA?$CI?$AA?$CK?$AAs?$AAt?$AAr?$AAa?$AAd?$AAd?$AAr?$AAe?$AAs?$AAs?$AA?0?$AA?5?$AAo?$AAu?$AAt?$AAs?$AAi?$AAz?$AAe?$AA?0?$AA?5@ 004ca348     LIBCMTD:inithelp.obj
 0002:0000e3b8       ??_C@_0CH@KINPIPGE@f?3?2dd?2vctools?2crt?2crtw32?2misc?2wi@ 004ca3b8     LIBCMTD:winsig.obj
 0002:0000e3e0       ??_C@_1DO@MLNEDKGB@?$AA?$CI?$AA?$CC?$AAI?$AAn?$AAv?$AAa?$AAl?$AAi?$AAd?$AA?5?$AAs?$AAi?$AAg?$AAn?$AAa?$AAl?$AA?5?$AAo?$AAr?$AA?5?$AAe?$AAr?$AAr?$AAo?$AAr?$AA?$CC?$AA?0?$AA?5?$AA0?$AA?$CJ?$AA?$AA@ 004ca3e0     LIBCMTD:winsig.obj
 0002:0000e420       ??_C@_1EO@BCKLPCCI@?$AAf?$AA?3?$AA?2?$AAd?$AAd?$AA?2?$AAv?$AAc?$AAt?$AAo?$AAo?$AAl?$AAs?$AA?2?$AAc?$AAr?$AAt?$AA?2?$AAc?$AAr?$AAt?$AAw?$AA3?$AA2?$AA?2?$AAm?$AAi?$AAs?$AAc?$AA?2?$AAw?$AAi@ 004ca420     LIBCMTD:winsig.obj
 0002:0000e470       ??_C@_1O@EJLDHPPL@?$AAs?$AAi?$AAg?$AAn?$AAa?$AAl?$AA?$AA@ 004ca470     LIBCMTD:winsig.obj
 0002:0000e480       ??_C@_1M@DMJEIKHL@?$AAr?$AAa?$AAi?$AAs?$AAe?$AA?$AA@ 004ca480     LIBCMTD:winsig.obj
 0002:0000e48c       ??_C@_1CK@GFDNDKK@?$AA_?$AAR?$AAa?$AAn?$AAd?$AAo?$AAm?$AAV?$AAa?$AAl?$AAu?$AAe?$AA?5?$AA?$CB?$AA?$DN?$AA?5?$AAN?$AAU?$AAL?$AAL?$AA?$AA@ 004ca48c     LIBCMTD:rand_s.obj
 0002:0000e4b8       ??_C@_1EO@GANOMFFN@?$AAf?$AA?3?$AA?2?$AAd?$AAd?$AA?2?$AAv?$AAc?$AAt?$AAo?$AAo?$AAl?$AAs?$AA?2?$AAc?$AAr?$AAt?$AA?2?$AAc?$AAr?$AAt?$AAw?$AA3?$AA2?$AA?2?$AAm?$AAi?$AAs?$AAc?$AA?2?$AAr?$AAa@ 004ca4b8     LIBCMTD:rand_s.obj
 0002:0000e508       ??_C@_1O@IJGPPOGF@?$AAr?$AAa?$AAn?$AAd?$AA_?$AAs?$AA?$AA@ 004ca508     LIBCMTD:rand_s.obj
 0002:0000e518       ??_C@_1BK@GAEMIDIL@?$AAA?$AAD?$AAV?$AAA?$AAP?$AAI?$AA3?$AA2?$AA?4?$AAD?$AAL?$AAL?$AA?$AA@ 004ca518     LIBCMTD:rand_s.obj
 0002:0000e538       ??_C@_1GA@EBEDGGGB@?$AA?$CI?$AA?$CC?$AAr?$AAa?$AAn?$AAd?$AA_?$AAs?$AA?5?$AAi?$AAs?$AA?5?$AAn?$AAo?$AAt?$AA?5?$AAa?$AAv?$AAa?$AAi?$AAl?$AAa?$AAb?$AAl?$AAe?$AA?5?$AAo?$AAn?$AA?5?$AAt?$AAh?$AAi@ 004ca538     LIBCMTD:rand_s.obj
 0002:0000e598       ??_C@_0BC@JEAENNKH@SystemFunction036?$AA@ 004ca598     LIBCMTD:rand_s.obj
 0002:0000e5ac       ??_C@_1BI@MFCLPIBM@?$AAs?$AAt?$AAr?$AA?5?$AA?$CB?$AA?$DN?$AA?5?$AAN?$AAU?$AAL?$AAL?$AA?$AA@ 004ca5ac     LIBCMTD:_sftbuf.obj
 0002:0000e5c8       ??_C@_1FC@LKGACDMH@?$AAf?$AA?3?$AA?2?$AAd?$AAd?$AA?2?$AAv?$AAc?$AAt?$AAo?$AAo?$AAl?$AAs?$AA?2?$AAc?$AAr?$AAt?$AA?2?$AAc?$AAr?$AAt?$AAw?$AA3?$AA2?$AA?2?$AAs?$AAt?$AAd?$AAi?$AAo?$AA?2?$AA_@ 004ca5c8     LIBCMTD:_sftbuf.obj
 0002:0000e61c       ??_C@_0CJ@KDJGPIJL@f?3?2dd?2vctools?2crt?2crtw32?2stdio?2_@ 004ca61c     LIBCMTD:_sftbuf.obj
 0002:0000e648       ??_C@_1CO@KCKAACMI@?$AAf?$AAl?$AAa?$AAg?$AA?5?$AA?$DN?$AA?$DN?$AA?5?$AA0?$AA?5?$AA?$HM?$AA?$HM?$AA?5?$AAf?$AAl?$AAa?$AAg?$AA?5?$AA?$DN?$AA?$DN?$AA?5?$AA1?$AA?$AA@ 004ca648     LIBCMTD:_sftbuf.obj
 0002:0000e678       ??_C@_1BK@LAOAACLJ@?$AAn?$AAp?$AAt?$AAr?$AA?5?$AA?$CB?$AA?$DN?$AA?5?$AAN?$AAU?$AAL?$AAL?$AA?$AA@ 004ca678     LIBCMTD:strtoq.obj
 0002:0000e698       ??_C@_1FE@JDMNKKN@?$AAf?$AA?3?$AA?2?$AAd?$AAd?$AA?2?$AAv?$AAc?$AAt?$AAo?$AAo?$AAl?$AAs?$AA?2?$AAc?$AAr?$AAt?$AA?2?$AAc?$AAr?$AAt?$AAw?$AA3?$AA2?$AA?2?$AAc?$AAo?$AAn?$AAv?$AAe?$AAr?$AAt@ 004ca698     LIBCMTD:strtoq.obj
 0002:0000e6ec       ??_C@_1BA@BMMDEPNE@?$AAs?$AAt?$AAr?$AAt?$AAo?$AAx?$AAq?$AA?$AA@ 004ca6ec     LIBCMTD:strtoq.obj
 0002:0000e700       ??_C@_1FE@CEHLKAHD@?$AAi?$AAb?$AAa?$AAs?$AAe?$AA?5?$AA?$DN?$AA?$DN?$AA?5?$AA0?$AA?5?$AA?$HM?$AA?$HM?$AA?5?$AA?$CI?$AA2?$AA?5?$AA?$DM?$AA?$DN?$AA?5?$AAi?$AAb?$AAa?$AAs?$AAe?$AA?5?$AA?$CG?$AA?$CG?$AA?5?$AAi?$AAb?$AAa@ 004ca700     LIBCMTD:strtoq.obj
 0002:0000e758       ??_C@_1FE@OOICPOFH@?$AAf?$AA?3?$AA?2?$AAd?$AAd?$AA?2?$AAv?$AAc?$AAt?$AAo?$AAo?$AAl?$AAs?$AA?2?$AAc?$AAr?$AAt?$AA?2?$AAc?$AAr?$AAt?$AAw?$AA3?$AA2?$AA?2?$AAc?$AAo?$AAn?$AAv?$AAe?$AAr?$AAt@ 004ca758     LIBCMTD:strtol.obj
 0002:0000e7ac       ??_C@_1BA@LOLAMAJG@?$AAs?$AAt?$AAr?$AAt?$AAo?$AAx?$AAl?$AA?$AA@ 004ca7ac     LIBCMTD:strtol.obj
 0002:0000e7c0       ??_C@_1FA@CKEACION@?$AAf?$AA?3?$AA?2?$AAd?$AAd?$AA?2?$AAv?$AAc?$AAt?$AAo?$AAo?$AAl?$AAs?$AA?2?$AAc?$AAr?$AAt?$AA?2?$AAc?$AAr?$AAt?$AAw?$AA3?$AA2?$AA?2?$AAs?$AAt?$AAd?$AAi?$AAo?$AA?2?$AAf@ 004ca7c0     LIBCMTD:fileno.obj
 0002:0000e810       ??_C@_1BA@JGHIEKKM@?$AA_?$AAf?$AAi?$AAl?$AAe?$AAn?$AAo?$AA?$AA@ 004ca810     LIBCMTD:fileno.obj
 0002:0000e820       ??_C@_1FO@LPCLHKGE@?$AA?$CI?$AAf?$AAh?$AA?5?$AA?$DO?$AA?$DN?$AA?5?$AA0?$AA?5?$AA?$CG?$AA?$CG?$AA?5?$AA?$CI?$AAu?$AAn?$AAs?$AAi?$AAg?$AAn?$AAe?$AAd?$AA?$CJ?$AAf?$AAh?$AA?5?$AA?$DM?$AA?5?$AA?$CI?$AAu?$AAn?$AAs?$AAi@ 004ca820     LIBCMTD:close.obj
 0002:0000e880       ??_C@_1EO@EJLBBGEB@?$AAf?$AA?3?$AA?2?$AAd?$AAd?$AA?2?$AAv?$AAc?$AAt?$AAo?$AAo?$AAl?$AAs?$AA?2?$AAc?$AAr?$AAt?$AA?2?$AAc?$AAr?$AAt?$AAw?$AA3?$AA2?$AA?2?$AAl?$AAo?$AAw?$AAi?$AAo?$AA?2?$AAc@ 004ca880     LIBCMTD:close.obj
 0002:0000e8d0       ??_C@_1O@EDEJGJBM@?$AA_?$AAc?$AAl?$AAo?$AAs?$AAe?$AA?$AA@ 004ca8d0     LIBCMTD:close.obj
 0002:0000e8e0       ??_C@_1CM@OKGMMMDH@?$AA?$CI?$AA_?$AAo?$AAs?$AAf?$AAi?$AAl?$AAe?$AA?$CI?$AAf?$AAh?$AA?$CJ?$AA?5?$AA?$CG?$AA?5?$AAF?$AAO?$AAP?$AAE?$AAN?$AA?$CJ?$AA?$AA@ 004ca8e0     LIBCMTD:close.obj
 0002:0000e910       ??_C@_1JE@ECKHFIFP@?$AA?$CI?$AA?$CC?$AAI?$AAn?$AAv?$AAa?$AAl?$AAi?$AAd?$AA?5?$AAf?$AAi?$AAl?$AAe?$AA?5?$AAd?$AAe?$AAs?$AAc?$AAr?$AAi?$AAp?$AAt?$AAo?$AAr?$AA?4?$AA?5?$AAF?$AAi?$AAl?$AAe?$AA?5@ 004ca910     LIBCMTD:close.obj
 0002:0000e9a4       ??_C@_1BO@KIJENGPH@?$AAs?$AAt?$AAr?$AAe?$AAa?$AAm?$AA?5?$AA?$CB?$AA?$DN?$AA?5?$AAN?$AAU?$AAL?$AAL?$AA?$AA@ 004ca9a4     LIBCMTD:_freebuf.obj
 0002:0000e9c8       ??_C@_1FE@DBCNNJOP@?$AAf?$AA?3?$AA?2?$AAd?$AAd?$AA?2?$AAv?$AAc?$AAt?$AAo?$AAo?$AAl?$AAs?$AA?2?$AAc?$AAr?$AAt?$AA?2?$AAc?$AAr?$AAt?$AAw?$AA3?$AA2?$AA?2?$AAs?$AAt?$AAd?$AAi?$AAo?$AA?2?$AA_@ 004ca9c8     LIBCMTD:_freebuf.obj
 0002:0000ea20       ??_C@_1FC@KLDIFLFI@?$AAf?$AA?3?$AA?2?$AAd?$AAd?$AA?2?$AAv?$AAc?$AAt?$AAo?$AAo?$AAl?$AAs?$AA?2?$AAc?$AAr?$AAt?$AA?2?$AAc?$AAr?$AAt?$AAw?$AA3?$AA2?$AA?2?$AAs?$AAt?$AAd?$AAi?$AAo?$AA?2?$AA_@ 004caa20     LIBCMTD:_filbuf.obj
 0002:0000ea74       ??_C@_1BA@IIKEPOGH@?$AA_?$AAf?$AAi?$AAl?$AAb?$AAu?$AAf?$AA?$AA@ 004caa74     LIBCMTD:_filbuf.obj
 0002:0000ea84       ??_C@_0CI@BIOGDJKL@f?3?2dd?2vctools?2crt?2crtw32?2lowio?2i@ 004caa84     LIBCMTD:ioinit.obj
 0002:0000eaac       ??_C@_0CI@CCALCGFN@f?3?2dd?2vctools?2crt?2crtw32?2stdio?2s@ 004caaac     LIBCMTD:stream.obj
 0002:0000eaf4       ??_C@_1CC@JBMDNKJP@?$AAf?$AAi?$AAl?$AAe?$AAn?$AAa?$AAm?$AAe?$AA?5?$AA?$CB?$AA?$DN?$AA?5?$AAN?$AAU?$AAL?$AAL?$AA?$AA@ 004caaf4     LIBCMTD:_open.obj
 0002:0000eb18       ??_C@_1EO@FCBMLNIH@?$AAf?$AA?3?$AA?2?$AAd?$AAd?$AA?2?$AAv?$AAc?$AAt?$AAo?$AAo?$AAl?$AAs?$AA?2?$AAc?$AAr?$AAt?$AA?2?$AAc?$AAr?$AAt?$AAw?$AA3?$AA2?$AA?2?$AAs?$AAt?$AAd?$AAi?$AAo?$AA?2?$AA_@ 004cab18     LIBCMTD:_open.obj
 0002:0000eb68       ??_C@_1BK@HGLMNMEC@?$AAm?$AAo?$AAd?$AAe?$AA?5?$AA?$CB?$AA?$DN?$AA?5?$AAN?$AAU?$AAL?$AAL?$AA?$AA@ 004cab68     LIBCMTD:_open.obj
 0002:0000eb84       ??_C@_1DK@PKMJBLLN@?$AA?$CI?$AA?$CC?$AAI?$AAn?$AAv?$AAa?$AAl?$AAi?$AAd?$AA?5?$AAf?$AAi?$AAl?$AAe?$AA?5?$AAo?$AAp?$AAe?$AAn?$AA?5?$AAm?$AAo?$AAd?$AAe?$AA?$CC?$AA?0?$AA0?$AA?$CJ?$AA?$AA@ 004cab84     LIBCMTD:_open.obj
 0002:0000ebc0       ??_C@_1BE@DONHJJKE@?$AA_?$AAo?$AAp?$AAe?$AAn?$AAf?$AAi?$AAl?$AAe?$AA?$AA@ 004cabc0     LIBCMTD:_open.obj
 0002:0000ebd4       ??_C@_1CI@KEDPFCAL@?$AA?$CI?$AA?$CK?$AAm?$AAo?$AAd?$AAe?$AA?5?$AA?$DN?$AA?$DN?$AA?5?$AA_?$AAT?$AA?$CI?$AA?8?$AA?2?$AA0?$AA?8?$AA?$CJ?$AA?$CJ?$AA?$AA@ 004cabd4     LIBCMTD:_open.obj
 0002:0000ec00       ??_C@_1FE@MJOOBDBG@?$AAf?$AA?3?$AA?2?$AAd?$AAd?$AA?2?$AAv?$AAc?$AAt?$AAo?$AAo?$AAl?$AAs?$AA?2?$AAc?$AAr?$AAt?$AA?2?$AAc?$AAr?$AAt?$AAw?$AA3?$AA2?$AA?2?$AAs?$AAt?$AAd?$AAi?$AAo?$AA?2?$AAv@ 004cac00     LIBCMTD:vfprintf.obj
 0002:0000ec54       ??_C@_1CA@OEHMHBJF@?$AAv?$AAf?$AAp?$AAr?$AAi?$AAn?$AAt?$AAf?$AA_?$AAh?$AAe?$AAl?$AAp?$AAe?$AAr?$AA?$AA@ 004cac54     LIBCMTD:vfprintf.obj
 0002:0000ec74       ??_C@_06OJHGLDPL@?$CInull?$CJ?$AA@ 004cac74     LIBCMTD:output.obj
 0002:0000ec7c       ??_C@_1O@CEDCILHN@?$AA?$CI?$AAn?$AAu?$AAl?$AAl?$AA?$CJ?$AA?$AA@ 004cac7c     LIBCMTD:output.obj
 0002:0000ec90       ___lookuptable             004cac90     LIBCMTD:output.obj
 0002:0000ecf0       ??_C@_1FA@KMIJDCIC@?$AAf?$AA?3?$AA?2?$AAd?$AAd?$AA?2?$AAv?$AAc?$AAt?$AAo?$AAo?$AAl?$AAs?$AA?2?$AAc?$AAr?$AAt?$AA?2?$AAc?$AAr?$AAt?$AAw?$AA3?$AA2?$AA?2?$AAs?$AAt?$AAd?$AAi?$AAo?$AA?2?$AAo@ 004cacf0     LIBCMTD:output.obj
 0002:0000ed40       ??_C@_1BE@IONLIDNC@?$AA_?$AAo?$AAu?$AAt?$AAp?$AAu?$AAt?$AA_?$AAl?$AA?$AA@ 004cad40     LIBCMTD:output.obj
 0002:0000ed54       ??_C@_1CC@IFFHEMNF@?$AA?$CI?$AAc?$AAh?$AA?5?$AA?$CB?$AA?$DN?$AA?5?$AA_?$AAT?$AA?$CI?$AA?8?$AA?2?$AA0?$AA?8?$AA?$CJ?$AA?$CJ?$AA?$AA@ 004cad54     LIBCMTD:output.obj
 0002:0000ed78       ??_C@_1EK@PNGFDECN@?$AA?$CI?$AA?$CC?$AA?8?$AAn?$AA?8?$AA?5?$AAf?$AAo?$AAr?$AAm?$AAa?$AAt?$AA?5?$AAs?$AAp?$AAe?$AAc?$AAi?$AAf?$AAi?$AAe?$AAr?$AA?5?$AAd?$AAi?$AAs?$AAa?$AAb?$AAl?$AAe?$AAd?$AA?$CC@ 004cad78     LIBCMTD:output.obj
 0002:0000edc4       ??_C@_0CI@CMOPBIOD@f?3?2dd?2vctools?2crt?2crtw32?2stdio?2o@ 004cadc4     LIBCMTD:output.obj
 0002:0000edec       ??_C@_1BI@GKKCBDMD@?$AAd?$AAs?$AAt?$AA?5?$AA?$CB?$AA?$DN?$AA?5?$AAN?$AAU?$AAL?$AAL?$AA?$AA@ 004cadec     LIBCMTD:memcpy_s.obj
 0002:0000ee08       ??_C@_1FG@COJCEIPE@?$AAf?$AA?3?$AA?2?$AAd?$AAd?$AA?2?$AAv?$AAc?$AAt?$AAo?$AAo?$AAl?$AAs?$AA?2?$AAc?$AAr?$AAt?$AA?2?$AAc?$AAr?$AAt?$AAw?$AA3?$AA2?$AA?2?$AAs?$AAt?$AAr?$AAi?$AAn?$AAg?$AA?2@ 004cae08     LIBCMTD:memcpy_s.obj
 0002:0000ee60       ??_C@_1BC@GKHDJMGB@?$AAm?$AAe?$AAm?$AAc?$AAp?$AAy?$AA_?$AAs?$AA?$AA@ 004cae60     LIBCMTD:memcpy_s.obj
 0002:0000ee74       ??_C@_1BI@DCHLDCPP@?$AAs?$AAr?$AAc?$AA?5?$AA?$CB?$AA?$DN?$AA?5?$AAN?$AAU?$AAL?$AAL?$AA?$AA@ 004cae74     LIBCMTD:memcpy_s.obj
 0002:0000ee8c       ??_C@_1CK@DDKKOLAN@?$AAs?$AAi?$AAz?$AAe?$AAI?$AAn?$AAB?$AAy?$AAt?$AAe?$AAs?$AA?5?$AA?$DO?$AA?$DN?$AA?5?$AAc?$AAo?$AAu?$AAn?$AAt?$AA?$AA@ 004cae8c     LIBCMTD:memcpy_s.obj
 0002:0000eeb8       ??_C@_1EM@BALFJBIJ@?$AAf?$AA?3?$AA?2?$AAd?$AAd?$AA?2?$AAv?$AAc?$AAt?$AAo?$AAo?$AAl?$AAs?$AA?2?$AAc?$AAr?$AAt?$AA?2?$AAc?$AAr?$AAt?$AAw?$AA3?$AA2?$AA?2?$AAl?$AAo?$AAw?$AAi?$AAo?$AA?2?$AAr@ 004caeb8     LIBCMTD:read.obj
 0002:0000ef04       ??_C@_1M@NHJOLLDM@?$AA_?$AAr?$AAe?$AAa?$AAd?$AA?$AA@ 004caf04     LIBCMTD:read.obj
 0002:0000ef10       ??_C@_1CC@HBLPFNKH@?$AA?$CI?$AAc?$AAn?$AAt?$AA?5?$AA?$DM?$AA?$DN?$AA?5?$AAI?$AAN?$AAT?$AA_?$AAM?$AAA?$AAX?$AA?$CJ?$AA?$AA@ 004caf10     LIBCMTD:read.obj
 0002:0000ef34       ??_C@_1BK@JJBHNDKJ@?$AA_?$AAr?$AAe?$AAa?$AAd?$AA_?$AAn?$AAo?$AAl?$AAo?$AAc?$AAk?$AA?$AA@ 004caf34     LIBCMTD:read.obj
 0002:0000ef50       ??_C@_1CG@OHLJHGGK@?$AA?$CI?$AAi?$AAn?$AAp?$AAu?$AAt?$AAb?$AAu?$AAf?$AA?5?$AA?$CB?$AA?$DN?$AA?5?$AAN?$AAU?$AAL?$AAL?$AA?$CJ?$AA?$AA@ 004caf50     LIBCMTD:read.obj
 0002:0000ef78       ??_C@_1CC@EEOLPHGO@?$AA?$CI?$AA?$CI?$AAc?$AAn?$AAt?$AA?5?$AA?$CG?$AA?5?$AA1?$AA?$CJ?$AA?5?$AA?$DN?$AA?$DN?$AA?5?$AA0?$AA?$CJ?$AA?$AA@ 004caf78     LIBCMTD:read.obj
 0002:0000ef9c       ??_C@_0CG@JHNDLPLJ@f?3?2dd?2vctools?2crt?2crtw32?2lowio?2r@ 004caf9c     LIBCMTD:read.obj
 0002:0000efc8       ??_C@_1EO@CCHAPCBN@?$AAf?$AA?3?$AA?2?$AAd?$AAd?$AA?2?$AAv?$AAc?$AAt?$AAo?$AAo?$AAl?$AAs?$AA?2?$AAc?$AAr?$AAt?$AA?2?$AAc?$AAr?$AAt?$AAw?$AA3?$AA2?$AA?2?$AAl?$AAo?$AAw?$AAi?$AAo?$AA?2?$AAl@ 004cafc8     LIBCMTD:lseek.obj
 0002:0000f018       ??_C@_1O@EDOIKGHF@?$AA_?$AAl?$AAs?$AAe?$AAe?$AAk?$AA?$AA@ 004cb018     LIBCMTD:lseek.obj
 0002:0000f028       ??_C@_1DM@LMLOLGJ@?$AA?$CI?$AA?$CC?$AAI?$AAn?$AAv?$AAa?$AAl?$AAi?$AAd?$AA?5?$AAf?$AAi?$AAl?$AAe?$AA?5?$AAd?$AAe?$AAs?$AAc?$AAr?$AAi?$AAp?$AAt?$AAo?$AAr?$AA?$CC?$AA?0?$AA0?$AA?$CJ?$AA?$AA@ 004cb028     LIBCMTD:lseek.obj
 0002:0000f068       ??_C@_1FE@NDDOFCDF@?$AAf?$AA?3?$AA?2?$AAd?$AAd?$AA?2?$AAv?$AAc?$AAt?$AAo?$AAo?$AAl?$AAs?$AA?2?$AAc?$AAr?$AAt?$AA?2?$AAc?$AAr?$AAt?$AAw?$AA3?$AA2?$AA?2?$AAl?$AAo?$AAw?$AAi?$AAo?$AA?2?$AAl@ 004cb068     LIBCMTD:lseeki64.obj
 0002:0000f0bc       ??_C@_1BE@KHFBJMNM@?$AA_?$AAl?$AAs?$AAe?$AAe?$AAk?$AAi?$AA6?$AA4?$AA?$AA@ 004cb0bc     LIBCMTD:lseeki64.obj
 0002:0000f0d0       ??_C@_1FC@OBEHAONE@?$AAf?$AA?3?$AA?2?$AAd?$AAd?$AA?2?$AAv?$AAc?$AAt?$AAo?$AAo?$AAl?$AAs?$AA?2?$AAc?$AAr?$AAt?$AA?2?$AAc?$AAr?$AAt?$AAw?$AA3?$AA2?$AA?2?$AAs?$AAt?$AAd?$AAi?$AAo?$AA?2?$AA_@ 004cb0d0     LIBCMTD:_flsbuf.obj
 0002:0000f128       ??_C@_1HO@MLMGPAFH@?$AA?$CI?$AA?$CC?$AAi?$AAn?$AAc?$AAo?$AAn?$AAs?$AAi?$AAs?$AAt?$AAe?$AAn?$AAt?$AA?5?$AAI?$AAO?$AAB?$AA?5?$AAf?$AAi?$AAe?$AAl?$AAd?$AAs?$AA?$CC?$AA?0?$AA?5?$AAs?$AAt?$AAr?$AAe@ 004cb128     LIBCMTD:_flsbuf.obj
 0002:0000f1a8       ??_C@_1EO@NLGPLDCN@?$AAf?$AA?3?$AA?2?$AAd?$AAd?$AA?2?$AAv?$AAc?$AAt?$AAo?$AAo?$AAl?$AAs?$AA?2?$AAc?$AAr?$AAt?$AA?2?$AAc?$AAr?$AAt?$AAw?$AA3?$AA2?$AA?2?$AAl?$AAo?$AAw?$AAi?$AAo?$AA?2?$AAw@ 004cb1a8     LIBCMTD:write.obj
 0002:0000f1f8       ??_C@_1O@KOFKDHPL@?$AA_?$AAw?$AAr?$AAi?$AAt?$AAe?$AA?$AA@ 004cb1f8     LIBCMTD:write.obj
 0002:0000f208       ??_C@_1BM@KFJLMBPG@?$AA?$CI?$AAb?$AAu?$AAf?$AA?5?$AA?$CB?$AA?$DN?$AA?5?$AAN?$AAU?$AAL?$AAL?$AA?$CJ?$AA?$AA@ 004cb208     LIBCMTD:write.obj
 0002:0000f224       ??_C@_1BM@NCANHCIP@?$AA_?$AAw?$AAr?$AAi?$AAt?$AAe?$AA_?$AAn?$AAo?$AAl?$AAo?$AAc?$AAk?$AA?$AA@ 004cb224     LIBCMTD:write.obj
 0002:0000f240       ??_C@_1DI@CNMHHHLG@?$AAi?$AAs?$AAl?$AAe?$AAa?$AAd?$AAb?$AAy?$AAt?$AAe?$AA?$CI?$AA_?$AAd?$AAb?$AAc?$AAs?$AAB?$AAu?$AAf?$AAf?$AAe?$AAr?$AA?$CI?$AAf?$AAh?$AA?$CJ?$AA?$CJ?$AA?$AA@ 004cb240     LIBCMTD:write.obj
 0002:0000f278       ??_C@_1FC@LLDAFLML@?$AAf?$AA?3?$AA?2?$AAd?$AAd?$AA?2?$AAv?$AAc?$AAt?$AAo?$AAo?$AAl?$AAs?$AA?2?$AAc?$AAr?$AAt?$AA?2?$AAc?$AAr?$AAt?$AAw?$AA3?$AA2?$AA?2?$AAs?$AAt?$AAd?$AAi?$AAo?$AA?2?$AAv@ 004cb278     LIBCMTD:vprintf.obj
 0002:0000f2cc       ??_C@_1BO@JGFPDJCP@?$AAv?$AAp?$AAr?$AAi?$AAn?$AAt?$AAf?$AA_?$AAh?$AAe?$AAl?$AAp?$AAe?$AAr?$AA?$AA@ 004cb2cc     LIBCMTD:vprintf.obj
 0002:0000f2ec       ??_C@_1CE@PCFPEIFI@?$AA_?$AAv?$AAs?$AAn?$AAp?$AAr?$AAi?$AAn?$AAt?$AAf?$AA_?$AAh?$AAe?$AAl?$AAp?$AAe?$AAr?$AA?$AA@ 004cb2ec     LIBCMTD:vsnprnc.obj
 0002:0000f310       ??_C@_1EC@FABAOFFO@?$AA?$CI?$AAc?$AAo?$AAu?$AAn?$AAt?$AA?5?$AA?$DN?$AA?$DN?$AA?5?$AA0?$AA?$CJ?$AA?5?$AA?$HM?$AA?$HM?$AA?5?$AA?$CI?$AAs?$AAt?$AAr?$AAi?$AAn?$AAg?$AA?5?$AA?$CB?$AA?$DN?$AA?5?$AAN?$AAU?$AAL?$AAL?$AA?$CJ@ 004cb310     LIBCMTD:vsnprnc.obj
 0002:0000f354       ??_C@_1BO@MLMCMBKN@?$AAf?$AAo?$AAr?$AAm?$AAa?$AAt?$AA?5?$AA?$CB?$AA?$DN?$AA?5?$AAN?$AAU?$AAL?$AAL?$AA?$AA@ 004cb354     LIBCMTD:vsnprnc.obj
 0002:0000f374       ??_C@_1BM@BLJALHEF@?$AA_?$AAv?$AAs?$AAp?$AAr?$AAi?$AAn?$AAt?$AAf?$AA_?$AAs?$AA_?$AAl?$AA?$AA@ 004cb374     LIBCMTD:vsnprnc.obj
 0002:0000f390       ??_C@_1EE@OKCKIGFK@?$AAs?$AAt?$AAr?$AAi?$AAn?$AAg?$AA?5?$AA?$CB?$AA?$DN?$AA?5?$AAN?$AAU?$AAL?$AAL?$AA?5?$AA?$CG?$AA?$CG?$AA?5?$AAs?$AAi?$AAz?$AAe?$AAI?$AAn?$AAB?$AAy?$AAt?$AAe?$AAs?$AA?5?$AA?$DO?$AA?5@ 004cb390     LIBCMTD:vsnprnc.obj
 0002:0000f3d4       ??_C@_1DA@HPBFKMEB@?$AA?$CI?$AA?$CC?$AAB?$AAu?$AAf?$AAf?$AAe?$AAr?$AA?5?$AAt?$AAo?$AAo?$AA?5?$AAs?$AAm?$AAa?$AAl?$AAl?$AA?$CC?$AA?0?$AA?5?$AA0?$AA?$CJ?$AA?$AA@ 004cb3d4     LIBCMTD:vsnprnc.obj
 0002:0000f404       ??_C@_1BO@MMPELNIM@?$AA_?$AAv?$AAs?$AAn?$AAp?$AAr?$AAi?$AAn?$AAt?$AAf?$AA_?$AAs?$AA_?$AAl?$AA?$AA@ 004cb404     LIBCMTD:vsnprnc.obj
 0002:0000f424       ??_C@_1BI@KANOLAMF@?$AA_?$AAo?$AAu?$AAt?$AAp?$AAu?$AAt?$AA_?$AAp?$AA_?$AAl?$AA?$AA@ 004cb424     LIBCMTD:outputp.obj
 0002:0000f440       ??_C@_1JC@PFJNKEIO@?$AA?$CI?$AA?$CI?$AAt?$AAy?$AAp?$AAe?$AA_?$AAp?$AAo?$AAs?$AA?5?$AA?$DO?$AA?$DN?$AA?5?$AA0?$AA?$CJ?$AA?5?$AA?$CG?$AA?$CG?$AA?5?$AA?$CI?$AA?$CK?$AAe?$AAn?$AAd?$AA_?$AAp?$AAo?$AAs?$AA?5?$AA?$DN?$AA?$DN@ 004cb440     LIBCMTD:outputp.obj
 0002:0000f4d8       ??_C@_1EE@DMAIGNBG@?$AA?$CI?$AA?$CC?$AAI?$AAn?$AAc?$AAo?$AAr?$AAr?$AAe?$AAc?$AAt?$AA?5?$AAf?$AAo?$AAr?$AAm?$AAa?$AAt?$AA?5?$AAs?$AAp?$AAe?$AAc?$AAi?$AAf?$AAi?$AAe?$AAr?$AA?$CC?$AA?0?$AA?5?$AA0@ 004cb4d8     LIBCMTD:outputp.obj
 0002:0000f520       ??_C@_1JE@NMBHOLFI@?$AA?$CI?$AA?$CI?$AAw?$AAi?$AAd?$AAt?$AAh?$AA_?$AAp?$AAo?$AAs?$AA?5?$AA?$DO?$AA?$DN?$AA?5?$AA0?$AA?$CJ?$AA?5?$AA?$CG?$AA?$CG?$AA?5?$AA?$CI?$AA?$CK?$AAe?$AAn?$AAd?$AA_?$AAp?$AAo?$AAs?$AA?5?$AA?$DN@ 004cb520     LIBCMTD:outputp.obj
 0002:0000f5b8       ??_C@_1II@PIPIMLPF@?$AA_?$AAt?$AAv?$AAa?$AAl?$AAi?$AAd?$AAa?$AAt?$AAe?$AA_?$AAp?$AAa?$AAr?$AAa?$AAm?$AA_?$AAr?$AAe?$AAu?$AAs?$AAe?$AA?$CI?$AA?$CG?$AAp?$AAo?$AAs?$AA_?$AAv?$AAa?$AAl?$AAu@ 004cb5b8     LIBCMTD:outputp.obj
 0002:0000f640       ??_C@_1JG@JBJBOCFB@?$AA?$CI?$AA?$CI?$AAp?$AAr?$AAe?$AAc?$AAi?$AAs?$AA_?$AAp?$AAo?$AAs?$AA?5?$AA?$DO?$AA?$DN?$AA?5?$AA0?$AA?$CJ?$AA?5?$AA?$CG?$AA?$CG?$AA?5?$AA?$CI?$AA?$CK?$AAe?$AAn?$AAd?$AA_?$AAp?$AAo?$AAs?$AA?5@ 004cb640     LIBCMTD:outputp.obj
 0002:0000f6d8       ??_C@_1IK@EIEPDKHJ@?$AA_?$AAt?$AAv?$AAa?$AAl?$AAi?$AAd?$AAa?$AAt?$AAe?$AA_?$AAp?$AAa?$AAr?$AAa?$AAm?$AA_?$AAr?$AAe?$AAu?$AAs?$AAe?$AA?$CI?$AA?$CG?$AAp?$AAo?$AAs?$AA_?$AAv?$AAa?$AAl?$AAu@ 004cb6d8     LIBCMTD:outputp.obj
 0002:0000f768       ??_C@_1EM@BNPHBBIA@?$AA?$CI?$AA?$CI?$AAt?$AAy?$AAp?$AAe?$AA_?$AAp?$AAo?$AAs?$AA?$DO?$AA?$DN?$AA0?$AA?$CJ?$AA?5?$AA?$CG?$AA?$CG?$AA?5?$AA?$CI?$AAt?$AAy?$AAp?$AAe?$AA_?$AAp?$AAo?$AAs?$AA?$DM?$AA_?$AAA?$AAR?$AAG@ 004cb768     LIBCMTD:outputp.obj
 0002:0000f7b8       ??_C@_1IK@MHEDJAMK@?$AA_?$AAt?$AAv?$AAa?$AAl?$AAi?$AAd?$AAa?$AAt?$AAe?$AA_?$AAp?$AAa?$AAr?$AAa?$AAm?$AA_?$AAr?$AAe?$AAu?$AAs?$AAe?$AA?$CI?$AA?$CG?$AAp?$AAo?$AAs?$AA_?$AAv?$AAa?$AAl?$AAu@ 004cb7b8     LIBCMTD:outputp.obj
 0002:0000f848       ??_C@_1IG@FDCPLALG@?$AA_?$AAt?$AAv?$AAa?$AAl?$AAi?$AAd?$AAa?$AAt?$AAe?$AA_?$AAp?$AAa?$AAr?$AAa?$AAm?$AA_?$AAr?$AAe?$AAu?$AAs?$AAe?$AA?$CI?$AA?$CG?$AAp?$AAo?$AAs?$AA_?$AAv?$AAa?$AAl?$AAu@ 004cb848     LIBCMTD:outputp.obj
 0002:0000f8d0       ??_C@_1IG@HJIMKDHC@?$AA_?$AAt?$AAv?$AAa?$AAl?$AAi?$AAd?$AAa?$AAt?$AAe?$AA_?$AAp?$AAa?$AAr?$AAa?$AAm?$AA_?$AAr?$AAe?$AAu?$AAs?$AAe?$AA?$CI?$AA?$CG?$AAp?$AAo?$AAs?$AA_?$AAv?$AAa?$AAl?$AAu@ 004cb8d0     LIBCMTD:outputp.obj
 0002:0000f958       ??_C@_1IM@DNGHAPLB@?$AA_?$AAt?$AAv?$AAa?$AAl?$AAi?$AAd?$AAa?$AAt?$AAe?$AA_?$AAp?$AAa?$AAr?$AAa?$AAm?$AA_?$AAr?$AAe?$AAu?$AAs?$AAe?$AA?$CI?$AA?$CG?$AAp?$AAo?$AAs?$AA_?$AAv?$AAa?$AAl?$AAu@ 004cb958     LIBCMTD:outputp.obj
 0002:0000f9e4       ??_C@_1DG@GOHGNKHE@?$AAp?$AAa?$AAs?$AAs?$AA?5?$AA?$DN?$AA?$DN?$AA?5?$AAF?$AAO?$AAR?$AAM?$AAA?$AAT?$AA_?$AAO?$AAU?$AAT?$AAP?$AAU?$AAT?$AA_?$AAP?$AAA?$AAS?$AAS?$AA?$AA@ 004cb9e4     LIBCMTD:outputp.obj
 0002:0000fa20       ??_C@_1IK@NBGDDCBN@?$AA_?$AAt?$AAv?$AAa?$AAl?$AAi?$AAd?$AAa?$AAt?$AAe?$AA_?$AAp?$AAa?$AAr?$AAa?$AAm?$AA_?$AAr?$AAe?$AAu?$AAs?$AAe?$AA?$CI?$AA?$CG?$AAp?$AAo?$AAs?$AA_?$AAv?$AAa?$AAl?$AAu@ 004cba20     LIBCMTD:outputp.obj
 0002:0000fab0       ??_C@_1JC@OACKELNN@?$AA_?$AAt?$AAv?$AAa?$AAl?$AAi?$AAd?$AAa?$AAt?$AAe?$AA_?$AAp?$AAa?$AAr?$AAa?$AAm?$AA_?$AAr?$AAe?$AAu?$AAs?$AAe?$AA?$CI?$AA?$CG?$AAp?$AAo?$AAs?$AA_?$AAv?$AAa?$AAl?$AAu@ 004cbab0     LIBCMTD:outputp.obj
 0002:0000fb48       ??_C@_1FK@LNCFKALM@?$AA?$CI?$AA?$CI?$AAs?$AAt?$AAa?$AAt?$AAe?$AA?5?$AA?$DN?$AA?$DN?$AA?5?$AAS?$AAT?$AA_?$AAN?$AAO?$AAR?$AAM?$AAA?$AAL?$AA?$CJ?$AA?5?$AA?$HM?$AA?$HM?$AA?5?$AA?$CI?$AAs?$AAt?$AAa?$AAt?$AAe?$AA?5@ 004cbb48     LIBCMTD:outputp.obj
 0002:0000fba8       ??_C@_1FK@BCPANIEK@?$AA?$CI?$AA?$CC?$AAM?$AAi?$AAs?$AAs?$AAi?$AAn?$AAg?$AA?5?$AAp?$AAo?$AAs?$AAi?$AAt?$AAi?$AAo?$AAn?$AA?5?$AAi?$AAn?$AA?5?$AAt?$AAh?$AAe?$AA?5?$AAf?$AAo?$AAr?$AAm?$AAa?$AAt@ 004cbba8     LIBCMTD:outputp.obj
 0002:0000fc18       ??_C@_0BJ@HEGAHDFO@Stack?5pointer?5corruption?$AA@ 004cbc18     LIBCMTD:userapi.obj
 0002:0000fc34       ??_C@_0CK@FEGOIOPB@Cast?5to?5smaller?5type?5causing?5los@ 004cbc34     LIBCMTD:userapi.obj
 0002:0000fc60       ??_C@_0BI@CIGMDCBH@Stack?5memory?5corruption?$AA@ 004cbc60     LIBCMTD:userapi.obj
 0002:0000fc78       ??_C@_0CK@CNLNOEPB@Local?5variable?5used?5before?5initi@ 004cbc78     LIBCMTD:userapi.obj
 0002:0000fca4       ??_C@_0BP@OGBCLIBO@Stack?5around?5_alloca?5corrupted?$AA@ 004cbca4     LIBCMTD:userapi.obj
 0002:0000fcc8       ??_C@_0NM@DNEDKLDF@The?5value?5of?5ESP?5was?5not?5properl@ 004cbcc8     LIBCMTD:chkesp.obj
 0002:0000fda4       ??_C@_00CNPNBAHC@?$AA@     004cbda4     LIBCMTD:chkesp.obj
 0002:0000fda8       ??_C@_0CM@CNHKCLGP@f?3?2dd?2vctools?2crt?2crtw32?2misc?2i3@ 004cbda8     LIBCMTD:chkesp.obj
 0002:0000fdd4       ?LocalIdBitWidth@CrossScopeId@CodeViewInfo@@2IB 004cbdd4     LIBCMTD:pdblkup.obj
 0002:0000fdd8       ?IdScopeBitWidth@CrossScopeId@CodeViewInfo@@2IB 004cbdd8     LIBCMTD:pdblkup.obj
 0002:0000fddc       ?StartCrossScopeId@CrossScopeId@CodeViewInfo@@2IB 004cbddc     LIBCMTD:pdblkup.obj
 0002:0000fde0       ?LocalIdMask@CrossScopeId@CodeViewInfo@@2IB 004cbde0     LIBCMTD:pdblkup.obj
 0002:0000fde4       ?ScopeIdMask@CrossScopeId@CodeViewInfo@@2IB 004cbde4     LIBCMTD:pdblkup.obj
 0002:0000fde8       ?MaxLocalId@CrossScopeId@CodeViewInfo@@2IB 004cbde8     LIBCMTD:pdblkup.obj
 0002:0000fdec       ?MaxScopeId@CrossScopeId@CodeViewInfo@@2IB 004cbdec     LIBCMTD:pdblkup.obj
 0002:0000fe30       ??_C@_0O@COHOBMLB@RegOpenKeyExW?$AA@ 004cbe30     LIBCMTD:pdblkup.obj
 0002:0000fe40       ??_C@_0BB@GLNAEDBD@RegQueryValueExW?$AA@ 004cbe40     LIBCMTD:pdblkup.obj
 0002:0000fe54       ??_C@_0M@HLOHPNFA@RegCloseKey?$AA@ 004cbe54     LIBCMTD:pdblkup.obj
 0002:0000fe60       ??_C@_1FM@EGIBBNPP@?$AAS?$AAO?$AAF?$AAT?$AAW?$AAA?$AAR?$AAE?$AA?2?$AAM?$AAi?$AAc?$AAr?$AAo?$AAs?$AAo?$AAf?$AAt?$AA?2?$AAV?$AAi?$AAs?$AAu?$AAa?$AAl?$AAS?$AAt?$AAu?$AAd?$AAi?$AAo?$AA?2@ 004cbe60     LIBCMTD:pdblkup.obj
 0002:0000febc       ??_C@_1BG@EABPBLLF@?$AAP?$AAr?$AAo?$AAd?$AAu?$AAc?$AAt?$AAD?$AAi?$AAr?$AA?$AA@ 004cbebc     LIBCMTD:pdblkup.obj
 0002:0000fef0       ??_C@_1BC@EOIMGOME@?$AAM?$AAS?$AAP?$AAD?$AAB?$AA1?$AA2?$AA0?$AA?$AA@ 004cbef0     LIBCMTD:pdblkup.obj
 0002:0000ff04       ??_C@_0BB@KCIACLNC@PDBOpenValidate5?$AA@ 004cbf04     LIBCMTD:pdblkup.obj
 0002:0000ff18       ??_C@_1BI@ICGGMGLK@?$AAb?$AAu?$AAf?$AA?5?$AA?$CB?$AA?$DN?$AA?5?$AAN?$AAU?$AAL?$AAL?$AA?$AA@ 004cbf18     LIBCMTD:cvt.obj
 0002:0000ff30       ??_C@_1EG@OHONNKNN@?$AAf?$AA?3?$AA?2?$AAd?$AAd?$AA?2?$AAv?$AAc?$AAt?$AAo?$AAo?$AAl?$AAs?$AA?2?$AAc?$AAr?$AAt?$AA?2?$AAf?$AAp?$AAw?$AA3?$AA2?$AA?2?$AAc?$AAo?$AAn?$AAv?$AA?2?$AAc?$AAv?$AAt@ 004cbf30     LIBCMTD:cvt.obj
 0002:0000ff78       ??_C@_1BE@OLBNEILL@?$AA_?$AAc?$AAf?$AAt?$AAo?$AAe?$AA2?$AA_?$AAl?$AA?$AA@ 004cbf78     LIBCMTD:cvt.obj
 0002:0000ff8c       ??_C@_1CA@CBMNPEO@?$AAs?$AAi?$AAz?$AAe?$AAI?$AAn?$AAB?$AAy?$AAt?$AAe?$AAs?$AA?5?$AA?$DO?$AA?5?$AA0?$AA?$AA@ 004cbf8c     LIBCMTD:cvt.obj
 0002:0000ffb0       ??_C@_1HE@NACBNDPP@?$AAs?$AAi?$AAz?$AAe?$AAI?$AAn?$AAB?$AAy?$AAt?$AAe?$AAs?$AA?5?$AA?$DO?$AA?5?$AA?$CI?$AAs?$AAi?$AAz?$AAe?$AA_?$AAt?$AA?$CJ?$AA?$CI?$AA3?$AA?5?$AA?$CL?$AA?5?$AA?$CI?$AAn?$AAd?$AAe?$AAc@ 004cbfb0     LIBCMTD:cvt.obj
 0002:00010028       ??_C@_1LE@EOIFGNCJ@?$AAs?$AAt?$AAr?$AAc?$AAp?$AAy?$AA_?$AAs?$AA?$CI?$AAp?$AA?0?$AA?5?$AA?$CI?$AAs?$AAi?$AAz?$AAe?$AAI?$AAn?$AAB?$AAy?$AAt?$AAe?$AAs?$AA?5?$AA?$DN?$AA?$DN?$AA?5?$AA?$CI?$AAs?$AAi?$AAz@ 004cc028     LIBCMTD:cvt.obj
 0002:000100dc       ??_C@_05KLBDPFGC@e?$CL000?$AA@ 004cc0dc     LIBCMTD:cvt.obj
 0002:000100e4       ??_C@_1BC@INKAPMHI@?$AA_?$AAc?$AAf?$AAt?$AAo?$AAe?$AA_?$AAl?$AA?$AA@ 004cc0e4     LIBCMTD:cvt.obj
 0002:000100f8       ??_C@_1BC@JOKPCIC@?$AA_?$AAc?$AAf?$AAt?$AAo?$AAa?$AA_?$AAl?$AA?$AA@ 004cc0f8     LIBCMTD:cvt.obj
 0002:00010110       ??_C@_1FC@IKIMAMJB@?$AAs?$AAi?$AAz?$AAe?$AAI?$AAn?$AAB?$AAy?$AAt?$AAe?$AAs?$AA?5?$AA?$DO?$AA?5?$AA?$CI?$AAs?$AAi?$AAz?$AAe?$AA_?$AAt?$AA?$CJ?$AA?$CI?$AA1?$AA?5?$AA?$CL?$AA?5?$AA4?$AA?5?$AA?$CL?$AA?5?$AAn@ 004cc110     LIBCMTD:cvt.obj
 0002:00010164       ??_C@_1BE@CKPDLI@?$AA_?$AAc?$AAf?$AAt?$AAo?$AAf?$AA2?$AA_?$AAl?$AA?$AA@ 004cc164     LIBCMTD:cvt.obj
 0002:00010178       ??_C@_1BC@DCPPLJL@?$AA_?$AAc?$AAf?$AAt?$AAo?$AAf?$AA_?$AAl?$AA?$AA@ 004cc178     LIBCMTD:cvt.obj
 0002:0001018c       ??_C@_1BC@MPIFPLAF@?$AA_?$AAc?$AAf?$AAt?$AAo?$AAg?$AA_?$AAl?$AA?$AA@ 004cc18c     LIBCMTD:cvt.obj
 0002:000101a0       __real@0000000000000000    004cc1a0     LIBCMTD:cvt.obj
 0002:000101a8       ??_C@_1FI@JJOJLGLE@?$AAf?$AA?3?$AA?2?$AAd?$AAd?$AA?2?$AAv?$AAc?$AAt?$AAo?$AAo?$AAl?$AAs?$AA?2?$AAc?$AAr?$AAt?$AA?2?$AAc?$AAr?$AAt?$AAw?$AA3?$AA2?$AA?2?$AAs?$AAt?$AAa?$AAr?$AAt?$AAu?$AAp@ 004cc1a8     LIBCMTD:fp8.obj
 0002:00010200       ??_C@_1CK@JMKHCBEI@?$AA_?$AAs?$AAe?$AAt?$AAd?$AAe?$AAf?$AAa?$AAu?$AAl?$AAt?$AAp?$AAr?$AAe?$AAc?$AAi?$AAs?$AAi?$AAo?$AAn?$AA?$AA@ 004cc200     LIBCMTD:fp8.obj
 0002:00010230       ??_C@_1GE@KOCFNGPB@?$AA_?$AAc?$AAo?$AAn?$AAt?$AAr?$AAo?$AAl?$AAf?$AAp?$AA_?$AAs?$AA?$CI?$AA?$CI?$AA?$CI?$AAv?$AAo?$AAi?$AAd?$AA?5?$AA?$CK?$AA?$CJ?$AA0?$AA?$CJ?$AA?0?$AA?5?$AA0?$AAx?$AA0?$AA0?$AA0?$AA1@ 004cc230     LIBCMTD:fp8.obj
 0002:00010298       __XcptActTab               004cc298     LIBCMTD:winxfltr.obj
 0002:00010328       __XcptActTabCount          004cc328     LIBCMTD:winxfltr.obj
 0002:0001032c       __XcptActTabSize           004cc32c     LIBCMTD:winxfltr.obj
 0002:00010330       __First_FPE_Indx           004cc330     LIBCMTD:winxfltr.obj
 0002:00010334       __Num_FPE                  004cc334     LIBCMTD:winxfltr.obj
 0002:00010338       ??_C@_1BC@DENNNKIM@?$AA_?$AAc?$AAr?$AAt?$AAh?$AAe?$AAa?$AAp?$AA?$AA@ 004cc338     LIBCMTD:heapinit.obj
 0002:00010350       ??_C@_1FC@JOHAHJGP@?$AAf?$AA?3?$AA?2?$AAd?$AAd?$AA?2?$AAv?$AAc?$AAt?$AAo?$AAo?$AAl?$AAs?$AA?2?$AAc?$AAr?$AAt?$AA?2?$AAc?$AAr?$AAt?$AAw?$AA3?$AA2?$AA?2?$AAh?$AAe?$AAa?$AAp?$AA?2?$AAh?$AAe@ 004cc350     LIBCMTD:heapinit.obj
 0002:000103a4       ??_C@_0CL@OBKFGCKK@f?3?2dd?2vctools?2crt?2crtw32?2startup@ 004cc3a4     LIBCMTD:stdargv.obj
 0002:000103d0       ??_C@_0CL@BJBFGFLH@f?3?2dd?2vctools?2crt?2crtw32?2startup@ 004cc3d0     LIBCMTD:stdenvp.obj
 0002:00010400       ??_C@_1FG@MHBLOJIO@?$AAf?$AA?3?$AA?2?$AAd?$AAd?$AA?2?$AAv?$AAc?$AAt?$AAo?$AAo?$AAl?$AAs?$AA?2?$AAc?$AAr?$AAt?$AA?2?$AAc?$AAr?$AAt?$AAw?$AA3?$AA2?$AA?2?$AAs?$AAt?$AAa?$AAr?$AAt?$AAu?$AAp@ 004cc400     LIBCMTD:stdenvp.obj
 0002:00010458       ??_C@_1BC@GHMCNHHL@?$AA_?$AAs?$AAe?$AAt?$AAe?$AAn?$AAv?$AAp?$AA?$AA@ 004cc458     LIBCMTD:stdenvp.obj
 0002:0001046c       ??_C@_1DE@MMOGFGHF@?$AAs?$AAt?$AAr?$AAc?$AAp?$AAy?$AA_?$AAs?$AA?$CI?$AA?$CK?$AAe?$AAn?$AAv?$AA?0?$AA?5?$AAc?$AAc?$AAh?$AAa?$AAr?$AAs?$AA?0?$AA?5?$AAp?$AA?$CJ?$AA?$AA@ 004cc46c     LIBCMTD:stdenvp.obj
 0002:000104a0       ??_C@_1DE@BCNCAIK@?$AA?$CI?$AA?$CC?$AAI?$AAn?$AAv?$AAa?$AAl?$AAi?$AAd?$AA?5?$AAe?$AAr?$AAr?$AAo?$AAr?$AA_?$AAm?$AAo?$AAd?$AAe?$AA?$CC?$AA?0?$AA?5?$AA0?$AA?$CJ?$AA?$AA@ 004cc4a0     LIBCMTD:errmode.obj
 0002:000104d8       ??_C@_1FA@PBBGNIFD@?$AAf?$AA?3?$AA?2?$AAd?$AAd?$AA?2?$AAv?$AAc?$AAt?$AAo?$AAo?$AAl?$AAs?$AA?2?$AAc?$AAr?$AAt?$AA?2?$AAc?$AAr?$AAt?$AAw?$AA3?$AA2?$AA?2?$AAm?$AAi?$AAs?$AAc?$AA?2?$AAe?$AAr@ 004cc4d8     LIBCMTD:errmode.obj
 0002:00010528       ??_C@_1CA@LFDHAMEM@?$AA_?$AAs?$AAe?$AAt?$AA_?$AAe?$AAr?$AAr?$AAo?$AAr?$AA_?$AAm?$AAo?$AAd?$AAe?$AA?$AA@ 004cc528     LIBCMTD:errmode.obj
 0002:00010548       ??_C@_0CG@NNNNMKLF@f?3?2dd?2vctools?2crt?2crtw32?2misc?2a_@ 004cc548     LIBCMTD:a_env.obj
 0002:00010570       ___dnames                  004cc570     LIBCMTD:timeset.obj
 0002:00010588       ___mnames                  004cc588     LIBCMTD:timeset.obj
 0002:000105b0       ??_C@_1CI@MKJEHFPG@?$AA?$CI?$AA_?$AAD?$AAa?$AAy?$AAl?$AAi?$AAg?$AAh?$AAt?$AA?5?$AA?$CB?$AA?$DN?$AA?5?$AAN?$AAU?$AAL?$AAL?$AA?$CJ?$AA?$AA@ 004cc5b0     LIBCMTD:timeset.obj
 0002:000105d8       ??_C@_1FA@KOPEOCAM@?$AAf?$AA?3?$AA?2?$AAd?$AAd?$AA?2?$AAv?$AAc?$AAt?$AAo?$AAo?$AAl?$AAs?$AA?2?$AAc?$AAr?$AAt?$AA?2?$AAc?$AAr?$AAt?$AAw?$AA3?$AA2?$AA?2?$AAt?$AAi?$AAm?$AAe?$AA?2?$AAt?$AAi@ 004cc5d8     LIBCMTD:timeset.obj
 0002:00010628       ??_C@_1BM@FIMHBHEB@?$AA_?$AAg?$AAe?$AAt?$AA_?$AAd?$AAa?$AAy?$AAl?$AAi?$AAg?$AAh?$AAt?$AA?$AA@ 004cc628     LIBCMTD:timeset.obj
 0002:00010648       ??_C@_1EC@PKDJPAAB@?$AA?$CI?$AA_?$AAD?$AAa?$AAy?$AAl?$AAi?$AAg?$AAh?$AAt?$AA_?$AAs?$AAa?$AAv?$AAi?$AAn?$AAg?$AAs?$AA_?$AAb?$AAi?$AAa?$AAs?$AA?5?$AA?$CB?$AA?$DN?$AA?5?$AAN?$AAU?$AAL?$AAL?$AA?$CJ@ 004cc648     LIBCMTD:timeset.obj
 0002:0001068c       ??_C@_1BK@EMODDHEE@?$AA_?$AAg?$AAe?$AAt?$AA_?$AAd?$AAs?$AAt?$AAb?$AAi?$AAa?$AAs?$AA?$AA@ 004cc68c     LIBCMTD:timeset.obj
 0002:000106a8       ??_C@_1CI@PODJJGAL@?$AA?$CI?$AA_?$AAT?$AAi?$AAm?$AAe?$AAz?$AAo?$AAn?$AAe?$AA?5?$AA?$CB?$AA?$DN?$AA?5?$AAN?$AAU?$AAL?$AAL?$AA?$CJ?$AA?$AA@ 004cc6a8     LIBCMTD:timeset.obj
 0002:000106d0       ??_C@_1BM@MGEAKPEJ@?$AA_?$AAg?$AAe?$AAt?$AA_?$AAt?$AAi?$AAm?$AAe?$AAz?$AAo?$AAn?$AAe?$AA?$AA@ 004cc6d0     LIBCMTD:timeset.obj
 0002:000106f0       ??_C@_1KA@POFLNEC@?$AA?$CI?$AA_?$AAB?$AAu?$AAf?$AAf?$AAe?$AAr?$AA?5?$AA?$CB?$AA?$DN?$AA?5?$AAN?$AAU?$AAL?$AAL?$AA?5?$AA?$CG?$AA?$CG?$AA?5?$AA_?$AAS?$AAi?$AAz?$AAe?$AAI?$AAn?$AAB?$AAy?$AAt?$AAe?$AAs@ 004cc6f0     LIBCMTD:timeset.obj
 0002:00010790       ??_C@_1BI@BHCKCCFA@?$AA_?$AAg?$AAe?$AAt?$AA_?$AAt?$AAz?$AAn?$AAa?$AAm?$AAe?$AA?$AA@ 004cc790     LIBCMTD:timeset.obj
 0002:000107a8       ??_C@_1CK@GBKHKEI@?$AA_?$AAR?$AAe?$AAt?$AAu?$AAr?$AAn?$AAV?$AAa?$AAl?$AAu?$AAe?$AA?5?$AA?$CB?$AA?$DN?$AA?5?$AAN?$AAU?$AAL?$AAL?$AA?$AA@ 004cc7a8     LIBCMTD:timeset.obj
 0002:000107d4       ??_C@_1DG@HLGKANIP@?$AA_?$AAI?$AAn?$AAd?$AAe?$AAx?$AA?5?$AA?$DN?$AA?$DN?$AA?5?$AA0?$AA?5?$AA?$HM?$AA?$HM?$AA?5?$AA_?$AAI?$AAn?$AAd?$AAe?$AAx?$AA?5?$AA?$DN?$AA?$DN?$AA?5?$AA1?$AA?$AA@ 004cc7d4     LIBCMTD:timeset.obj
 0002:00010810       ??_C@_1EM@OKECDHDE@?$AAf?$AA?3?$AA?2?$AAd?$AAd?$AA?2?$AAv?$AAc?$AAt?$AAo?$AAo?$AAl?$AAs?$AA?2?$AAc?$AAr?$AAt?$AA?2?$AAc?$AAr?$AAt?$AAw?$AA3?$AA2?$AA?2?$AAt?$AAi?$AAm?$AAe?$AA?2?$AAt?$AAz@ 004cc810     LIBCMTD:tzset.obj
 0002:0001085c       ??_C@_1BM@IIODHMJC@?$AA_?$AAt?$AAz?$AAs?$AAe?$AAt?$AA_?$AAn?$AAo?$AAl?$AAo?$AAc?$AAk?$AA?$AA@ 004cc85c     LIBCMTD:tzset.obj
 0002:00010878       ??_C@_1DC@MEHEMOPB@?$AA_?$AAg?$AAe?$AAt?$AA_?$AAd?$AAa?$AAy?$AAl?$AAi?$AAg?$AAh?$AAt?$AA?$CI?$AA?$CG?$AAd?$AAa?$AAy?$AAl?$AAi?$AAg?$AAh?$AAt?$AA?$CJ?$AA?$AA@ 004cc878     LIBCMTD:tzset.obj
 0002:000108ac       ??_C@_1CO@IMMOMMCB@?$AA_?$AAg?$AAe?$AAt?$AA_?$AAd?$AAs?$AAt?$AAb?$AAi?$AAa?$AAs?$AA?$CI?$AA?$CG?$AAd?$AAs?$AAt?$AAb?$AAi?$AAa?$AAs?$AA?$CJ?$AA?$AA@ 004cc8ac     LIBCMTD:tzset.obj
 0002:000108dc       ??_C@_02CLFPBFFP@TZ?$AA@   004cc8dc     LIBCMTD:tzset.obj
 0002:000108e0       ??_C@_0CG@LOFJMIGF@f?3?2dd?2vctools?2crt?2crtw32?2time?2tz@ 004cc8e0     LIBCMTD:tzset.obj
 0002:00010908       ??_C@_1EK@MCAIMDPB@?$AAs?$AAt?$AAr?$AAc?$AAp?$AAy?$AA_?$AAs?$AA?$CI?$AAl?$AAa?$AAs?$AAt?$AAT?$AAZ?$AA?0?$AA?5?$AAs?$AAt?$AAr?$AAl?$AAe?$AAn?$AA?$CI?$AAT?$AAZ?$AA?$CJ?$AA?5?$AA?$CL?$AA?5?$AA1?$AA?0@ 004cc908     LIBCMTD:tzset.obj
 0002:00010958       ??_C@_1EA@FIJBKALB@?$AAs?$AAt?$AAr?$AAn?$AAc?$AAp?$AAy?$AA_?$AAs?$AA?$CI?$AAt?$AAz?$AAn?$AAa?$AAm?$AAe?$AA?$FL?$AA0?$AA?$FN?$AA?0?$AA?5?$AA6?$AA4?$AA?0?$AA?5?$AAT?$AAZ?$AA?0?$AA?5?$AA3?$AA?$CJ?$AA?$AA@ 004cc958     LIBCMTD:tzset.obj
 0002:00010998       ??_C@_1EA@GEPBEDLJ@?$AAs?$AAt?$AAr?$AAn?$AAc?$AAp?$AAy?$AA_?$AAs?$AA?$CI?$AAt?$AAz?$AAn?$AAa?$AAm?$AAe?$AA?$FL?$AA1?$AA?$FN?$AA?0?$AA?5?$AA6?$AA4?$AA?0?$AA?5?$AAT?$AAZ?$AA?0?$AA?5?$AA3?$AA?$CJ?$AA?$AA@ 004cc998     LIBCMTD:tzset.obj
 0002:000109d8       ??_C@_1BA@GOCKIDGO@?$AAc?$AAv?$AAt?$AAd?$AAa?$AAt?$AAe?$AA?$AA@ 004cc9d8     LIBCMTD:tzset.obj
 0002:000109e8       ??_C@_1CA@GOLIIEDM@?$AA_?$AAi?$AAs?$AAi?$AAn?$AAd?$AAs?$AAt?$AA_?$AAn?$AAo?$AAl?$AAo?$AAc?$AAk?$AA?$AA@ 004cc9e8     LIBCMTD:tzset.obj
 0002:00010a08       ??_C@_1DO@MBOKMJPK@?$AAn?$AAF?$AAl?$AAo?$AAa?$AAt?$AAS?$AAt?$AAr?$AAU?$AAs?$AAe?$AAd?$AA?$DM?$AA?$DN?$AA?$CI?$AA?$CK?$AAp?$AAn?$AAF?$AAl?$AAo?$AAa?$AAt?$AAS?$AAt?$AAr?$AAS?$AAz?$AA?$CJ?$AA?$AA@ 004cca08     LIBCMTD:input.obj
 0002:00010a48       ??_C@_1EO@KHEPNMPN@?$AAf?$AA?3?$AA?2?$AAd?$AAd?$AA?2?$AAv?$AAc?$AAt?$AAo?$AAo?$AAl?$AAs?$AA?2?$AAc?$AAr?$AAt?$AA?2?$AAc?$AAr?$AAt?$AAw?$AA3?$AA2?$AA?2?$AAs?$AAt?$AAd?$AAi?$AAo?$AA?2?$AAi@ 004cca48     LIBCMTD:input.obj
 0002:00010a98       ??_C@_0CH@IOLKKJMC@f?3?2dd?2vctools?2crt?2crtw32?2stdio?2i@ 004cca98     LIBCMTD:input.obj
 0002:00010ac0       ??_C@_1BC@MJNBEDIJ@?$AA_?$AAi?$AAn?$AAp?$AAu?$AAt?$AA_?$AAl?$AA?$AA@ 004ccac0     LIBCMTD:input.obj
 0002:00010ad4       ??_C@_1BG@LBKFJFHM@?$AA_?$AAi?$AAn?$AAp?$AAu?$AAt?$AA_?$AAs?$AA_?$AAl?$AA?$AA@ 004ccad4     LIBCMTD:inputs.obj
 0002:00010aec       ??_C@_1DG@MPPGJOHD@?$AA?$CI?$AA?$CC?$AAI?$AAn?$AAv?$AAa?$AAl?$AAi?$AAd?$AA?5?$AAI?$AAn?$AAp?$AAu?$AAt?$AA?5?$AAF?$AAo?$AAr?$AAm?$AAa?$AAt?$AA?$CC?$AA?0?$AA0?$AA?$CJ?$AA?$AA@ 004ccaec     LIBCMTD:inputs.obj
 0002:00010b24       ??_C@_0CI@NOHEOGNG@f?3?2dd?2vctools?2crt?2crtw32?2misc?2in@ 004ccb24     LIBCMTD:initmon.obj
 0002:00010b4c       ??_C@_1DM@GKAPAMDO@?$AAp?$AAl?$AAo?$AAc?$AAi?$AA?9?$AA?$DO?$AAl?$AAc?$AAo?$AAn?$AAv?$AA_?$AAm?$AAo?$AAn?$AA_?$AAr?$AAe?$AAf?$AAc?$AAo?$AAu?$AAn?$AAt?$AA?5?$AA?$DO?$AA?5?$AA0?$AA?$AA@ 004ccb4c     LIBCMTD:initmon.obj
 0002:00010b88       ??_C@_1FA@CNNDGPJL@?$AAf?$AA?3?$AA?2?$AAd?$AAd?$AA?2?$AAv?$AAc?$AAt?$AAo?$AAo?$AAl?$AAs?$AA?2?$AAc?$AAr?$AAt?$AA?2?$AAc?$AAr?$AAt?$AAw?$AA3?$AA2?$AA?2?$AAm?$AAi?$AAs?$AAc?$AA?2?$AAi?$AAn@ 004ccb88     LIBCMTD:initmon.obj
 0002:00010bd8       ??_C@_0CI@GAAFLELF@f?3?2dd?2vctools?2crt?2crtw32?2misc?2in@ 004ccbd8     LIBCMTD:initnum.obj
 0002:00010c00       ??_C@_1DM@IFKAINNE@?$AAp?$AAl?$AAo?$AAc?$AAi?$AA?9?$AA?$DO?$AAl?$AAc?$AAo?$AAn?$AAv?$AA_?$AAn?$AAu?$AAm?$AA_?$AAr?$AAe?$AAf?$AAc?$AAo?$AAu?$AAn?$AAt?$AA?5?$AA?$DO?$AA?5?$AA0?$AA?$AA@ 004ccc00     LIBCMTD:initnum.obj
 0002:00010c40       ??_C@_1FA@OEEOKLKJ@?$AAf?$AA?3?$AA?2?$AAd?$AAd?$AA?2?$AAv?$AAc?$AAt?$AAo?$AAo?$AAl?$AAs?$AA?2?$AAc?$AAr?$AAt?$AA?2?$AAc?$AAr?$AAt?$AAw?$AA3?$AA2?$AA?2?$AAm?$AAi?$AAs?$AAc?$AA?2?$AAi?$AAn@ 004ccc40     LIBCMTD:initnum.obj
 0002:00010c90       ??_C@_0CJ@HGFGLKBM@f?3?2dd?2vctools?2crt?2crtw32?2misc?2in@ 004ccc90     LIBCMTD:inittime.obj
 0002:00010cc0       ??_C@_1EE@FDHCFDHN@?$AAp?$AAl?$AAo?$AAc?$AAi?$AA?9?$AA?$DO?$AAl?$AAc?$AA_?$AAt?$AAi?$AAm?$AAe?$AA_?$AAc?$AAu?$AAr?$AAr?$AA?9?$AA?$DO?$AAr?$AAe?$AAf?$AAc?$AAo?$AAu?$AAn?$AAt?$AA?5?$AA?$DO?$AA?5@ 004cccc0     LIBCMTD:inittime.obj
 0002:00010d08       ??_C@_1FC@GNPEEAOA@?$AAf?$AA?3?$AA?2?$AAd?$AAd?$AA?2?$AAv?$AAc?$AAt?$AAo?$AAo?$AAl?$AAs?$AA?2?$AAc?$AAr?$AAt?$AA?2?$AAc?$AAr?$AAt?$AAw?$AA3?$AA2?$AA?2?$AAm?$AAi?$AAs?$AAc?$AA?2?$AAi?$AAn@ 004ccd08     LIBCMTD:inittime.obj
 0002:00010d5c       ??_C@_15PDNFFFEO@?$AAf?$AAo?$AA?$AA@ 004ccd5c     LIBCMTD:winapinls.obj
 0002:00010d64       ??_C@_15OMLEGLOC@?$AAh?$AAi?$AA?$AA@ 004ccd64     LIBCMTD:winapinls.obj
 0002:00010d6c       ??_C@_15IDNNENKK@?$AAm?$AAs?$AA?$AA@ 004ccd6c     LIBCMTD:winapinls.obj
 0002:00010d74       ??_C@_15MACJNBMH@?$AAk?$AAk?$AA?$AA@ 004ccd74     LIBCMTD:winapinls.obj
 0002:00010d7c       ??_C@_15DKDJEOND@?$AAk?$AAy?$AA?$AA@ 004ccd7c     LIBCMTD:winapinls.obj
 0002:00010d84       ??_C@_15DFGDLJBG@?$AAs?$AAw?$AA?$AA@ 004ccd84     LIBCMTD:winapinls.obj
 0002:00010d8c       ??_C@_15BBFAICNG@?$AAu?$AAz?$AA?$AA@ 004ccd8c     LIBCMTD:winapinls.obj
 0002:00010d94       ??_C@_15DKNDCGEA@?$AAt?$AAt?$AA?$AA@ 004ccd94     LIBCMTD:winapinls.obj
 0002:00010d9c       ??_C@_15MGIFMDPL@?$AAp?$AAa?$AA?$AA@ 004ccd9c     LIBCMTD:winapinls.obj
 0002:00010da4       ??_C@_15HCNDBBA@?$AAg?$AAu?$AA?$AA@ 004ccda4     LIBCMTD:winapinls.obj
 0002:00010dac       ??_C@_15FNBEIBON@?$AAt?$AAa?$AA?$AA@ 004ccdac     LIBCMTD:winapinls.obj
 0002:00010db4       ??_C@_15NCHGBGLK@?$AAt?$AAe?$AA?$AA@ 004ccdb4     LIBCMTD:winapinls.obj
 0002:00010dbc       ??_C@_15PHPHCBPF@?$AAk?$AAn?$AA?$AA@ 004ccdbc     LIBCMTD:winapinls.obj
 0002:00010dc4       ??_C@_15DLGBCKMP@?$AAm?$AAr?$AA?$AA@ 004ccdc4     LIBCMTD:winapinls.obj
 0002:00010dcc       ??_C@_15EABBLBFF@?$AAs?$AAa?$AA?$AA@ 004ccdcc     LIBCMTD:winapinls.obj
 0002:00010dd4       ??_C@_15CBKOMCOI@?$AAm?$AAn?$AA?$AA@ 004ccdd4     LIBCMTD:winapinls.obj
 0002:00010ddc       ??_C@_15CKDMCJAF@?$AAg?$AAl?$AA?$AA@ 004ccddc     LIBCMTD:winapinls.obj
 0002:00010de4       ??_C@_17CNJFBPG@?$AAk?$AAo?$AAk?$AA?$AA@ 004ccde4     LIBCMTD:winapinls.obj
 0002:00010dec       ??_C@_17FFBJICPL@?$AAs?$AAy?$AAr?$AA?$AA@ 004ccdec     LIBCMTD:winapinls.obj
 0002:00010df4       ??_C@_17KPNDCPAF@?$AAd?$AAi?$AAv?$AA?$AA@ 004ccdf4     LIBCMTD:winapinls.obj
 0002:00010dfc       ??_C@_1M@OKAHONE@?$AAa?$AAr?$AA?9?$AAS?$AAA?$AA?$AA@ 004ccdfc     LIBCMTD:winapinls.obj
 0002:00010e08       ??_C@_1M@FFFIGIGK@?$AAb?$AAg?$AA?9?$AAB?$AAG?$AA?$AA@ 004cce08     LIBCMTD:winapinls.obj
 0002:00010e14       ??_C@_1M@BJNKEDC@?$AAc?$AAa?$AA?9?$AAE?$AAS?$AA?$AA@ 004cce14     LIBCMTD:winapinls.obj
 0002:00010e20       ??_C@_1M@IJJHFJHA@?$AAc?$AAs?$AA?9?$AAC?$AAZ?$AA?$AA@ 004cce20     LIBCMTD:winapinls.obj
 0002:00010e2c       ??_C@_1M@CLPEOBGI@?$AAd?$AAa?$AA?9?$AAD?$AAK?$AA?$AA@ 004cce2c     LIBCMTD:winapinls.obj
 0002:00010e38       ??_C@_1M@MCMADGCB@?$AAd?$AAe?$AA?9?$AAD?$AAE?$AA?$AA@ 004cce38     LIBCMTD:winapinls.obj
 0002:00010e44       ??_C@_1M@OOCKEMAM@?$AAe?$AAl?$AA?9?$AAG?$AAR?$AA?$AA@ 004cce44     LIBCMTD:winapinls.obj
 0002:00010e50       ??_C@_1M@DDNJFGID@?$AAf?$AAi?$AA?9?$AAF?$AAI?$AA?$AA@ 004cce50     LIBCMTD:winapinls.obj
 0002:00010e5c       ??_C@_1M@GLIPPMAC@?$AAf?$AAr?$AA?9?$AAF?$AAR?$AA?$AA@ 004cce5c     LIBCMTD:winapinls.obj
 0002:00010e68       ??_C@_1M@GFMCHPE@?$AAh?$AAe?$AA?9?$AAI?$AAL?$AA?$AA@ 004cce68     LIBCMTD:winapinls.obj
 0002:00010e74       ??_C@_1M@MHLPGNKM@?$AAh?$AAu?$AA?9?$AAH?$AAU?$AA?$AA@ 004cce74     LIBCMTD:winapinls.obj
 0002:00010e80       ??_C@_1M@LPDDNNPN@?$AAi?$AAs?$AA?9?$AAI?$AAS?$AA?$AA@ 004cce80     LIBCMTD:winapinls.obj
 0002:00010e8c       ??_C@_1M@MADIPODN@?$AAi?$AAt?$AA?9?$AAI?$AAT?$AA?$AA@ 004cce8c     LIBCMTD:winapinls.obj
 0002:00010e98       ??_C@_1M@IHBJJGG@?$AAn?$AAl?$AA?9?$AAN?$AAL?$AA?$AA@ 004cce98     LIBCMTD:winapinls.obj
 0002:00010ea4       ??_C@_1M@EANAGDL@?$AAn?$AAb?$AA?9?$AAN?$AAO?$AA?$AA@ 004ccea4     LIBCMTD:winapinls.obj
 0002:00010eb0       ??_C@_1M@NEIEMEGP@?$AAp?$AAl?$AA?9?$AAP?$AAL?$AA?$AA@ 004cceb0     LIBCMTD:winapinls.obj
 0002:00010ebc       ??_C@_1M@BOCFIGEP@?$AAp?$AAt?$AA?9?$AAB?$AAR?$AA?$AA@ 004ccebc     LIBCMTD:winapinls.obj
 0002:00010ec8       ??_C@_1M@IMPFOPBG@?$AAr?$AAo?$AA?9?$AAR?$AAO?$AA?$AA@ 004ccec8     LIBCMTD:winapinls.obj
 0002:00010ed4       ??_C@_1M@IDNNEJMM@?$AAr?$AAu?$AA?9?$AAR?$AAU?$AA?$AA@ 004cced4     LIBCMTD:winapinls.obj
 0002:00010ee0       ??_C@_1M@LILEEOGM@?$AAh?$AAr?$AA?9?$AAH?$AAR?$AA?$AA@ 004ccee0     LIBCMTD:winapinls.obj
 0002:00010eec       ??_C@_1M@FKIFEHPB@?$AAs?$AAk?$AA?9?$AAS?$AAK?$AA?$AA@ 004cceec     LIBCMTD:winapinls.obj
 0002:00010ef8       ??_C@_1M@LJMAMNPJ@?$AAs?$AAq?$AA?9?$AAA?$AAL?$AA?$AA@ 004ccef8     LIBCMTD:winapinls.obj
 0002:00010f04       ??_C@_1M@GIAKDKJK@?$AAs?$AAv?$AA?9?$AAS?$AAE?$AA?$AA@ 004ccf04     LIBCMTD:winapinls.obj
 0002:00010f10       ??_C@_1M@MKJKIKCL@?$AAt?$AAh?$AA?9?$AAT?$AAH?$AA?$AA@ 004ccf10     LIBCMTD:winapinls.obj
 0002:00010f1c       ??_C@_1M@MFLCCMPB@?$AAt?$AAr?$AA?9?$AAT?$AAR?$AA?$AA@ 004ccf1c     LIBCMTD:winapinls.obj
 0002:00010f28       ??_C@_1M@OIJHDKJN@?$AAu?$AAr?$AA?9?$AAP?$AAK?$AA?$AA@ 004ccf28     LIBCMTD:winapinls.obj
 0002:00010f34       ??_C@_1M@LHIPCIEK@?$AAi?$AAd?$AA?9?$AAI?$AAD?$AA?$AA@ 004ccf34     LIBCMTD:winapinls.obj
 0002:00010f40       ??_C@_1M@MFMOBGI@?$AAu?$AAk?$AA?9?$AAU?$AAA?$AA?$AA@ 004ccf40     LIBCMTD:winapinls.obj
 0002:00010f4c       ??_C@_1M@OBGLJIPL@?$AAb?$AAe?$AA?9?$AAB?$AAY?$AA?$AA@ 004ccf4c     LIBCMTD:winapinls.obj
 0002:00010f58       ??_C@_1M@BCFAJEAD@?$AAs?$AAl?$AA?9?$AAS?$AAI?$AA?$AA@ 004ccf58     LIBCMTD:winapinls.obj
 0002:00010f64       ??_C@_1M@FKFFEDDN@?$AAe?$AAt?$AA?9?$AAE?$AAE?$AA?$AA@ 004ccf64     LIBCMTD:winapinls.obj
 0002:00010f70       ??_C@_1M@KGKKAACI@?$AAl?$AAv?$AA?9?$AAL?$AAV?$AA?$AA@ 004ccf70     LIBCMTD:winapinls.obj
 0002:00010f7c       ??_C@_1M@IFGBIJO@?$AAl?$AAt?$AA?9?$AAL?$AAT?$AA?$AA@ 004ccf7c     LIBCMTD:winapinls.obj
 0002:00010f88       ??_C@_1M@FGEAHEDM@?$AAf?$AAa?$AA?9?$AAI?$AAR?$AA?$AA@ 004ccf88     LIBCMTD:winapinls.obj
 0002:00010f94       ??_C@_1M@KBMAIBFN@?$AAv?$AAi?$AA?9?$AAV?$AAN?$AA?$AA@ 004ccf94     LIBCMTD:winapinls.obj
 0002:00010fa0       ??_C@_1M@GPCBKDJK@?$AAh?$AAy?$AA?9?$AAA?$AAM?$AA?$AA@ 004ccfa0     LIBCMTD:winapinls.obj
 0002:00010fac       ??_C@_1BG@BECMDDJB@?$AAa?$AAz?$AA?9?$AAA?$AAZ?$AA?9?$AAL?$AAa?$AAt?$AAn?$AA?$AA@ 004ccfac     LIBCMTD:winapinls.obj
 0002:00010fc4       ??_C@_1M@MAOFCAEA@?$AAe?$AAu?$AA?9?$AAE?$AAS?$AA?$AA@ 004ccfc4     LIBCMTD:winapinls.obj
 0002:00010fd0       ??_C@_1M@IGHABKPI@?$AAm?$AAk?$AA?9?$AAM?$AAK?$AA?$AA@ 004ccfd0     LIBCMTD:winapinls.obj
 0002:00010fdc       ??_C@_1M@IAIGNEJG@?$AAt?$AAn?$AA?9?$AAZ?$AAA?$AA?$AA@ 004ccfdc     LIBCMTD:winapinls.obj
 0002:00010fe8       ??_C@_1M@IIJCOJFA@?$AAx?$AAh?$AA?9?$AAZ?$AAA?$AA?$AA@ 004ccfe8     LIBCMTD:winapinls.obj
 0002:00010ff4       ??_C@_1M@LGPJHNJH@?$AAz?$AAu?$AA?9?$AAZ?$AAA?$AA?$AA@ 004ccff4     LIBCMTD:winapinls.obj
 0002:00011000       ??_C@_1M@HOKAOIO@?$AAa?$AAf?$AA?9?$AAZ?$AAA?$AA?$AA@ 004cd000     LIBCMTD:winapinls.obj
 0002:0001100c       ??_C@_1M@DPCLHLIE@?$AAk?$AAa?$AA?9?$AAG?$AAE?$AA?$AA@ 004cd00c     LIBCMTD:winapinls.obj
 0002:00011018       ??_C@_1M@BLKMHJBI@?$AAf?$AAo?$AA?9?$AAF?$AAO?$AA?$AA@ 004cd018     LIBCMTD:winapinls.obj
 0002:00011024       ??_C@_1M@LGGJAPPB@?$AAh?$AAi?$AA?9?$AAI?$AAN?$AA?$AA@ 004cd024     LIBCMTD:winapinls.obj
 0002:00011030       ??_C@_1M@FIKPIHFE@?$AAm?$AAt?$AA?9?$AAM?$AAT?$AA?$AA@ 004cd030     LIBCMTD:winapinls.obj
 0002:0001103c       ??_C@_1M@HEGGPBFA@?$AAs?$AAe?$AA?9?$AAN?$AAO?$AA?$AA@ 004cd03c     LIBCMTD:winapinls.obj
 0002:00011048       ??_C@_1M@EIBJEEPA@?$AAm?$AAs?$AA?9?$AAM?$AAY?$AA?$AA@ 004cd048     LIBCMTD:winapinls.obj
 0002:00011054       ??_C@_1M@FHLBGMPP@?$AAk?$AAk?$AA?9?$AAK?$AAZ?$AA?$AA@ 004cd054     LIBCMTD:winapinls.obj
 0002:00011060       ??_C@_1M@NGJJLCGI@?$AAk?$AAy?$AA?9?$AAK?$AAG?$AA?$AA@ 004cd060     LIBCMTD:winapinls.obj
 0002:0001106c       ??_C@_1M@GIENNBFC@?$AAs?$AAw?$AA?9?$AAK?$AAE?$AA?$AA@ 004cd06c     LIBCMTD:winapinls.obj
 0002:00011078       ??_C@_1BG@NDGMJIMJ@?$AAu?$AAz?$AA?9?$AAU?$AAZ?$AA?9?$AAL?$AAa?$AAt?$AAn?$AA?$AA@ 004cd078     LIBCMTD:winapinls.obj
 0002:00011090       ??_C@_1M@IDCCIHBC@?$AAt?$AAt?$AA?9?$AAR?$AAU?$AA?$AA@ 004cd090     LIBCMTD:winapinls.obj
 0002:0001109c       ??_C@_1M@LOICPMOJ@?$AAb?$AAn?$AA?9?$AAI?$AAN?$AA?$AA@ 004cd09c     LIBCMTD:winapinls.obj
 0002:000110a8       ??_C@_1M@KPKKNEAH@?$AAp?$AAa?$AA?9?$AAI?$AAN?$AA?$AA@ 004cd0a8     LIBCMTD:winapinls.obj
 0002:000110b4       ??_C@_1M@PJGPPBOG@?$AAg?$AAu?$AA?9?$AAI?$AAN?$AA?$AA@ 004cd0b4     LIBCMTD:winapinls.obj
 0002:000110c0       ??_C@_1M@KMKMOPHI@?$AAt?$AAa?$AA?9?$AAI?$AAN?$AA?$AA@ 004cd0c0     LIBCMTD:winapinls.obj
 0002:000110cc       ??_C@_1M@KFEHEPAC@?$AAt?$AAe?$AA?9?$AAI?$AAN?$AA?$AA@ 004cd0cc     LIBCMTD:winapinls.obj
 0002:000110d8       ??_C@_1M@CDCLMGHI@?$AAk?$AAn?$AA?9?$AAI?$AAN?$AA?$AA@ 004cd0d8     LIBCMTD:winapinls.obj
 0002:000110e4       ??_C@_1M@MIODLDKF@?$AAm?$AAl?$AA?9?$AAI?$AAN?$AA?$AA@ 004cd0e4     LIBCMTD:winapinls.obj
 0002:000110f0       ??_C@_1M@PBIEACPO@?$AAm?$AAr?$AA?9?$AAI?$AAN?$AA?$AA@ 004cd0f0     LIBCMTD:winapinls.obj
 0002:000110fc       ??_C@_1M@NIDEAGPH@?$AAs?$AAa?$AA?9?$AAI?$AAN?$AA?$AA@ 004cd0fc     LIBCMTD:winapinls.obj
 0002:00011108       ??_C@_1M@FHIHCBIO@?$AAm?$AAn?$AA?9?$AAM?$AAN?$AA?$AA@ 004cd108     LIBCMTD:winapinls.obj
 0002:00011114       ??_C@_1M@JAIJPENP@?$AAc?$AAy?$AA?9?$AAG?$AAB?$AA?$AA@ 004cd114     LIBCMTD:winapinls.obj
 0002:00011120       ??_C@_1M@PHGFBEPN@?$AAg?$AAl?$AA?9?$AAE?$AAS?$AA?$AA@ 004cd120     LIBCMTD:winapinls.obj
 0002:0001112c       ??_C@_1O@KPIPDNCP@?$AAk?$AAo?$AAk?$AA?9?$AAI?$AAN?$AA?$AA@ 004cd12c     LIBCMTD:winapinls.obj
 0002:0001113c       ??_C@_1O@KNHJLDJA@?$AAs?$AAy?$AAr?$AA?9?$AAS?$AAY?$AA?$AA@ 004cd13c     LIBCMTD:winapinls.obj
 0002:0001114c       ??_C@_1O@MKEKBLAH@?$AAd?$AAi?$AAv?$AA?9?$AAM?$AAV?$AA?$AA@ 004cd14c     LIBCMTD:winapinls.obj
 0002:0001115c       ??_C@_1O@OHDCKDDF@?$AAq?$AAu?$AAz?$AA?9?$AAB?$AAO?$AA?$AA@ 004cd15c     LIBCMTD:winapinls.obj
 0002:0001116c       ??_C@_1M@LEPJNLFD@?$AAn?$AAs?$AA?9?$AAZ?$AAA?$AA?$AA@ 004cd16c     LIBCMTD:winapinls.obj
 0002:00011178       ??_C@_1M@OMLEIIJB@?$AAm?$AAi?$AA?9?$AAN?$AAZ?$AA?$AA@ 004cd178     LIBCMTD:winapinls.obj
 0002:00011184       ??_C@_1M@PMPEAILG@?$AAa?$AAr?$AA?9?$AAI?$AAQ?$AA?$AA@ 004cd184     LIBCMTD:winapinls.obj
 0002:00011190       ??_C@_1M@CNKPNOEE@?$AAd?$AAe?$AA?9?$AAC?$AAH?$AA?$AA@ 004cd190     LIBCMTD:winapinls.obj
 0002:0001119c       ??_C@_1M@LKMGMLKO@?$AAe?$AAn?$AA?9?$AAG?$AAB?$AA?$AA@ 004cd19c     LIBCMTD:winapinls.obj
 0002:000111a8       ??_C@_1M@PGKJFFGL@?$AAe?$AAs?$AA?9?$AAM?$AAX?$AA?$AA@ 004cd1a8     LIBCMTD:winapinls.obj
 0002:000111b4       ??_C@_1M@DNNANBDC@?$AAf?$AAr?$AA?9?$AAB?$AAE?$AA?$AA@ 004cd1b4     LIBCMTD:winapinls.obj
 0002:000111c0       ??_C@_1M@HLGMDFHM@?$AAi?$AAt?$AA?9?$AAC?$AAH?$AA?$AA@ 004cd1c0     LIBCMTD:winapinls.obj
 0002:000111cc       ??_C@_1M@CLLBGJH@?$AAn?$AAl?$AA?9?$AAB?$AAE?$AA?$AA@ 004cd1cc     LIBCMTD:winapinls.obj
 0002:000111d8       ??_C@_1M@BODBOGLF@?$AAn?$AAn?$AA?9?$AAN?$AAO?$AA?$AA@ 004cd1d8     LIBCMTD:winapinls.obj
 0002:000111e4       ??_C@_1M@HFFAHKAD@?$AAp?$AAt?$AA?9?$AAP?$AAT?$AA?$AA@ 004cd1e4     LIBCMTD:winapinls.obj
 0002:000111f0       ??_C@_1BG@LNOAKHIE@?$AAs?$AAr?$AA?9?$AAS?$AAP?$AA?9?$AAL?$AAa?$AAt?$AAn?$AA?$AA@ 004cd1f0     LIBCMTD:winapinls.obj
 0002:00011208       ??_C@_1M@HBMHBGAK@?$AAs?$AAv?$AA?9?$AAF?$AAI?$AA?$AA@ 004cd208     LIBCMTD:winapinls.obj
 0002:00011214       ??_C@_1BG@DGCJGJBE@?$AAa?$AAz?$AA?9?$AAA?$AAZ?$AA?9?$AAC?$AAy?$AAr?$AAl?$AA?$AA@ 004cd214     LIBCMTD:winapinls.obj
 0002:0001122c       ??_C@_1M@KEJDAAHB@?$AAs?$AAe?$AA?9?$AAS?$AAE?$AA?$AA@ 004cd22c     LIBCMTD:winapinls.obj
 0002:00011238       ??_C@_1M@HEIBJJAD@?$AAm?$AAs?$AA?9?$AAB?$AAN?$AA?$AA@ 004cd238     LIBCMTD:winapinls.obj
 0002:00011244       ??_C@_1BG@PBGJMCEM@?$AAu?$AAz?$AA?9?$AAU?$AAZ?$AA?9?$AAC?$AAy?$AAr?$AAl?$AA?$AA@ 004cd244     LIBCMTD:winapinls.obj
 0002:0001125c       ??_C@_1O@LAOBCMDF@?$AAq?$AAu?$AAz?$AA?9?$AAE?$AAC?$AA?$AA@ 004cd25c     LIBCMTD:winapinls.obj
 0002:0001126c       ??_C@_1M@POEEMAIO@?$AAa?$AAr?$AA?9?$AAE?$AAG?$AA?$AA@ 004cd26c     LIBCMTD:winapinls.obj
 0002:00011278       ??_C@_1M@EFAKDEDL@?$AAz?$AAh?$AA?9?$AAH?$AAK?$AA?$AA@ 004cd278     LIBCMTD:winapinls.obj
 0002:00011284       ??_C@_1M@HKKIJHGI@?$AAd?$AAe?$AA?9?$AAA?$AAT?$AA?$AA@ 004cd284     LIBCMTD:winapinls.obj
 0002:00011290       ??_C@_1M@KBFBEHJF@?$AAe?$AAn?$AA?9?$AAA?$AAU?$AA?$AA@ 004cd290     LIBCMTD:winapinls.obj
 0002:0001129c       ??_C@_1M@MNPLFAAH@?$AAe?$AAs?$AA?9?$AAE?$AAS?$AA?$AA@ 004cd29c     LIBCMTD:winapinls.obj
 0002:000112a8       ??_C@_1M@HJOOJFMA@?$AAf?$AAr?$AA?9?$AAC?$AAA?$AA?$AA@ 004cd2a8     LIBCMTD:winapinls.obj
 0002:000112b4       ??_C@_1BG@JPOFPNAB@?$AAs?$AAr?$AA?9?$AAS?$AAP?$AA?9?$AAC?$AAy?$AAr?$AAl?$AA?$AA@ 004cd2b4     LIBCMTD:winapinls.obj
 0002:000112cc       ??_C@_1M@LNFOCMOB@?$AAs?$AAe?$AA?9?$AAF?$AAI?$AA?$AA@ 004cd2cc     LIBCMTD:winapinls.obj
 0002:000112d8       ??_C@_1O@MGJBOAMB@?$AAq?$AAu?$AAz?$AA?9?$AAP?$AAE?$AA?$AA@ 004cd2d8     LIBCMTD:winapinls.obj
 0002:000112e8       ??_C@_1M@GJINLBOK@?$AAa?$AAr?$AA?9?$AAL?$AAY?$AA?$AA@ 004cd2e8     LIBCMTD:winapinls.obj
 0002:000112f4       ??_C@_1M@GGMNHJNL@?$AAz?$AAh?$AA?9?$AAS?$AAG?$AA?$AA@ 004cd2f4     LIBCMTD:winapinls.obj
 0002:00011300       ??_C@_1M@HOIKODND@?$AAd?$AAe?$AA?9?$AAL?$AAU?$AA?$AA@ 004cd300     LIBCMTD:winapinls.obj
 0002:0001130c       ??_C@_1M@DDOCCGFG@?$AAe?$AAn?$AA?9?$AAC?$AAA?$AA?$AA@ 004cd30c     LIBCMTD:winapinls.obj
 0002:00011318       ??_C@_1M@BNOEMJLF@?$AAe?$AAs?$AA?9?$AAG?$AAT?$AA?$AA@ 004cd318     LIBCMTD:winapinls.obj
 0002:00011324       ??_C@_1M@EOGNKEK@?$AAf?$AAr?$AA?9?$AAC?$AAH?$AA?$AA@ 004cd324     LIBCMTD:winapinls.obj
 0002:00011330       ??_C@_1M@FLIDJFHL@?$AAh?$AAr?$AA?9?$AAB?$AAA?$AA?$AA@ 004cd330     LIBCMTD:winapinls.obj
 0002:0001133c       ??_C@_1O@FMCELNAJ@?$AAs?$AAm?$AAj?$AA?9?$AAN?$AAO?$AA?$AA@ 004cd33c     LIBCMTD:winapinls.obj
 0002:0001134c       ??_C@_1M@JHGLJMGJ@?$AAa?$AAr?$AA?9?$AAD?$AAZ?$AA?$AA@ 004cd34c     LIBCMTD:winapinls.obj
 0002:00011358       ??_C@_1M@JKKFDCNP@?$AAz?$AAh?$AA?9?$AAM?$AAO?$AA?$AA@ 004cd358     LIBCMTD:winapinls.obj
 0002:00011364       ??_C@_1M@GEEFALPE@?$AAd?$AAe?$AA?9?$AAL?$AAI?$AA?$AA@ 004cd364     LIBCMTD:winapinls.obj
 0002:00011370       ??_C@_1M@IGEOFBG@?$AAe?$AAn?$AA?9?$AAN?$AAZ?$AA?$AA@ 004cd370     LIBCMTD:winapinls.obj
 0002:0001137c       ??_C@_1M@KDBONEHP@?$AAe?$AAs?$AA?9?$AAC?$AAR?$AA?$AA@ 004cd37c     LIBCMTD:winapinls.obj
 0002:00011388       ??_C@_1M@FHMDOHNN@?$AAf?$AAr?$AA?9?$AAL?$AAU?$AA?$AA@ 004cd388     LIBCMTD:winapinls.obj
 0002:00011394       ??_C@_1BG@NFKKMAFG@?$AAb?$AAs?$AA?9?$AAB?$AAA?$AA?9?$AAL?$AAa?$AAt?$AAn?$AA?$AA@ 004cd394     LIBCMTD:winapinls.obj
 0002:000113ac       ??_C@_1O@IMNBEMCI@?$AAs?$AAm?$AAj?$AA?9?$AAS?$AAE?$AA?$AA@ 004cd3ac     LIBCMTD:winapinls.obj
 0002:000113bc       ??_C@_1M@DHHMBNDP@?$AAa?$AAr?$AA?9?$AAM?$AAA?$AA?$AA@ 004cd3bc     LIBCMTD:winapinls.obj
 0002:000113c8       ??_C@_1M@BNBLJCGH@?$AAe?$AAn?$AA?9?$AAI?$AAE?$AA?$AA@ 004cd3c8     LIBCMTD:winapinls.obj
 0002:000113d4       ??_C@_1M@GEPAFMDL@?$AAe?$AAs?$AA?9?$AAP?$AAA?$AA?$AA@ 004cd3d4     LIBCMTD:winapinls.obj
 0002:000113e0       ??_C@_1M@OJONDMDL@?$AAf?$AAr?$AA?9?$AAM?$AAC?$AA?$AA@ 004cd3e0     LIBCMTD:winapinls.obj
 0002:000113ec       ??_C@_1BG@OBCNFJB@?$AAs?$AAr?$AA?9?$AAB?$AAA?$AA?9?$AAL?$AAa?$AAt?$AAn?$AA?$AA@ 004cd3ec     LIBCMTD:winapinls.obj
 0002:00011404       ??_C@_1O@KEMEEGPO@?$AAs?$AAm?$AAa?$AA?9?$AAN?$AAO?$AA?$AA@ 004cd404     LIBCMTD:winapinls.obj
 0002:00011414       ??_C@_1M@ELMGFODK@?$AAa?$AAr?$AA?9?$AAT?$AAN?$AA?$AA@ 004cd414     LIBCMTD:winapinls.obj
 0002:00011420       ??_C@_1M@BHDLHFAF@?$AAe?$AAn?$AA?9?$AAZ?$AAA?$AA?$AA@ 004cd420     LIBCMTD:winapinls.obj
 0002:0001142c       ??_C@_1M@BMGIGLIF@?$AAe?$AAs?$AA?9?$AAD?$AAO?$AA?$AA@ 004cd42c     LIBCMTD:winapinls.obj
 0002:00011438       ??_C@_1BG@CMBHIPBE@?$AAs?$AAr?$AA?9?$AAB?$AAA?$AA?9?$AAC?$AAy?$AAr?$AAl?$AA?$AA@ 004cd438     LIBCMTD:winapinls.obj
 0002:00011450       ??_C@_1O@HEDBLHNP@?$AAs?$AAm?$AAa?$AA?9?$AAS?$AAE?$AA?$AA@ 004cd450     LIBCMTD:winapinls.obj
 0002:00011460       ??_C@_1M@DAGCADIM@?$AAa?$AAr?$AA?9?$AAO?$AAM?$AA?$AA@ 004cd460     LIBCMTD:winapinls.obj
 0002:0001146c       ??_C@_1M@FODLMICG@?$AAe?$AAn?$AA?9?$AAJ?$AAM?$AA?$AA@ 004cd46c     LIBCMTD:winapinls.obj
 0002:00011478       ??_C@_1M@DNMLCIHB@?$AAe?$AAs?$AA?9?$AAV?$AAE?$AA?$AA@ 004cd478     LIBCMTD:winapinls.obj
 0002:00011484       ??_C@_1O@EOKHMKJK@?$AAs?$AAm?$AAs?$AA?9?$AAF?$AAI?$AA?$AA@ 004cd484     LIBCMTD:winapinls.obj
 0002:00011494       ??_C@_1M@CAFJMKOF@?$AAa?$AAr?$AA?9?$AAY?$AAE?$AA?$AA@ 004cd494     LIBCMTD:winapinls.obj
 0002:000114a0       ??_C@_1M@CBFHIJLI@?$AAe?$AAn?$AA?9?$AAC?$AAB?$AA?$AA@ 004cd4a0     LIBCMTD:winapinls.obj
 0002:000114ac       ??_C@_1M@BGNFLDN@?$AAe?$AAs?$AA?9?$AAC?$AAO?$AA?$AA@ 004cd4ac     LIBCMTD:winapinls.obj
 0002:000114b8       ??_C@_1O@JMPHMAMC@?$AAs?$AAm?$AAn?$AA?9?$AAF?$AAI?$AA?$AA@ 004cd4b8     LIBCMTD:winapinls.obj
 0002:000114c8       ??_C@_1M@JLANABKE@?$AAa?$AAr?$AA?9?$AAS?$AAY?$AA?$AA@ 004cd4c8     LIBCMTD:winapinls.obj
 0002:000114d4       ??_C@_1M@HPKGCFGN@?$AAe?$AAn?$AA?9?$AAB?$AAZ?$AA?$AA@ 004cd4d4     LIBCMTD:winapinls.obj
 0002:000114e0       ??_C@_1M@OLJCMLGM@?$AAe?$AAs?$AA?9?$AAP?$AAE?$AA?$AA@ 004cd4e0     LIBCMTD:winapinls.obj
 0002:000114ec       ??_C@_1M@MKKGFKLE@?$AAa?$AAr?$AA?9?$AAJ?$AAO?$AA?$AA@ 004cd4ec     LIBCMTD:winapinls.obj
 0002:000114f8       ??_C@_1M@EKPGLDNI@?$AAe?$AAn?$AA?9?$AAT?$AAT?$AA?$AA@ 004cd4f8     LIBCMTD:winapinls.obj
 0002:00011504       ??_C@_1M@OONGHFHE@?$AAe?$AAs?$AA?9?$AAA?$AAR?$AA?$AA@ 004cd504     LIBCMTD:winapinls.obj
 0002:00011510       ??_C@_1M@OOJFGBHE@?$AAa?$AAr?$AA?9?$AAL?$AAB?$AA?$AA@ 004cd510     LIBCMTD:winapinls.obj
 0002:0001151c       ??_C@_1M@GCEJHNEG@?$AAe?$AAn?$AA?9?$AAZ?$AAW?$AA?$AA@ 004cd51c     LIBCMTD:winapinls.obj
 0002:00011528       ??_C@_1M@JNOCAHJI@?$AAe?$AAs?$AA?9?$AAE?$AAC?$AA?$AA@ 004cd528     LIBCMTD:winapinls.obj
 0002:00011534       ??_C@_1M@JEFHPGGB@?$AAa?$AAr?$AA?9?$AAK?$AAW?$AA?$AA@ 004cd534     LIBCMTD:winapinls.obj
 0002:00011540       ??_C@_1M@MLKIBJOJ@?$AAe?$AAn?$AA?9?$AAP?$AAH?$AA?$AA@ 004cd540     LIBCMTD:winapinls.obj
 0002:0001154c       ??_C@_1M@BDNIPEND@?$AAe?$AAs?$AA?9?$AAC?$AAL?$AA?$AA@ 004cd54c     LIBCMTD:winapinls.obj
 0002:00011558       ??_C@_1M@MPNMEKBD@?$AAa?$AAr?$AA?9?$AAA?$AAE?$AA?$AA@ 004cd558     LIBCMTD:winapinls.obj
 0002:00011564       ??_C@_1M@KBJALCPI@?$AAe?$AAs?$AA?9?$AAU?$AAY?$AA?$AA@ 004cd564     LIBCMTD:winapinls.obj
 0002:00011570       ??_C@_1M@LLCCOAGA@?$AAa?$AAr?$AA?9?$AAB?$AAH?$AA?$AA@ 004cd570     LIBCMTD:winapinls.obj
 0002:0001157c       ??_C@_1M@PBFNCDEL@?$AAe?$AAs?$AA?9?$AAP?$AAY?$AA?$AA@ 004cd57c     LIBCMTD:winapinls.obj
 0002:00011588       ??_C@_1M@EDGINPNP@?$AAa?$AAr?$AA?9?$AAQ?$AAA?$AA?$AA@ 004cd588     LIBCMTD:winapinls.obj
 0002:00011594       ??_C@_1M@MKDBIIJI@?$AAe?$AAs?$AA?9?$AAB?$AAO?$AA?$AA@ 004cd594     LIBCMTD:winapinls.obj
 0002:000115a0       ??_C@_1M@CPKKEBLD@?$AAe?$AAs?$AA?9?$AAS?$AAV?$AA?$AA@ 004cd5a0     LIBCMTD:winapinls.obj
 0002:000115ac       ??_C@_1M@NDBGMMJL@?$AAe?$AAs?$AA?9?$AAH?$AAN?$AA?$AA@ 004cd5ac     LIBCMTD:winapinls.obj
 0002:000115b8       ??_C@_1M@JIJIBHDP@?$AAe?$AAs?$AA?9?$AAN?$AAI?$AA?$AA@ 004cd5b8     LIBCMTD:winapinls.obj
 0002:000115c4       ??_C@_1M@CGFMKEEK@?$AAe?$AAs?$AA?9?$AAP?$AAR?$AA?$AA@ 004cd5c4     LIBCMTD:winapinls.obj
 0002:000115d0       ??_C@_1O@ICJHKIIK@?$AAz?$AAh?$AA?9?$AAC?$AAH?$AAT?$AA?$AA@ 004cd5d0     LIBCMTD:winapinls.obj
 0002:000115e0       ??_C@_15CLNEJCE@?$AAs?$AAr?$AA?$AA@ 004cd5e0     LIBCMTD:winapinls.obj
 0002:000115e8       _LocaleNameToIndexTable    004cd5e8     LIBCMTD:winapinls.obj
 0002:00011d08       _LcidToLocaleNameTable     004cdd08     LIBCMTD:winapinls.obj
 0002:00012428       ??_C@_1M@KAHEKEIG@?$AAa?$AAf?$AA?9?$AAz?$AAa?$AA?$AA@ 004ce428     LIBCMTD:winapinls.obj
 0002:00012434       ??_C@_1M@GIECOABL@?$AAa?$AAr?$AA?9?$AAa?$AAe?$AA?$AA@ 004ce434     LIBCMTD:winapinls.obj
 0002:00012440       ??_C@_1M@BMLMEKGI@?$AAa?$AAr?$AA?9?$AAb?$AAh?$AA?$AA@ 004ce440     LIBCMTD:winapinls.obj
 0002:0001244c       ??_C@_1M@DAPFDGGB@?$AAa?$AAr?$AA?9?$AAd?$AAz?$AA?$AA@ 004ce44c     LIBCMTD:winapinls.obj
 0002:00012458       ??_C@_1M@FJNKGKIG@?$AAa?$AAr?$AA?9?$AAe?$AAg?$AA?$AA@ 004ce458     LIBCMTD:winapinls.obj
 0002:00012464       ??_C@_1M@FLGKKCLO@?$AAa?$AAr?$AA?9?$AAi?$AAq?$AA?$AA@ 004ce464     LIBCMTD:winapinls.obj
 0002:00012470       ??_C@_1M@GNDIPALM@?$AAa?$AAr?$AA?9?$AAj?$AAo?$AA?$AA@ 004ce470     LIBCMTD:winapinls.obj
 0002:0001247c       ??_C@_1M@DDMJFMGJ@?$AAa?$AAr?$AA?9?$AAk?$AAw?$AA?$AA@ 004ce47c     LIBCMTD:winapinls.obj
 0002:00012488       ??_C@_1M@EJALMLHM@?$AAa?$AAr?$AA?9?$AAl?$AAb?$AA?$AA@ 004ce488     LIBCMTD:winapinls.obj
 0002:00012494       ??_C@_1M@MOBDBLOC@?$AAa?$AAr?$AA?9?$AAl?$AAy?$AA?$AA@ 004ce494     LIBCMTD:winapinls.obj
 0002:000124a0       ??_C@_1M@JAOCLHDH@?$AAa?$AAr?$AA?9?$AAm?$AAa?$AA?$AA@ 004ce4a0     LIBCMTD:winapinls.obj
 0002:000124ac       ??_C@_1M@JHPMKJIE@?$AAa?$AAr?$AA?9?$AAo?$AAm?$AA?$AA@ 004ce4ac     LIBCMTD:winapinls.obj
 0002:000124b8       ??_C@_1M@OEPGHFNH@?$AAa?$AAr?$AA?9?$AAq?$AAa?$AA?$AA@ 004ce4b8     LIBCMTD:winapinls.obj
 0002:000124c4       ??_C@_1M@KJDONENM@?$AAa?$AAr?$AA?9?$AAs?$AAa?$AA?$AA@ 004ce4c4     LIBCMTD:winapinls.obj
 0002:000124d0       ??_C@_1M@DMJDKLKM@?$AAa?$AAr?$AA?9?$AAs?$AAy?$AA?$AA@ 004ce4d0     LIBCMTD:winapinls.obj
 0002:000124dc       ??_C@_1M@OMFIPEDC@?$AAa?$AAr?$AA?9?$AAt?$AAn?$AA?$AA@ 004ce4dc     LIBCMTD:winapinls.obj
 0002:000124e8       ??_C@_1M@IHMHGAON@?$AAa?$AAr?$AA?9?$AAy?$AAe?$AA?$AA@ 004ce4e8     LIBCMTD:winapinls.obj
 0002:000124f4       ??_C@_1BG@KDCPGJGB@?$AAa?$AAz?$AA?9?$AAa?$AAz?$AA?9?$AAc?$AAy?$AAr?$AAl?$AA?$AA@ 004ce4f4     LIBCMTD:winapinls.obj
 0002:0001250c       ??_C@_1BG@IBCKDDOE@?$AAa?$AAz?$AA?9?$AAa?$AAz?$AA?9?$AAl?$AAa?$AAt?$AAn?$AA?$AA@ 004ce50c     LIBCMTD:winapinls.obj
 0002:00012524       ??_C@_1M@EGPFDCPD@?$AAb?$AAe?$AA?9?$AAb?$AAy?$AA?$AA@ 004ce524     LIBCMTD:winapinls.obj
 0002:00012530       ??_C@_1M@PCMGMCGC@?$AAb?$AAg?$AA?9?$AAb?$AAg?$AA?$AA@ 004ce530     LIBCMTD:winapinls.obj
 0002:0001253c       ??_C@_1M@BJBMFGOB@?$AAb?$AAn?$AA?9?$AAi?$AAn?$AA?$AA@ 004ce53c     LIBCMTD:winapinls.obj
 0002:00012548       ??_C@_1BG@EAKMMACD@?$AAb?$AAs?$AA?9?$AAb?$AAa?$AA?9?$AAl?$AAa?$AAt?$AAn?$AA?$AA@ 004ce548     LIBCMTD:winapinls.obj
 0002:00012560       ??_C@_1M@KGADAODK@?$AAc?$AAa?$AA?9?$AAe?$AAs?$AA?$AA@ 004ce560     LIBCMTD:winapinls.obj
 0002:0001256c       ??_C@_1M@COAJPDHI@?$AAc?$AAs?$AA?9?$AAc?$AAz?$AA?$AA@ 004ce56c     LIBCMTD:winapinls.obj
 0002:00012578       ??_C@_1M@DHBHFONH@?$AAc?$AAy?$AA?9?$AAg?$AAb?$AA?$AA@ 004ce578     LIBCMTD:winapinls.obj
 0002:00012584       ??_C@_1M@IMGKELGA@?$AAd?$AAa?$AA?9?$AAd?$AAk?$AA?$AA@ 004ce584     LIBCMTD:winapinls.obj
 0002:00012590       ??_C@_1M@NNDGDNGA@?$AAd?$AAe?$AA?9?$AAa?$AAt?$AA?$AA@ 004ce590     LIBCMTD:winapinls.obj
 0002:0001259c       ??_C@_1M@IKDBHEEM@?$AAd?$AAe?$AA?9?$AAc?$AAh?$AA?$AA@ 004ce59c     LIBCMTD:winapinls.obj
 0002:000125a8       ??_C@_1M@GFFOJMCJ@?$AAd?$AAe?$AA?9?$AAd?$AAe?$AA?$AA@ 004ce5a8     LIBCMTD:winapinls.obj
 0002:000125b4       ??_C@_1M@MDNLKBPM@?$AAd?$AAe?$AA?9?$AAl?$AAi?$AA?$AA@ 004ce5b4     LIBCMTD:winapinls.obj
 0002:000125c0       ??_C@_1M@NJBEEJNL@?$AAd?$AAe?$AA?9?$AAl?$AAu?$AA?$AA@ 004ce5c0     LIBCMTD:winapinls.obj
 0002:000125cc       ??_C@_1O@GNNELBAP@?$AAd?$AAi?$AAv?$AA?9?$AAm?$AAv?$AA?$AA@ 004ce5cc     LIBCMTD:winapinls.obj
 0002:000125dc       ??_C@_1M@EJLEOGAE@?$AAe?$AAl?$AA?9?$AAg?$AAr?$AA?$AA@ 004ce5dc     LIBCMTD:winapinls.obj
 0002:000125e8       ??_C@_1M@GMPONJN@?$AAe?$AAn?$AA?9?$AAa?$AAu?$AA?$AA@ 004ce5e8     LIBCMTD:winapinls.obj
 0002:000125f4       ??_C@_1M@NIDIIPGF@?$AAe?$AAn?$AA?9?$AAb?$AAz?$AA?$AA@ 004ce5f4     LIBCMTD:winapinls.obj
 0002:00012600       ??_C@_1M@JEHMIMFO@?$AAe?$AAn?$AA?9?$AAc?$AAa?$AA?$AA@ 004ce600     LIBCMTD:winapinls.obj
 0002:0001260c       ??_C@_1M@IGMJCDLA@?$AAe?$AAn?$AA?9?$AAc?$AAb?$AA?$AA@ 004ce60c     LIBCMTD:winapinls.obj
 0002:00012618       ??_C@_1M@BNFIGBKG@?$AAe?$AAn?$AA?9?$AAg?$AAb?$AA?$AA@ 004ce618     LIBCMTD:winapinls.obj
 0002:00012624       ??_C@_1M@LKIFDIGP@?$AAe?$AAn?$AA?9?$AAi?$AAe?$AA?$AA@ 004ce624     LIBCMTD:winapinls.obj
 0002:00012630       ??_C@_1M@PJKFGCCO@?$AAe?$AAn?$AA?9?$AAj?$AAm?$AA?$AA@ 004ce630     LIBCMTD:winapinls.obj
 0002:0001263c       ??_C@_1M@KPPKEPBO@?$AAe?$AAn?$AA?9?$AAn?$AAz?$AA?$AA@ 004ce63c     LIBCMTD:winapinls.obj
 0002:00012648       ??_C@_1M@GMDGLDOB@?$AAe?$AAn?$AA?9?$AAp?$AAh?$AA?$AA@ 004ce648     LIBCMTD:winapinls.obj
 0002:00012654       ??_C@_1M@ONGIBJNA@?$AAe?$AAn?$AA?9?$AAt?$AAt?$AA?$AA@ 004ce654     LIBCMTD:winapinls.obj
 0002:00012660       ??_C@_1M@LLODPCMM@?$AAe?$AAn?$AA?9?$AAu?$AAs?$AA?$AA@ 004ce660     LIBCMTD:winapinls.obj
 0002:0001266c       ??_C@_1M@LAKFNPAN@?$AAe?$AAn?$AA?9?$AAz?$AAa?$AA?$AA@ 004ce66c     LIBCMTD:winapinls.obj
 0002:00012678       ??_C@_1M@MFNHNHEO@?$AAe?$AAn?$AA?9?$AAz?$AAw?$AA?$AA@ 004ce678     LIBCMTD:winapinls.obj
 0002:00012684       ??_C@_1M@EJEINPHM@?$AAe?$AAs?$AA?9?$AAa?$AAr?$AA?$AA@ 004ce684     LIBCMTD:winapinls.obj
 0002:00012690       ??_C@_1M@GNKPCCJA@?$AAe?$AAs?$AA?9?$AAb?$AAo?$AA?$AA@ 004ce690     LIBCMTD:winapinls.obj
 0002:0001269c       ??_C@_1M@LEEGFONL@?$AAe?$AAs?$AA?9?$AAc?$AAl?$AA?$AA@ 004ce69c     LIBCMTD:winapinls.obj
 0002:000126a8       ??_C@_1M@KGPDPBDF@?$AAe?$AAs?$AA?9?$AAc?$AAo?$AA?$AA@ 004ce6a8     LIBCMTD:winapinls.obj
 0002:000126b4       ??_C@_1M@EIAHOHH@?$AAe?$AAs?$AA?9?$AAc?$AAr?$AA?$AA@ 004ce6b4     LIBCMTD:winapinls.obj
 0002:000126c0       ??_C@_1M@LLPGMBIN@?$AAe?$AAs?$AA?9?$AAd?$AAo?$AA?$AA@ 004ce6c0     LIBCMTD:winapinls.obj
 0002:000126cc       ??_C@_1M@DKHMKNJA@?$AAe?$AAs?$AA?9?$AAe?$AAc?$AA?$AA@ 004ce6cc     LIBCMTD:winapinls.obj
 0002:000126d8       ??_C@_1M@GKGFPKAP@?$AAe?$AAs?$AA?9?$AAe?$AAs?$AA?$AA@ 004ce6d8     LIBCMTD:winapinls.obj
 0002:000126e4       ??_C@_1M@LKHKGDLN@?$AAe?$AAs?$AA?9?$AAg?$AAt?$AA?$AA@ 004ce6e4     LIBCMTD:winapinls.obj
 0002:000126f0       ??_C@_1M@HEIIGGJD@?$AAe?$AAs?$AA?9?$AAh?$AAn?$AA?$AA@ 004ce6f0     LIBCMTD:winapinls.obj
 0002:000126fc       ??_C@_1M@FBDHPPGD@?$AAe?$AAs?$AA?9?$AAm?$AAx?$AA?$AA@ 004ce6fc     LIBCMTD:winapinls.obj
 0002:00012708       ??_C@_1M@DPAGLNDH@?$AAe?$AAs?$AA?9?$AAn?$AAi?$AA?$AA@ 004ce708     LIBCMTD:winapinls.obj
 0002:00012714       ??_C@_1M@MDGOPGDD@?$AAe?$AAs?$AA?9?$AAp?$AAa?$AA?$AA@ 004ce714     LIBCMTD:winapinls.obj
 0002:00012720       ??_C@_1M@EMAMGBGE@?$AAe?$AAs?$AA?9?$AAp?$AAe?$AA?$AA@ 004ce720     LIBCMTD:winapinls.obj
 0002:0001272c       ??_C@_1M@IBMCAOEC@?$AAe?$AAs?$AA?9?$AAp?$AAr?$AA?$AA@ 004ce72c     LIBCMTD:winapinls.obj
 0002:00012738       ??_C@_1M@FGMDIJED@?$AAe?$AAs?$AA?9?$AAp?$AAy?$AA?$AA@ 004ce738     LIBCMTD:winapinls.obj
 0002:00012744       ??_C@_1M@IIDEOLLL@?$AAe?$AAs?$AA?9?$AAs?$AAv?$AA?$AA@ 004ce744     LIBCMTD:winapinls.obj
 0002:00012750       ??_C@_1M@GAOBIPA@?$AAe?$AAs?$AA?9?$AAu?$AAy?$AA?$AA@ 004ce750     LIBCMTD:winapinls.obj
 0002:0001275c       ??_C@_1M@JKFFICHJ@?$AAe?$AAs?$AA?9?$AAv?$AAe?$AA?$AA@ 004ce75c     LIBCMTD:winapinls.obj
 0002:00012768       ??_C@_1M@PNMLOJDF@?$AAe?$AAt?$AA?9?$AAe?$AAe?$AA?$AA@ 004ce768     LIBCMTD:winapinls.obj
 0002:00012774       ??_C@_1M@GHHLIKEI@?$AAe?$AAu?$AA?9?$AAe?$AAs?$AA?$AA@ 004ce774     LIBCMTD:winapinls.obj
 0002:00012780       ??_C@_1M@PBNONODE@?$AAf?$AAa?$AA?9?$AAi?$AAr?$AA?$AA@ 004ce780     LIBCMTD:winapinls.obj
 0002:0001278c       ??_C@_1M@JEEHPMIL@?$AAf?$AAi?$AA?9?$AAf?$AAi?$AA?$AA@ 004ce78c     LIBCMTD:winapinls.obj
 0002:00012798       ??_C@_1M@LMDCNDBA@?$AAf?$AAo?$AA?9?$AAf?$AAo?$AA?$AA@ 004ce798     LIBCMTD:winapinls.obj
 0002:000127a4       ??_C@_1M@JKEOHLDK@?$AAf?$AAr?$AA?9?$AAb?$AAe?$AA?$AA@ 004ce7a4     LIBCMTD:winapinls.obj
 0002:000127b0       ??_C@_1M@NOHADPMI@?$AAf?$AAr?$AA?9?$AAc?$AAa?$AA?$AA@ 004ce7b0     LIBCMTD:winapinls.obj
 0002:000127bc       ??_C@_1M@KDHIHAEC@?$AAf?$AAr?$AA?9?$AAc?$AAh?$AA?$AA@ 004ce7bc     LIBCMTD:winapinls.obj
 0002:000127c8       ??_C@_1M@MMBBFGAK@?$AAf?$AAr?$AA?9?$AAf?$AAr?$AA?$AA@ 004ce7c8     LIBCMTD:winapinls.obj
 0002:000127d4       ??_C@_1M@PAFNENNF@?$AAf?$AAr?$AA?9?$AAl?$AAu?$AA?$AA@ 004ce7d4     LIBCMTD:winapinls.obj
 0002:000127e0       ??_C@_1M@EOHDJGDD@?$AAf?$AAr?$AA?9?$AAm?$AAc?$AA?$AA@ 004ce7e0     LIBCMTD:winapinls.obj
 0002:000127ec       ??_C@_1M@FAPLLOPF@?$AAg?$AAl?$AA?9?$AAe?$AAs?$AA?$AA@ 004ce7ec     LIBCMTD:winapinls.obj
 0002:000127f8       ??_C@_1M@FOPBFLOO@?$AAg?$AAu?$AA?9?$AAi?$AAn?$AA?$AA@ 004ce7f8     LIBCMTD:winapinls.obj
 0002:00012804       ??_C@_1M@KBMCINPM@?$AAh?$AAe?$AA?9?$AAi?$AAl?$AA?$AA@ 004ce804     LIBCMTD:winapinls.obj
 0002:00012810       ??_C@_1M@BBPHKFPJ@?$AAh?$AAi?$AA?9?$AAi?$AAn?$AA?$AA@ 004ce810     LIBCMTD:winapinls.obj
 0002:0001281c       ??_C@_1M@PMBNDPHD@?$AAh?$AAr?$AA?9?$AAb?$AAa?$AA?$AA@ 004ce81c     LIBCMTD:winapinls.obj
 0002:00012828       ??_C@_1M@BPCKOEGE@?$AAh?$AAr?$AA?9?$AAh?$AAr?$AA?$AA@ 004ce828     LIBCMTD:winapinls.obj
 0002:00012834       ??_C@_1M@GACBMHKE@?$AAh?$AAu?$AA?9?$AAh?$AAu?$AA?$AA@ 004ce834     LIBCMTD:winapinls.obj
 0002:00012840       ??_C@_1M@MILPAJJC@?$AAh?$AAy?$AA?9?$AAa?$AAm?$AA?$AA@ 004ce840     LIBCMTD:winapinls.obj
 0002:0001284c       ??_C@_1M@BABBICEC@?$AAi?$AAd?$AA?9?$AAi?$AAd?$AA?$AA@ 004ce84c     LIBCMTD:winapinls.obj
 0002:00012858       ??_C@_1M@BIKNHHPF@?$AAi?$AAs?$AA?9?$AAi?$AAs?$AA?$AA@ 004ce858     LIBCMTD:winapinls.obj
 0002:00012864       ??_C@_1M@NMPCJPHE@?$AAi?$AAt?$AA?9?$AAc?$AAh?$AA?$AA@ 004ce864     LIBCMTD:winapinls.obj
 0002:00012870       ??_C@_1M@GHKGFEDF@?$AAi?$AAt?$AA?9?$AAi?$AAt?$AA?$AA@ 004ce870     LIBCMTD:winapinls.obj
 0002:0001287c       ??_C@_1M@NIEJCJJA@?$AAj?$AAa?$AA?9?$AAj?$AAp?$AA?$AA@ 004ce87c     LIBCMTD:winapinls.obj
 0002:00012888       ??_C@_1M@JILFNBIM@?$AAk?$AAa?$AA?9?$AAg?$AAe?$AA?$AA@ 004ce888     LIBCMTD:winapinls.obj
 0002:00012894       ??_C@_1M@PACPMGPH@?$AAk?$AAk?$AA?9?$AAk?$AAz?$AA?$AA@ 004ce894     LIBCMTD:winapinls.obj
 0002:000128a0       ??_C@_1M@IELFGMHA@?$AAk?$AAn?$AA?9?$AAi?$AAn?$AA?$AA@ 004ce8a0     LIBCMTD:winapinls.obj
 0002:000128ac       ??_C@_1O@IBBJHCH@?$AAk?$AAo?$AAk?$AA?9?$AAi?$AAn?$AA?$AA@ 004ce8ac     LIBCMTD:winapinls.obj
 0002:000128bc       ??_C@_1M@DMHAEOGC@?$AAk?$AAo?$AA?9?$AAk?$AAr?$AA?$AA@ 004ce8bc     LIBCMTD:winapinls.obj
 0002:000128c8       ??_C@_1M@HBAHBIGA@?$AAk?$AAy?$AA?9?$AAk?$AAg?$AA?$AA@ 004ce8c8     LIBCMTD:winapinls.obj
 0002:000128d4       ??_C@_1M@KPMILCJG@?$AAl?$AAt?$AA?9?$AAl?$AAt?$AA?$AA@ 004ce8d4     LIBCMTD:winapinls.obj
 0002:000128e0       ??_C@_1M@BDEKKCA@?$AAl?$AAv?$AA?9?$AAl?$AAv?$AA?$AA@ 004ce8e0     LIBCMTD:winapinls.obj
 0002:000128ec       ??_C@_1M@ELCKCCJJ@?$AAm?$AAi?$AA?9?$AAn?$AAz?$AA?$AA@ 004ce8ec     LIBCMTD:winapinls.obj
 0002:000128f8       ??_C@_1M@CBOOLAPA@?$AAm?$AAk?$AA?9?$AAm?$AAk?$AA?$AA@ 004ce8f8     LIBCMTD:winapinls.obj
 0002:00012904       ??_C@_1M@GPHNBJKN@?$AAm?$AAl?$AA?9?$AAi?$AAn?$AA?$AA@ 004ce904     LIBCMTD:winapinls.obj
 0002:00012910       ??_C@_1M@PABJILIG@?$AAm?$AAn?$AA?9?$AAm?$AAn?$AA?$AA@ 004ce910     LIBCMTD:winapinls.obj
 0002:0001291c       ??_C@_1M@FGBKKIPG@?$AAm?$AAr?$AA?9?$AAi?$AAn?$AA?$AA@ 004ce91c     LIBCMTD:winapinls.obj
 0002:00012928       ??_C@_1M@NDBPDDAL@?$AAm?$AAs?$AA?9?$AAb?$AAn?$AA?$AA@ 004ce928     LIBCMTD:winapinls.obj
 0002:00012934       ??_C@_1M@OPIHOOPI@?$AAm?$AAs?$AA?9?$AAm?$AAy?$AA?$AA@ 004ce934     LIBCMTD:winapinls.obj
 0002:00012940       ??_C@_1M@PPDBCNFM@?$AAm?$AAt?$AA?9?$AAm?$AAt?$AA?$AA@ 004ce940     LIBCMTD:winapinls.obj
 0002:0001294c       ??_C@_1M@KDJDKMDD@?$AAn?$AAb?$AA?9?$AAn?$AAo?$AA?$AA@ 004ce94c     LIBCMTD:winapinls.obj
 0002:00012958       ??_C@_1M@KFCFLMJP@?$AAn?$AAl?$AA?9?$AAb?$AAe?$AA?$AA@ 004ce958     LIBCMTD:winapinls.obj
 0002:00012964       ??_C@_1M@KPOPDDGO@?$AAn?$AAl?$AA?9?$AAn?$AAl?$AA?$AA@ 004ce964     LIBCMTD:winapinls.obj
 0002:00012970       ??_C@_1M@LJKPEMLN@?$AAn?$AAn?$AA?9?$AAn?$AAo?$AA?$AA@ 004ce970     LIBCMTD:winapinls.obj
 0002:0001297c       ??_C@_1M@BDGHHBFL@?$AAn?$AAs?$AA?9?$AAz?$AAa?$AA?$AA@ 004ce97c     LIBCMTD:winapinls.obj
 0002:00012988       ??_C@_1M@IDEHOAP@?$AAp?$AAa?$AA?9?$AAi?$AAn?$AA?$AA@ 004ce988     LIBCMTD:winapinls.obj
 0002:00012994       ??_C@_1M@HDBKGOGH@?$AAp?$AAl?$AA?9?$AAp?$AAl?$AA?$AA@ 004ce994     LIBCMTD:winapinls.obj
 0002:000129a0       ??_C@_1M@LJLLCMEH@?$AAp?$AAt?$AA?9?$AAb?$AAr?$AA?$AA@ 004ce9a0     LIBCMTD:winapinls.obj
 0002:000129ac       ??_C@_1M@NCMONAAL@?$AAp?$AAt?$AA?9?$AAp?$AAt?$AA?$AA@ 004ce9ac     LIBCMTD:winapinls.obj
 0002:000129b8       ??_C@_1O@EAKMAJDN@?$AAq?$AAu?$AAz?$AA?9?$AAb?$AAo?$AA?$AA@ 004ce9b8     LIBCMTD:winapinls.obj
 0002:000129c8       ??_C@_1O@BHHPIGDN@?$AAq?$AAu?$AAz?$AA?9?$AAe?$AAc?$AA?$AA@ 004ce9c8     LIBCMTD:winapinls.obj
 0002:000129d8       ??_C@_1O@GBAPEKMJ@?$AAq?$AAu?$AAz?$AA?9?$AAp?$AAe?$AA?$AA@ 004ce9d8     LIBCMTD:winapinls.obj
 0002:000129e8       ??_C@_1M@CLGLEFBO@?$AAr?$AAo?$AA?9?$AAr?$AAo?$AA?$AA@ 004ce9e8     LIBCMTD:winapinls.obj
 0002:000129f4       ??_C@_1M@CEEDODME@?$AAr?$AAu?$AA?9?$AAr?$AAu?$AA?$AA@ 004ce9f4     LIBCMTD:winapinls.obj
 0002:00012a00       ??_C@_1M@HPKKKMPP@?$AAs?$AAa?$AA?9?$AAi?$AAn?$AA?$AA@ 004cea00     LIBCMTD:winapinls.obj
 0002:00012a0c       ??_C@_1M@BKMAIGOJ@?$AAs?$AAe?$AA?9?$AAf?$AAi?$AA?$AA@ 004cea0c     LIBCMTD:winapinls.obj
 0002:00012a18       ??_C@_1M@NDPIFLFI@?$AAs?$AAe?$AA?9?$AAn?$AAo?$AA?$AA@ 004cea18     LIBCMTD:winapinls.obj
 0002:00012a24       ??_C@_1M@DANKKHJ@?$AAs?$AAe?$AA?9?$AAs?$AAe?$AA?$AA@ 004cea24     LIBCMTD:winapinls.obj
 0002:00012a30       ??_C@_1M@PNBLONPJ@?$AAs?$AAk?$AA?9?$AAs?$AAk?$AA?$AA@ 004cea30     LIBCMTD:winapinls.obj
 0002:00012a3c       ??_C@_1M@LFMODOAL@?$AAs?$AAl?$AA?9?$AAs?$AAi?$AA?$AA@ 004cea3c     LIBCMTD:winapinls.obj
 0002:00012a48       ??_C@_1O@DFKOMPG@?$AAs?$AAm?$AAa?$AA?9?$AAn?$AAo?$AA?$AA@ 004cea48     LIBCMTD:winapinls.obj
 0002:00012a58       ??_C@_1O@NDKPBNNH@?$AAs?$AAm?$AAa?$AA?9?$AAs?$AAe?$AA?$AA@ 004cea58     LIBCMTD:winapinls.obj
 0002:00012a68       ??_C@_1O@PLLKBHAB@?$AAs?$AAm?$AAj?$AA?9?$AAn?$AAo?$AA?$AA@ 004cea68     LIBCMTD:winapinls.obj
 0002:00012a78       ??_C@_1O@CLEPOGCA@?$AAs?$AAm?$AAj?$AA?9?$AAs?$AAe?$AA?$AA@ 004cea78     LIBCMTD:winapinls.obj
 0002:00012a88       ??_C@_1O@DLGJGKMK@?$AAs?$AAm?$AAn?$AA?9?$AAf?$AAi?$AA?$AA@ 004cea88     LIBCMTD:winapinls.obj
 0002:00012a98       ??_C@_1O@OJDJGAJC@?$AAs?$AAm?$AAs?$AA?9?$AAf?$AAi?$AA?$AA@ 004cea98     LIBCMTD:winapinls.obj
 0002:00012aa8       ??_C@_1M@BOFOGHPB@?$AAs?$AAq?$AA?9?$AAa?$AAl?$AA?$AA@ 004ceaa8     LIBCMTD:winapinls.obj
 0002:00012ab4       ??_C@_1BG@LJBBIPGB@?$AAs?$AAr?$AA?9?$AAb?$AAa?$AA?9?$AAc?$AAy?$AAr?$AAl?$AA?$AA@ 004ceab4     LIBCMTD:winapinls.obj
 0002:00012acc       ??_C@_1BG@JLBENFOE@?$AAs?$AAr?$AA?9?$AAb?$AAa?$AA?9?$AAl?$AAa?$AAt?$AAn?$AA?$AA@ 004ceacc     LIBCMTD:winapinls.obj
 0002:00012ae4       ??_C@_1BG@KODPNHE@?$AAs?$AAr?$AA?9?$AAs?$AAp?$AA?9?$AAc?$AAy?$AAr?$AAl?$AA?$AA@ 004ceae4     LIBCMTD:winapinls.obj
 0002:00012afc       ??_C@_1BG@CIOGKHPB@?$AAs?$AAr?$AA?9?$AAs?$AAp?$AA?9?$AAl?$AAa?$AAt?$AAn?$AA?$AA@ 004ceafc     LIBCMTD:winapinls.obj
 0002:00012b14       ??_C@_1M@NGFJLMAC@?$AAs?$AAv?$AA?9?$AAf?$AAi?$AA?$AA@ 004ceb14     LIBCMTD:winapinls.obj
 0002:00012b20       ??_C@_1M@MPJEJAJC@?$AAs?$AAv?$AA?9?$AAs?$AAe?$AA?$AA@ 004ceb20     LIBCMTD:winapinls.obj
 0002:00012b2c       ??_C@_1M@MPNDHLFK@?$AAs?$AAw?$AA?9?$AAk?$AAe?$AA?$AA@ 004ceb2c     LIBCMTD:winapinls.obj
 0002:00012b38       ??_C@_1O@KOHBJJI@?$AAs?$AAy?$AAr?$AA?9?$AAs?$AAy?$AA?$AA@ 004ceb38     LIBCMTD:winapinls.obj
 0002:00012b48       ??_C@_1M@LDCEFHA@?$AAt?$AAa?$AA?9?$AAi?$AAn?$AA?$AA@ 004ceb48     LIBCMTD:winapinls.obj
 0002:00012b54       ??_C@_1M@CNJOFAK@?$AAt?$AAe?$AA?9?$AAi?$AAn?$AA?$AA@ 004ceb54     LIBCMTD:winapinls.obj
 0002:00012b60       ??_C@_1M@GNAECACD@?$AAt?$AAh?$AA?9?$AAt?$AAh?$AA?$AA@ 004ceb60     LIBCMTD:winapinls.obj
 0002:00012b6c       ??_C@_1M@CHBIHOJO@?$AAt?$AAn?$AA?9?$AAz?$AAa?$AA?$AA@ 004ceb6c     LIBCMTD:winapinls.obj
 0002:00012b78       ??_C@_1M@GCCMIGPJ@?$AAt?$AAr?$AA?9?$AAt?$AAr?$AA?$AA@ 004ceb78     LIBCMTD:winapinls.obj
 0002:00012b84       ??_C@_1M@CELMCNBK@?$AAt?$AAt?$AA?9?$AAr?$AAu?$AA?$AA@ 004ceb84     LIBCMTD:winapinls.obj
 0002:00012b90       ??_C@_1M@KLMCELGA@?$AAu?$AAk?$AA?9?$AAu?$AAa?$AA?$AA@ 004ceb90     LIBCMTD:winapinls.obj
 0002:00012b9c       ??_C@_1M@EPAJJAJF@?$AAu?$AAr?$AA?9?$AAp?$AAk?$AA?$AA@ 004ceb9c     LIBCMTD:winapinls.obj
 0002:00012ba8       ??_C@_1BG@GEGPMCDJ@?$AAu?$AAz?$AA?9?$AAu?$AAz?$AA?9?$AAc?$AAy?$AAr?$AAl?$AA?$AA@ 004ceba8     LIBCMTD:winapinls.obj
 0002:00012bc0       ??_C@_1BG@EGGKJILM@?$AAu?$AAz?$AA?9?$AAu?$AAz?$AA?9?$AAl?$AAa?$AAt?$AAn?$AA?$AA@ 004cebc0     LIBCMTD:winapinls.obj
 0002:00012bd8       ??_C@_1M@GFOCLFF@?$AAv?$AAi?$AA?9?$AAv?$AAn?$AA?$AA@ 004cebd8     LIBCMTD:winapinls.obj
 0002:00012be4       ??_C@_1M@CPAMEDFI@?$AAx?$AAh?$AA?9?$AAz?$AAa?$AA?$AA@ 004cebe4     LIBCMTD:winapinls.obj
 0002:00012bf0       ??_C@_1O@EBKIFIGN@?$AAz?$AAh?$AA?9?$AAc?$AAh?$AAs?$AA?$AA@ 004cebf0     LIBCMTD:winapinls.obj
 0002:00012c00       ??_C@_1O@NMHPGANE@?$AAz?$AAh?$AA?9?$AAc?$AAh?$AAt?$AA?$AA@ 004cec00     LIBCMTD:winapinls.obj
 0002:00012c10       ??_C@_1M@LPINJOMC@?$AAz?$AAh?$AA?9?$AAc?$AAn?$AA?$AA@ 004cec10     LIBCMTD:winapinls.obj
 0002:00012c1c       ??_C@_1M@OCJEJODD@?$AAz?$AAh?$AA?9?$AAh?$AAk?$AA?$AA@ 004cec1c     LIBCMTD:winapinls.obj
 0002:00012c28       ??_C@_1M@DNDLJINH@?$AAz?$AAh?$AA?9?$AAm?$AAo?$AA?$AA@ 004cec28     LIBCMTD:winapinls.obj
 0002:00012c34       ??_C@_1M@MBFDNDND@?$AAz?$AAh?$AA?9?$AAs?$AAg?$AA?$AA@ 004cec34     LIBCMTD:winapinls.obj
 0002:00012c40       ??_C@_1M@IMEPLEPE@?$AAz?$AAh?$AA?9?$AAt?$AAw?$AA?$AA@ 004cec40     LIBCMTD:winapinls.obj
 0002:00012c4c       ??_C@_1M@BBGHNHJP@?$AAz?$AAu?$AA?9?$AAz?$AAa?$AA?$AA@ 004cec4c     LIBCMTD:winapinls.obj
 0002:00012c58       ??_C@_15EMKDOKLE@?$AAa?$AAr?$AA?$AA@ 004cec58     LIBCMTD:winapinls.obj
 0002:00012c60       ??_C@_15KNPADPLH@?$AAb?$AAg?$AA?$AA@ 004cec60     LIBCMTD:winapinls.obj
 0002:00012c68       ??_C@_15EDMHLDMO@?$AAc?$AAa?$AA?$AA@ 004cec68     LIBCMTD:winapinls.obj
 0002:00012c70       ??_C@_1O@BPEAJADD@?$AAz?$AAh?$AA?9?$AAC?$AAH?$AAS?$AA?$AA@ 004cec70     LIBCMTD:winapinls.obj
 0002:00012c80       ??_C@_15LJNHCMNK@?$AAc?$AAs?$AA?$AA@ 004cec80     LIBCMTD:winapinls.obj
 0002:00012c88       ??_C@_15FOMCIDHG@?$AAd?$AAa?$AA?$AA@ 004cec88     LIBCMTD:winapinls.obj
 0002:00012c90       ??_C@_15NBKABECB@?$AAd?$AAe?$AA?$AA@ 004cec90     LIBCMTD:winapinls.obj
 0002:00012c98       ??_C@_15GHPEIIAO@?$AAe?$AAl?$AA?$AA@ 004cec98     LIBCMTD:winapinls.obj
 0002:00012ca0       ??_C@_15MNPNEAIF@?$AAe?$AAn?$AA?$AA@ 004ceca0     LIBCMTD:winapinls.obj
 0002:00012ca8       ??_C@_15GPIOMPMH@?$AAe?$AAs?$AA?$AA@ 004ceca8     LIBCMTD:winapinls.obj
 0002:00012cb0       ??_C@_15NGLOAKJC@?$AAf?$AAi?$AA?$AA@ 004cecb0     LIBCMTD:winapinls.obj
 0002:00012cb8       ??_C@_15FBKGNKAM@?$AAf?$AAr?$AA?$AA@ 004cecb8     LIBCMTD:winapinls.obj
 0002:00012cc0       ??_C@_15KGGCNEFK@?$AAh?$AAe?$AA?$AA@ 004cecc0     LIBCMTD:winapinls.obj
 0002:00012cc8       ??_C@_15PGHLIDMF@?$AAh?$AAu?$AA?$AA@ 004cecc8     LIBCMTD:winapinls.obj
 0002:00012cd0       ??_C@_15BIEMAPLM@?$AAi?$AAs?$AA?$AA@ 004cecd0     LIBCMTD:winapinls.obj
 0002:00012cd8       ??_C@_15IFJLDHAF@?$AAi?$AAt?$AA?$AA@ 004cecd8     LIBCMTD:winapinls.obj
 0002:00012ce0       ??_C@_15GEMIOCAG@?$AAj?$AAa?$AA?$AA@ 004cece0     LIBCMTD:winapinls.obj
 0002:00012ce8       ??_C@_15EPELEGJA@?$AAk?$AAo?$AA?$AA@ 004cece8     LIBCMTD:winapinls.obj
 0002:00012cf0       ??_C@_15NDDHIMN@?$AAn?$AAl?$AA?$AA@ 004cecf0     LIBCMTD:winapinls.obj
 0002:00012cf8       ??_C@_15BPIGNHCD@?$AAn?$AAo?$AA?$AA@ 004cecf8     LIBCMTD:winapinls.obj
 0002:00012d00       ??_C@_15DEOPBLCG@?$AAp?$AAl?$AA?$AA@ 004ced00     LIBCMTD:winapinls.obj
 0002:00012d08       ??_C@_15KBECGEFG@?$AAp?$AAt?$AA?$AA@ 004ced08     LIBCMTD:winapinls.obj
 0002:00012d10       ??_C@_15GLJCBFMD@?$AAr?$AAo?$AA?$AA@ 004ced10     LIBCMTD:winapinls.obj
 0002:00012d18       ??_C@_15FEDGKCDI@?$AAr?$AAu?$AA?$AA@ 004ced18     LIBCMTD:winapinls.obj
 0002:00012d20       ??_C@_15GLKMLLHM@?$AAh?$AAr?$AA?$AA@ 004ced20     LIBCMTD:winapinls.obj
 0002:00012d28       ??_C@_15CPKMFBDB@?$AAs?$AAk?$AA?$AA@ 004ced28     LIBCMTD:winapinls.obj
 0002:00012d30       ??_C@_15BAAIOGMK@?$AAs?$AAq?$AA?$AA@ 004ced30     LIBCMTD:winapinls.obj
 0002:00012d38       ??_C@_15INNPNOHD@?$AAs?$AAv?$AA?$AA@ 004ced38     LIBCMTD:winapinls.obj
 0002:00012d40       ??_C@_15CABMMOGH@?$AAt?$AAh?$AA?$AA@ 004ced40     LIBCMTD:winapinls.obj
 0002:00012d48       ??_C@_15BPLIHJJM@?$AAt?$AAr?$AA?$AA@ 004ced48     LIBCMTD:winapinls.obj
 0002:00012d50       ??_C@_15NEOEKKDJ@?$AAu?$AAr?$AA?$AA@ 004ced50     LIBCMTD:winapinls.obj
 0002:00012d58       ??_C@_15NFICGAJK@?$AAi?$AAd?$AA?$AA@ 004ced58     LIBCMTD:winapinls.obj
 0002:00012d60       ??_C@_15PJPFLCCM@?$AAu?$AAk?$AA?$AA@ 004ced60     LIBCMTD:winapinls.obj
 0002:00012d68       ??_C@_15HPJPHDM@?$AAb?$AAe?$AA?$AA@ 004ced68     LIBCMTD:winapinls.obj
 0002:00012d70       ??_C@_15LCHLGJII@?$AAs?$AAl?$AA?$AA@ 004ced70     LIBCMTD:winapinls.obj
 0002:00012d78       ??_C@_15PCFJPHHO@?$AAe?$AAt?$AA?$AA@ 004ced78     LIBCMTD:winapinls.obj
 0002:00012d80       ??_C@_15HPFPGODN@?$AAl?$AAv?$AA?$AA@ 004ced80     LIBCMTD:winapinls.obj
 0002:00012d88       ??_C@_15NFFGKGLG@?$AAl?$AAt?$AA?$AA@ 004ced88     LIBCMTD:winapinls.obj
 0002:00012d90       ??_C@_15BDAKCCHN@?$AAf?$AAa?$AA?$AA@ 004ced90     LIBCMTD:winapinls.obj
 0002:00012d98       ??_C@_15NFGIAIAJ@?$AAv?$AAi?$AA?$AA@ 004ced98     LIBCMTD:winapinls.obj
 0002:00012da0       ??_C@_15LMKNDMHN@?$AAh?$AAy?$AA?$AA@ 004ceda0     LIBCMTD:winapinls.obj
 0002:00012da8       ??_C@_15IJBHMCFL@?$AAa?$AAz?$AA?$AA@ 004ceda8     LIBCMTD:winapinls.obj
 0002:00012db0       ??_C@_15EKOFJABL@?$AAe?$AAu?$AA?$AA@ 004cedb0     LIBCMTD:winapinls.obj
 0002:00012db8       ??_C@_15BGHADCNK@?$AAm?$AAk?$AA?$AA@ 004cedb8     LIBCMTD:winapinls.obj
 0002:00012dc0       ??_C@_15JDNICKHM@?$AAa?$AAf?$AA?$AA@ 004cedc0     LIBCMTD:winapinls.obj
 0002:00012dc8       ??_C@_15KPJEDBKD@?$AAk?$AAa?$AA?$AA@ 004cedc8     LIBCMTD:winapinls.obj
 0002:00012dd0       ??_C@_1FE@HAPBHJIC@?$AAf?$AA?3?$AA?2?$AAd?$AAd?$AA?2?$AAv?$AAc?$AAt?$AAo?$AAo?$AAl?$AAs?$AA?2?$AAc?$AAr?$AAt?$AA?2?$AAc?$AAr?$AAt?$AAw?$AA3?$AA2?$AA?2?$AAm?$AAi?$AAs?$AAc?$AA?2?$AAw?$AAi@ 004cedd0     LIBCMTD:winapinls.obj
 0002:00012e24       ??_C@_1DO@MBHJDOGM@?$AA_?$AA_?$AAc?$AAr?$AAt?$AAD?$AAo?$AAw?$AAn?$AAl?$AAe?$AAv?$AAe?$AAl?$AAL?$AAC?$AAI?$AAD?$AAT?$AAo?$AAL?$AAo?$AAc?$AAa?$AAl?$AAe?$AAN?$AAa?$AAm?$AAe?$AA?$AA@ 004cee24     LIBCMTD:winapinls.obj
 0002:00012e68       ??_C@_1FO@LFACCMJH@?$AAw?$AAc?$AAs?$AAc?$AAp?$AAy?$AA_?$AAs?$AA?$CI?$AAo?$AAu?$AAt?$AAL?$AAo?$AAc?$AAa?$AAl?$AAe?$AAN?$AAa?$AAm?$AAe?$AA?0?$AA?5?$AAc?$AAc?$AAh?$AAL?$AAo?$AAc?$AAa?$AAl@ 004cee68     LIBCMTD:winapinls.obj
 0002:00012ec8       ___newctype                004ceec8     LIBCMTD:ctype.obj
 0002:000131c8       __wctype                   004cf1c8     LIBCMTD:ctype.obj
 0002:000133d0       ___newclmap                004cf3d0     LIBCMTD:ctype.obj
 0002:00013550       ___newcumap                004cf550     LIBCMTD:ctype.obj
 0002:000136d0       ??_C@_0CJ@JJMAJPPG@f?3?2dd?2vctools?2crt?2crtw32?2misc?2in@ 004cf6d0     LIBCMTD:initctyp.obj
 0002:00013700       ??_C@_1FC@OGCCCEID@?$AAf?$AA?3?$AA?2?$AAd?$AAd?$AA?2?$AAv?$AAc?$AAt?$AAo?$AAo?$AAl?$AAs?$AA?2?$AAc?$AAr?$AAt?$AA?2?$AAc?$AAr?$AAt?$AAw?$AA3?$AA2?$AA?2?$AAm?$AAi?$AAs?$AAc?$AA?2?$AAi?$AAn@ 004cf700     LIBCMTD:initctyp.obj
 0002:00013754       ??_C@_1DG@NMBGBDM@?$AAp?$AAl?$AAo?$AAc?$AAi?$AA?9?$AA?$DO?$AAc?$AAt?$AAy?$AAp?$AAe?$AA1?$AA_?$AAr?$AAe?$AAf?$AAc?$AAo?$AAu?$AAn?$AAt?$AA?5?$AA?$DO?$AA?5?$AA0?$AA?$AA@ 004cf754     LIBCMTD:initctyp.obj
 0002:00013790       ??_C@_1FC@PFMLEHKI@?$AA?$CI?$AA?$CI?$AA_?$AAD?$AAs?$AAt?$AA?$CJ?$AA?$CJ?$AA?5?$AA?$CB?$AA?$DN?$AA?5?$AAN?$AAU?$AAL?$AAL?$AA?5?$AA?$CG?$AA?$CG?$AA?5?$AA?$CI?$AA?$CI?$AA_?$AAS?$AAi?$AAz?$AAe?$AAI?$AAn?$AAW?$AAo?$AAr@ 004cf790     LIBCMTD:wcscat_s.obj
 0002:000137e8       ??_C@_1FA@EDIAPAPE@?$AAf?$AA?3?$AA?2?$AAd?$AAd?$AA?2?$AAv?$AAc?$AAt?$AAo?$AAo?$AAl?$AAs?$AA?2?$AAc?$AAr?$AAt?$AA?2?$AAc?$AAr?$AAt?$AAw?$AA3?$AA2?$AA?2?$AAh?$AA?2?$AAt?$AAc?$AAs?$AAc?$AAa@ 004cf7e8     LIBCMTD:wcscat_s.obj
 0002:00013838       ??_C@_1BC@PLIEPKPJ@?$AAw?$AAc?$AAs?$AAc?$AAa?$AAt?$AA_?$AAs?$AA?$AA@ 004cf838     LIBCMTD:wcscat_s.obj
 0002:0001384c       ??_C@_1BC@KIONAFPO@?$AAw?$AAc?$AAs?$AAc?$AAp?$AAy?$AA_?$AAs?$AA?$AA@ 004cf84c     LIBCMTD:wcscpy_s.obj
 0002:00013860       ??_C@_1BE@PMMBFFCC@?$AAw?$AAc?$AAs?$AAn?$AAc?$AAp?$AAy?$AA_?$AAs?$AA?$AA@ 004cf860     LIBCMTD:wcsncpy_s.obj
 0002:00013878       ___rg_language             004cf878     LIBCMTD:getqloc.obj
 0002:00013b84       ??_C@_1BC@LLOKLNP@?$AAa?$AAm?$AAe?$AAr?$AAi?$AAc?$AAa?$AAn?$AA?$AA@ 004cfb84     LIBCMTD:getqloc.obj
 0002:00013b98       ??_C@_1CC@HEIGCDGG@?$AAa?$AAm?$AAe?$AAr?$AAi?$AAc?$AAa?$AAn?$AA?5?$AAe?$AAn?$AAg?$AAl?$AAi?$AAs?$AAh?$AA?$AA@ 004cfb98     LIBCMTD:getqloc.obj
 0002:00013bbc       ??_C@_1CC@IHCNOMIN@?$AAa?$AAm?$AAe?$AAr?$AAi?$AAc?$AAa?$AAn?$AA?9?$AAe?$AAn?$AAg?$AAl?$AAi?$AAs?$AAh?$AA?$AA@ 004cfbbc     LIBCMTD:getqloc.obj
 0002:00013be0       ??_C@_1BG@GKAGPCGG@?$AAa?$AAu?$AAs?$AAt?$AAr?$AAa?$AAl?$AAi?$AAa?$AAn?$AA?$AA@ 004cfbe0     LIBCMTD:getqloc.obj
 0002:00013bf8       ??_C@_1BA@GMENCENF@?$AAb?$AAe?$AAl?$AAg?$AAi?$AAa?$AAn?$AA?$AA@ 004cfbf8     LIBCMTD:getqloc.obj
 0002:00013c08       ??_C@_1BC@PJMIIAAN@?$AAc?$AAa?$AAn?$AAa?$AAd?$AAi?$AAa?$AAn?$AA?$AA@ 004cfc08     LIBCMTD:getqloc.obj
 0002:00013c1c       ??_C@_17NOIMNFBF@?$AAc?$AAh?$AAh?$AA?$AA@ 004cfc1c     LIBCMTD:getqloc.obj
 0002:00013c24       ??_C@_17GGDALCHA@?$AAc?$AAh?$AAi?$AA?$AA@ 004cfc24     LIBCMTD:getqloc.obj
 0002:00013c2c       ??_C@_1BA@NPNJKIBL@?$AAc?$AAh?$AAi?$AAn?$AAe?$AAs?$AAe?$AA?$AA@ 004cfc2c     LIBCMTD:getqloc.obj
 0002:00013c3c       ??_C@_1CC@DINBAMMJ@?$AAc?$AAh?$AAi?$AAn?$AAe?$AAs?$AAe?$AA?9?$AAh?$AAo?$AAn?$AAg?$AAk?$AAo?$AAn?$AAg?$AA?$AA@ 004cfc3c     LIBCMTD:getqloc.obj
 0002:00013c60       ??_C@_1CG@IOBJPACO@?$AAc?$AAh?$AAi?$AAn?$AAe?$AAs?$AAe?$AA?9?$AAs?$AAi?$AAm?$AAp?$AAl?$AAi?$AAf?$AAi?$AAe?$AAd?$AA?$AA@ 004cfc60     LIBCMTD:getqloc.obj
 0002:00013c88       ??_C@_1CE@GAJNDCKG@?$AAc?$AAh?$AAi?$AAn?$AAe?$AAs?$AAe?$AA?9?$AAs?$AAi?$AAn?$AAg?$AAa?$AAp?$AAo?$AAr?$AAe?$AA?$AA@ 004cfc88     LIBCMTD:getqloc.obj
 0002:00013cac       ??_C@_1CI@PAJPIOOD@?$AAc?$AAh?$AAi?$AAn?$AAe?$AAs?$AAe?$AA?9?$AAt?$AAr?$AAa?$AAd?$AAi?$AAt?$AAi?$AAo?$AAn?$AAa?$AAl?$AA?$AA@ 004cfcac     LIBCMTD:getqloc.obj
 0002:00013cd4       ??_C@_1BM@NILJBMMD@?$AAd?$AAu?$AAt?$AAc?$AAh?$AA?9?$AAb?$AAe?$AAl?$AAg?$AAi?$AAa?$AAn?$AA?$AA@ 004cfcd4     LIBCMTD:getqloc.obj
 0002:00013cf0       ??_C@_1CC@OOJPJNEJ@?$AAe?$AAn?$AAg?$AAl?$AAi?$AAs?$AAh?$AA?9?$AAa?$AAm?$AAe?$AAr?$AAi?$AAc?$AAa?$AAn?$AA?$AA@ 004cfcf0     LIBCMTD:getqloc.obj
 0002:00013d14       ??_C@_1BI@IOLFEEM@?$AAe?$AAn?$AAg?$AAl?$AAi?$AAs?$AAh?$AA?9?$AAa?$AAu?$AAs?$AA?$AA@ 004cfd14     LIBCMTD:getqloc.obj
 0002:00013d2c       ??_C@_1BO@HFFNLENJ@?$AAe?$AAn?$AAg?$AAl?$AAi?$AAs?$AAh?$AA?9?$AAb?$AAe?$AAl?$AAi?$AAz?$AAe?$AA?$AA@ 004cfd2c     LIBCMTD:getqloc.obj
 0002:00013d4c       ??_C@_1BI@HAPKJMPO@?$AAe?$AAn?$AAg?$AAl?$AAi?$AAs?$AAh?$AA?9?$AAc?$AAa?$AAn?$AA?$AA@ 004cfd4c     LIBCMTD:getqloc.obj
 0002:00013d64       ??_C@_1CE@HLNDMIOJ@?$AAe?$AAn?$AAg?$AAl?$AAi?$AAs?$AAh?$AA?9?$AAc?$AAa?$AAr?$AAi?$AAb?$AAb?$AAe?$AAa?$AAn?$AA?$AA@ 004cfd64     LIBCMTD:getqloc.obj
 0002:00013d88       ??_C@_1BI@LDHJHHAC@?$AAe?$AAn?$AAg?$AAl?$AAi?$AAs?$AAh?$AA?9?$AAi?$AAr?$AAe?$AA?$AA@ 004cfd88     LIBCMTD:getqloc.obj
 0002:00013da0       ??_C@_1CA@NJMMCFOC@?$AAe?$AAn?$AAg?$AAl?$AAi?$AAs?$AAh?$AA?9?$AAj?$AAa?$AAm?$AAa?$AAi?$AAc?$AAa?$AA?$AA@ 004cfda0     LIBCMTD:getqloc.obj
 0002:00013dc0       ??_C@_1BG@BHJEBBGG@?$AAe?$AAn?$AAg?$AAl?$AAi?$AAs?$AAh?$AA?9?$AAn?$AAz?$AA?$AA@ 004cfdc0     LIBCMTD:getqloc.obj
 0002:00013dd8       ??_C@_1CK@FGOEJJCO@?$AAe?$AAn?$AAg?$AAl?$AAi?$AAs?$AAh?$AA?9?$AAs?$AAo?$AAu?$AAt?$AAh?$AA?5?$AAa?$AAf?$AAr?$AAi?$AAc?$AAa?$AA?$AA@ 004cfdd8     LIBCMTD:getqloc.obj
 0002:00013e04       ??_C@_1DE@PDBJPCJ@?$AAe?$AAn?$AAg?$AAl?$AAi?$AAs?$AAh?$AA?9?$AAt?$AAr?$AAi?$AAn?$AAi?$AAd?$AAa?$AAd?$AA?5?$AAy?$AA?5?$AAt?$AAo?$AAb?$AAa?$AAg?$AAo?$AA?$AA@ 004cfe04     LIBCMTD:getqloc.obj
 0002:00013e38       ??_C@_1BG@JGCANDME@?$AAe?$AAn?$AAg?$AAl?$AAi?$AAs?$AAh?$AA?9?$AAu?$AAk?$AA?$AA@ 004cfe38     LIBCMTD:getqloc.obj
 0002:00013e50       ??_C@_1BG@DINKMLE@?$AAe?$AAn?$AAg?$AAl?$AAi?$AAs?$AAh?$AA?9?$AAu?$AAs?$AA?$AA@ 004cfe50     LIBCMTD:getqloc.obj
 0002:00013e68       ??_C@_1BI@NMFDBHJE@?$AAe?$AAn?$AAg?$AAl?$AAi?$AAs?$AAh?$AA?9?$AAu?$AAs?$AAa?$AA?$AA@ 004cfe68     LIBCMTD:getqloc.obj
 0002:00013e80       ??_C@_1BO@OIHKJKII@?$AAf?$AAr?$AAe?$AAn?$AAc?$AAh?$AA?9?$AAb?$AAe?$AAl?$AAg?$AAi?$AAa?$AAn?$AA?$AA@ 004cfe80     LIBCMTD:getqloc.obj
 0002:00013ea0       ??_C@_1CA@NKAELJKI@?$AAf?$AAr?$AAe?$AAn?$AAc?$AAh?$AA?9?$AAc?$AAa?$AAn?$AAa?$AAd?$AAi?$AAa?$AAn?$AA?$AA@ 004cfea0     LIBCMTD:getqloc.obj
 0002:00013ec0       ??_C@_1CE@MGKCNLGN@?$AAf?$AAr?$AAe?$AAn?$AAc?$AAh?$AA?9?$AAl?$AAu?$AAx?$AAe?$AAm?$AAb?$AAo?$AAu?$AAr?$AAg?$AA?$AA@ 004cfec0     LIBCMTD:getqloc.obj
 0002:00013ee4       ??_C@_1BK@CEGEAILM@?$AAf?$AAr?$AAe?$AAn?$AAc?$AAh?$AA?9?$AAs?$AAw?$AAi?$AAs?$AAs?$AA?$AA@ 004cfee4     LIBCMTD:getqloc.obj
 0002:00013f00       ??_C@_1CA@PAFKEOCC@?$AAg?$AAe?$AAr?$AAm?$AAa?$AAn?$AA?9?$AAa?$AAu?$AAs?$AAt?$AAr?$AAi?$AAa?$AAn?$AA?$AA@ 004cff00     LIBCMTD:getqloc.obj
 0002:00013f20       ??_C@_1CI@HCFHGOFD@?$AAg?$AAe?$AAr?$AAm?$AAa?$AAn?$AA?9?$AAl?$AAi?$AAc?$AAh?$AAt?$AAe?$AAn?$AAs?$AAt?$AAe?$AAi?$AAn?$AA?$AA@ 004cff20     LIBCMTD:getqloc.obj
 0002:00013f48       ??_C@_1CE@FEDDNPDG@?$AAg?$AAe?$AAr?$AAm?$AAa?$AAn?$AA?9?$AAl?$AAu?$AAx?$AAe?$AAm?$AAb?$AAo?$AAu?$AAr?$AAg?$AA?$AA@ 004cff48     LIBCMTD:getqloc.obj
 0002:00013f6c       ??_C@_1BK@LIMINNMN@?$AAg?$AAe?$AAr?$AAm?$AAa?$AAn?$AA?9?$AAs?$AAw?$AAi?$AAs?$AAs?$AA?$AA@ 004cff6c     LIBCMTD:getqloc.obj
 0002:00013f88       ??_C@_1BM@LGMDBEPD@?$AAi?$AAr?$AAi?$AAs?$AAh?$AA?9?$AAe?$AAn?$AAg?$AAl?$AAi?$AAs?$AAh?$AA?$AA@ 004cff88     LIBCMTD:getqloc.obj
 0002:00013fa4       ??_C@_1BM@NNCFBAEE@?$AAi?$AAt?$AAa?$AAl?$AAi?$AAa?$AAn?$AA?9?$AAs?$AAw?$AAi?$AAs?$AAs?$AA?$AA@ 004cffa4     LIBCMTD:getqloc.obj
 0002:00013fc0       ??_C@_1BE@FEDJNPIB@?$AAn?$AAo?$AAr?$AAw?$AAe?$AAg?$AAi?$AAa?$AAn?$AA?$AA@ 004cffc0     LIBCMTD:getqloc.obj
 0002:00013fd4       ??_C@_1CC@CILKDEIE@?$AAn?$AAo?$AAr?$AAw?$AAe?$AAg?$AAi?$AAa?$AAn?$AA?9?$AAb?$AAo?$AAk?$AAm?$AAa?$AAl?$AA?$AA@ 004cffd4     LIBCMTD:getqloc.obj
 0002:00013ff8       ??_C@_1CE@DHMMHEPL@?$AAn?$AAo?$AAr?$AAw?$AAe?$AAg?$AAi?$AAa?$AAn?$AA?9?$AAn?$AAy?$AAn?$AAo?$AAr?$AAs?$AAk?$AA?$AA@ 004cfff8     LIBCMTD:getqloc.obj
 0002:0001401c       ??_C@_1CK@OPNMHECD@?$AAp?$AAo?$AAr?$AAt?$AAu?$AAg?$AAu?$AAe?$AAs?$AAe?$AA?9?$AAb?$AAr?$AAa?$AAz?$AAi?$AAl?$AAi?$AAa?$AAn?$AA?$AA@ 004d001c     LIBCMTD:getqloc.obj
 0002:00014048       ??_C@_1CE@KEEHCDB@?$AAs?$AAp?$AAa?$AAn?$AAi?$AAs?$AAh?$AA?9?$AAa?$AAr?$AAg?$AAe?$AAn?$AAt?$AAi?$AAn?$AAa?$AA?$AA@ 004d0048     LIBCMTD:getqloc.obj
 0002:0001406c       ??_C@_1CA@GIAOLHJD@?$AAs?$AAp?$AAa?$AAn?$AAi?$AAs?$AAh?$AA?9?$AAb?$AAo?$AAl?$AAi?$AAv?$AAi?$AAa?$AA?$AA@ 004d006c     LIBCMTD:getqloc.obj
 0002:0001408c       ??_C@_1BM@OJNDFNPD@?$AAs?$AAp?$AAa?$AAn?$AAi?$AAs?$AAh?$AA?9?$AAc?$AAh?$AAi?$AAl?$AAe?$AA?$AA@ 004d008c     LIBCMTD:getqloc.obj
 0002:000140a8       ??_C@_1CC@OCOLPALL@?$AAs?$AAp?$AAa?$AAn?$AAi?$AAs?$AAh?$AA?9?$AAc?$AAo?$AAl?$AAo?$AAm?$AAb?$AAi?$AAa?$AA?$AA@ 004d00a8     LIBCMTD:getqloc.obj
 0002:000140cc       ??_C@_1CG@BPOFMKBB@?$AAs?$AAp?$AAa?$AAn?$AAi?$AAs?$AAh?$AA?9?$AAc?$AAo?$AAs?$AAt?$AAa?$AA?5?$AAr?$AAi?$AAc?$AAa?$AA?$AA@ 004d00cc     LIBCMTD:getqloc.obj
 0002:000140f4       ??_C@_1DG@IGOBAPBB@?$AAs?$AAp?$AAa?$AAn?$AAi?$AAs?$AAh?$AA?9?$AAd?$AAo?$AAm?$AAi?$AAn?$AAi?$AAc?$AAa?$AAn?$AA?5?$AAr?$AAe?$AAp?$AAu?$AAb?$AAl?$AAi?$AAc?$AA?$AA@ 004d00f4     LIBCMTD:getqloc.obj
 0002:0001412c       ??_C@_1CA@JHAPGEGI@?$AAs?$AAp?$AAa?$AAn?$AAi?$AAs?$AAh?$AA?9?$AAe?$AAc?$AAu?$AAa?$AAd?$AAo?$AAr?$AA?$AA@ 004d012c     LIBCMTD:getqloc.obj
 0002:0001414c       ??_C@_1CI@LAPALJPP@?$AAs?$AAp?$AAa?$AAn?$AAi?$AAs?$AAh?$AA?9?$AAe?$AAl?$AA?5?$AAs?$AAa?$AAl?$AAv?$AAa?$AAd?$AAo?$AAr?$AA?$AA@ 004d014c     LIBCMTD:getqloc.obj
 0002:00014174       ??_C@_1CE@PDGBOFOM@?$AAs?$AAp?$AAa?$AAn?$AAi?$AAs?$AAh?$AA?9?$AAg?$AAu?$AAa?$AAt?$AAe?$AAm?$AAa?$AAl?$AAa?$AA?$AA@ 004d0174     LIBCMTD:getqloc.obj
 0002:00014198       ??_C@_1CC@NBEBAODI@?$AAs?$AAp?$AAa?$AAn?$AAi?$AAs?$AAh?$AA?9?$AAh?$AAo?$AAn?$AAd?$AAu?$AAr?$AAa?$AAs?$AA?$AA@ 004d0198     LIBCMTD:getqloc.obj
 0002:000141bc       ??_C@_1CA@LLKGHBMF@?$AAs?$AAp?$AAa?$AAn?$AAi?$AAs?$AAh?$AA?9?$AAm?$AAe?$AAx?$AAi?$AAc?$AAa?$AAn?$AA?$AA@ 004d01bc     LIBCMTD:getqloc.obj
 0002:000141dc       ??_C@_1BO@LKNDOIGD@?$AAs?$AAp?$AAa?$AAn?$AAi?$AAs?$AAh?$AA?9?$AAm?$AAo?$AAd?$AAe?$AAr?$AAn?$AA?$AA@ 004d01dc     LIBCMTD:getqloc.obj
 0002:000141fc       ??_C@_1CE@NMDMOEEB@?$AAs?$AAp?$AAa?$AAn?$AAi?$AAs?$AAh?$AA?9?$AAn?$AAi?$AAc?$AAa?$AAr?$AAa?$AAg?$AAu?$AAa?$AA?$AA@ 004d01fc     LIBCMTD:getqloc.obj
 0002:00014220       ??_C@_1BO@LLCBEJGB@?$AAs?$AAp?$AAa?$AAn?$AAi?$AAs?$AAh?$AA?9?$AAp?$AAa?$AAn?$AAa?$AAm?$AAa?$AA?$AA@ 004d0220     LIBCMTD:getqloc.obj
 0002:00014240       ??_C@_1CC@FKPGGIHO@?$AAs?$AAp?$AAa?$AAn?$AAi?$AAs?$AAh?$AA?9?$AAp?$AAa?$AAr?$AAa?$AAg?$AAu?$AAa?$AAy?$AA?$AA@ 004d0240     LIBCMTD:getqloc.obj
 0002:00014264       ??_C@_1BK@CDEIHOOP@?$AAs?$AAp?$AAa?$AAn?$AAi?$AAs?$AAh?$AA?9?$AAp?$AAe?$AAr?$AAu?$AA?$AA@ 004d0264     LIBCMTD:getqloc.obj
 0002:00014280       ??_C@_1CI@GAHAKKGP@?$AAs?$AAp?$AAa?$AAn?$AAi?$AAs?$AAh?$AA?9?$AAp?$AAu?$AAe?$AAr?$AAt?$AAo?$AA?5?$AAr?$AAi?$AAc?$AAo?$AA?$AA@ 004d0280     LIBCMTD:getqloc.obj
 0002:000142a8       ??_C@_1CA@NKJBCAGP@?$AAs?$AAp?$AAa?$AAn?$AAi?$AAs?$AAh?$AA?9?$AAu?$AAr?$AAu?$AAg?$AAu?$AAa?$AAy?$AA?$AA@ 004d02a8     LIBCMTD:getqloc.obj
 0002:000142c8       ??_C@_1CE@ODILCONM@?$AAs?$AAp?$AAa?$AAn?$AAi?$AAs?$AAh?$AA?9?$AAv?$AAe?$AAn?$AAe?$AAz?$AAu?$AAe?$AAl?$AAa?$AA?$AA@ 004d02c8     LIBCMTD:getqloc.obj
 0002:000142ec       ??_C@_1CA@OBNMCGFO@?$AAs?$AAw?$AAe?$AAd?$AAi?$AAs?$AAh?$AA?9?$AAf?$AAi?$AAn?$AAl?$AAa?$AAn?$AAd?$AA?$AA@ 004d02ec     LIBCMTD:getqloc.obj
 0002:0001430c       ??_C@_1M@PIPDDPPI@?$AAs?$AAw?$AAi?$AAs?$AAs?$AA?$AA@ 004d030c     LIBCMTD:getqloc.obj
 0002:00014318       ??_C@_15GMFIMNFM@?$AAu?$AAs?$AA?$AA@ 004d0318     LIBCMTD:getqloc.obj
 0002:00014320       ??_C@_17HAEBFAGL@?$AAu?$AAs?$AAa?$AA?$AA@ 004d0320     LIBCMTD:getqloc.obj
 0002:00014328       ___rg_country              004d0328     LIBCMTD:getqloc.obj
 0002:0001443c       ??_C@_1BA@DPFJEPHB@?$AAa?$AAm?$AAe?$AAr?$AAi?$AAc?$AAa?$AA?$AA@ 004d043c     LIBCMTD:getqloc.obj
 0002:0001444c       ??_C@_1BA@ELOGGFK@?$AAb?$AAr?$AAi?$AAt?$AAa?$AAi?$AAn?$AA?$AA@ 004d044c     LIBCMTD:getqloc.obj
 0002:0001445c       ??_C@_1M@GHBGIGDA@?$AAc?$AAh?$AAi?$AAn?$AAa?$AA?$AA@ 004d045c     LIBCMTD:getqloc.obj
 0002:00014468       ??_C@_1M@NCHEJOPO@?$AAc?$AAz?$AAe?$AAc?$AAh?$AA?$AA@ 004d0468     LIBCMTD:getqloc.obj
 0002:00014474       ??_C@_1BA@BKPAPBLA@?$AAe?$AAn?$AAg?$AAl?$AAa?$AAn?$AAd?$AA?$AA@ 004d0474     LIBCMTD:getqloc.obj
 0002:00014484       ??_C@_1BM@HKBCKIPC@?$AAg?$AAr?$AAe?$AAa?$AAt?$AA?5?$AAb?$AAr?$AAi?$AAt?$AAa?$AAi?$AAn?$AA?$AA@ 004d0484     LIBCMTD:getqloc.obj
 0002:000144a0       ??_C@_1BA@PPCHPGJB@?$AAh?$AAo?$AAl?$AAl?$AAa?$AAn?$AAd?$AA?$AA@ 004d04a0     LIBCMTD:getqloc.obj
 0002:000144b0       ??_C@_1BE@JBMPEGDG@?$AAh?$AAo?$AAn?$AAg?$AA?9?$AAk?$AAo?$AAn?$AAg?$AA?$AA@ 004d04b0     LIBCMTD:getqloc.obj
 0002:000144c4       ??_C@_1BI@KOELBBPJ@?$AAn?$AAe?$AAw?$AA?9?$AAz?$AAe?$AAa?$AAl?$AAa?$AAn?$AAd?$AA?$AA@ 004d04c4     LIBCMTD:getqloc.obj
 0002:000144dc       ??_C@_15HIEBHAIO@?$AAn?$AAz?$AA?$AA@ 004d04dc     LIBCMTD:getqloc.obj
 0002:000144e4       ??_C@_1BC@CHBCPFPI@?$AAp?$AAr?$AA?5?$AAc?$AAh?$AAi?$AAn?$AAa?$AA?$AA@ 004d04e4     LIBCMTD:getqloc.obj
 0002:000144f8       ??_C@_1BC@JAOIIFKD@?$AAp?$AAr?$AA?9?$AAc?$AAh?$AAi?$AAn?$AAa?$AA?$AA@ 004d04f8     LIBCMTD:getqloc.obj
 0002:0001450c       ??_C@_1BI@BEHPPHKC@?$AAp?$AAu?$AAe?$AAr?$AAt?$AAo?$AA?9?$AAr?$AAi?$AAc?$AAo?$AA?$AA@ 004d050c     LIBCMTD:getqloc.obj
 0002:00014524       ??_C@_1O@PAEOFKDI@?$AAs?$AAl?$AAo?$AAv?$AAa?$AAk?$AA?$AA@ 004d0524     LIBCMTD:getqloc.obj
 0002:00014534       ??_C@_1BK@FIHMCKAM@?$AAs?$AAo?$AAu?$AAt?$AAh?$AA?5?$AAa?$AAf?$AAr?$AAi?$AAc?$AAa?$AA?$AA@ 004d0534     LIBCMTD:getqloc.obj
 0002:00014550       ??_C@_1BI@NAEOODKB@?$AAs?$AAo?$AAu?$AAt?$AAh?$AA?5?$AAk?$AAo?$AAr?$AAe?$AAa?$AA?$AA@ 004d0550     LIBCMTD:getqloc.obj
 0002:00014568       ??_C@_1BK@FBDGGIFF@?$AAs?$AAo?$AAu?$AAt?$AAh?$AA?9?$AAa?$AAf?$AAr?$AAi?$AAc?$AAa?$AA?$AA@ 004d0568     LIBCMTD:getqloc.obj
 0002:00014584       ??_C@_1BI@GHLEJDPK@?$AAs?$AAo?$AAu?$AAt?$AAh?$AA?9?$AAk?$AAo?$AAr?$AAe?$AAa?$AA?$AA@ 004d0584     LIBCMTD:getqloc.obj
 0002:0001459c       ??_C@_1CE@PLHLOMJF@?$AAt?$AAr?$AAi?$AAn?$AAi?$AAd?$AAa?$AAd?$AA?5?$AA?$CG?$AA?5?$AAt?$AAo?$AAb?$AAa?$AAg?$AAo?$AA?$AA@ 004d059c     LIBCMTD:getqloc.obj
 0002:000145c0       ??_C@_1BO@MODIMHHI@?$AAu?$AAn?$AAi?$AAt?$AAe?$AAd?$AA?9?$AAk?$AAi?$AAn?$AAg?$AAd?$AAo?$AAm?$AA?$AA@ 004d05c0     LIBCMTD:getqloc.obj
 0002:000145e0       ??_C@_1BM@FFHJONBJ@?$AAu?$AAn?$AAi?$AAt?$AAe?$AAd?$AA?9?$AAs?$AAt?$AAa?$AAt?$AAe?$AAs?$AA?$AA@ 004d05e0     LIBCMTD:getqloc.obj
 0002:000145fc       ___rg_language_count       004d05fc     LIBCMTD:getqloc.obj
 0002:00014600       ___rg_country_count        004d0600     LIBCMTD:getqloc.obj
 0002:00014608       ??_C@_1FA@KCJCBMIG@?$AAf?$AA?3?$AA?2?$AAd?$AAd?$AA?2?$AAv?$AAc?$AAt?$AAo?$AAo?$AAl?$AAs?$AA?2?$AAc?$AAr?$AAt?$AA?2?$AAc?$AAr?$AAt?$AAw?$AA3?$AA2?$AA?2?$AAm?$AAi?$AAs?$AAc?$AA?2?$AAg?$AAe@ 004d0608     LIBCMTD:getqloc.obj
 0002:00014658       ??_C@_1CO@NJACLALJ@?$AA_?$AA_?$AAg?$AAe?$AAt?$AA_?$AAq?$AAu?$AAa?$AAl?$AAi?$AAf?$AAi?$AAe?$AAd?$AA_?$AAl?$AAo?$AAc?$AAa?$AAl?$AAe?$AA?$AA@ 004d0658     LIBCMTD:getqloc.obj
 0002:00014688       ??_C@_1BGM@FCCPEFDE@?$AAw?$AAc?$AAs?$AAn?$AAc?$AAp?$AAy?$AA_?$AAs?$AA?$CI?$AAl?$AAp?$AAO?$AAu?$AAt?$AAS?$AAt?$AAr?$AA?9?$AA?$DO?$AAs?$AAz?$AAL?$AAo?$AAc?$AAa?$AAl?$AAe?$AAN?$AAa?$AAm?$AAe@ 004d0688     LIBCMTD:getqloc.obj
 0002:000147f4       ??_C@_1CM@OGEMFJNJ@?$AAL?$AAa?$AAn?$AAg?$AAC?$AAo?$AAu?$AAn?$AAt?$AAr?$AAy?$AAE?$AAn?$AAu?$AAm?$AAP?$AAr?$AAo?$AAc?$AAE?$AAx?$AA?$AA@ 004d07f4     LIBCMTD:getqloc.obj
 0002:00014820       ??_C@_1BFO@LLJKJAIC@?$AAw?$AAc?$AAs?$AAn?$AAc?$AAp?$AAy?$AA_?$AAs?$AA?$CI?$AA_?$AAp?$AAs?$AAe?$AAt?$AAl?$AAo?$AAc?$AA_?$AAd?$AAa?$AAt?$AAa?$AA?9?$AA?$DO?$AA_?$AAc?$AAa?$AAc?$AAh?$AAe?$AAL@ 004d0820     LIBCMTD:getqloc.obj
 0002:00014980       ??_C@_1CG@PGLLICHO@?$AAL?$AAa?$AAn?$AAg?$AAu?$AAa?$AAg?$AAe?$AAE?$AAn?$AAu?$AAm?$AAP?$AAr?$AAo?$AAc?$AAE?$AAx?$AA?$AA@ 004d0980     LIBCMTD:getqloc.obj
 0002:000149a8       ??_C@_1DC@CPKFANGP@?$AAG?$AAe?$AAt?$AAL?$AAo?$AAc?$AAa?$AAl?$AAe?$AAN?$AAa?$AAm?$AAe?$AAF?$AAr?$AAo?$AAm?$AAD?$AAe?$AAf?$AAa?$AAu?$AAl?$AAt?$AA?$AA@ 004d09a8     LIBCMTD:getqloc.obj
 0002:000149e0       ??_C@_1BEO@EJBNGKHB@?$AAw?$AAc?$AAs?$AAn?$AAc?$AAp?$AAy?$AA_?$AAs?$AA?$CI?$AA_?$AAp?$AAs?$AAe?$AAt?$AAl?$AAo?$AAc?$AA_?$AAd?$AAa?$AAt?$AAa?$AA?9?$AA?$DO?$AA_?$AAc?$AAa?$AAc?$AAh?$AAe?$AAL@ 004d09e0     LIBCMTD:getqloc.obj
 0002:00014b30       ??_C@_17DNCLJFIF@?$AAA?$AAC?$AAP?$AA?$AA@ 004d0b30     LIBCMTD:getqloc.obj
 0002:00014b38       ??_C@_17CIKBIHLH@?$AAO?$AAC?$AAP?$AA?$AA@ 004d0b38     LIBCMTD:getqloc.obj
 0002:00014b40       ___rglangidNotDefault      004d0b40     LIBCMTD:getqloc_downlevel.obj
 0002:00014b58       ??_C@_1FE@HMGHELF@?$AAf?$AA?3?$AA?2?$AAd?$AAd?$AA?2?$AAv?$AAc?$AAt?$AAo?$AAo?$AAl?$AAs?$AA?2?$AAc?$AAr?$AAt?$AA?2?$AAc?$AAr?$AAt?$AAw?$AA3?$AA2?$AA?2?$AAs?$AAt?$AAd?$AAi?$AAo?$AA?2?$AAs@ 004d0b58     LIBCMTD:swprintf.obj
 0002:00014bac       ??_C@_1BE@BMIJMLDD@?$AA_?$AAs?$AAw?$AAp?$AAr?$AAi?$AAn?$AAt?$AAf?$AA?$AA@ 004d0bac     LIBCMTD:swprintf.obj
 0002:00014bc0       ??_C@_1BG@GOEBHBDC@?$AAU?$AAS?$AAE?$AAR?$AA3?$AA2?$AA?4?$AAD?$AAL?$AAL?$AA?$AA@ 004d0bc0     LIBCMTD:crtmboxw.obj
 0002:00014bd8       ??_C@_0M@DLDCCGNP@MessageBoxW?$AA@ 004d0bd8     LIBCMTD:crtmboxw.obj
 0002:00014be4       ??_C@_0BA@HNOPNCHB@GetActiveWindow?$AA@ 004d0be4     LIBCMTD:crtmboxw.obj
 0002:00014bf4       ??_C@_0BD@HHGDFDBJ@GetLastActivePopup?$AA@ 004d0bf4     LIBCMTD:crtmboxw.obj
 0002:00014c08       ??_C@_0BK@DEKFELLI@GetUserObjectInformationW?$AA@ 004d0c08     LIBCMTD:crtmboxw.obj
 0002:00014c24       ??_C@_0BI@DFKBFLJE@GetProcessWindowStation?$AA@ 004d0c24     LIBCMTD:crtmboxw.obj
 0002:00014c40       ??_C@_1FA@IFFFOLDJ@?$AAn?$AAR?$AAp?$AAt?$AAT?$AAy?$AAp?$AAe?$AA?5?$AA?$DO?$AA?$DN?$AA?5?$AA0?$AA?5?$AA?$CG?$AA?$CG?$AA?5?$AAn?$AAR?$AAp?$AAt?$AAT?$AAy?$AAp?$AAe?$AA?5?$AA?$DM?$AA?5?$AA_?$AAC?$AAR?$AAT@ 004d0c40     LIBCMTD:dbgrptt.obj
 0002:00014c90       ??_C@_1FA@PPLJBGMP@?$AAf?$AA?3?$AA?2?$AAd?$AAd?$AA?2?$AAv?$AAc?$AAt?$AAo?$AAo?$AAl?$AAs?$AA?2?$AAc?$AAr?$AAt?$AA?2?$AAc?$AAr?$AAt?$AAw?$AA3?$AA2?$AA?2?$AAm?$AAi?$AAs?$AAc?$AA?2?$AAd?$AAb@ 004d0c90     LIBCMTD:dbgrptt.obj
 0002:00014ce0       ??_C@_1CE@FIHIECNJ@?$AA_?$AAC?$AAr?$AAt?$AAS?$AAe?$AAt?$AAR?$AAe?$AAp?$AAo?$AAr?$AAt?$AAM?$AAo?$AAd?$AAe?$AA?$AA@ 004d0ce0     LIBCMTD:dbgrptt.obj
 0002:00014d08       ??_C@_1NK@LOFHIHFC@?$AAf?$AAM?$AAo?$AAd?$AAe?$AA?5?$AA?$DN?$AA?$DN?$AA?5?$AA_?$AAC?$AAR?$AAT?$AAD?$AAB?$AAG?$AA_?$AAR?$AAE?$AAP?$AAO?$AAR?$AAT?$AA_?$AAM?$AAO?$AAD?$AAE?$AA?5?$AA?$HM?$AA?$HM?$AA?5@ 004d0d08     LIBCMTD:dbgrptt.obj
 0002:00014de4       ??_C@_1CE@IKKEDCME@?$AA_?$AAC?$AAr?$AAt?$AAS?$AAe?$AAt?$AAR?$AAe?$AAp?$AAo?$AAr?$AAt?$AAF?$AAi?$AAl?$AAe?$AA?$AA@ 004d0de4     LIBCMTD:dbgrptt.obj
 0002:00014e08       ??_C@_1CA@KHJHLKA@?$AA_?$AAV?$AAC?$AAr?$AAt?$AAD?$AAb?$AAg?$AAR?$AAe?$AAp?$AAo?$AAr?$AAt?$AAA?$AA?$AA@ 004d0e08     LIBCMTD:dbgrptt.obj
 0002:00014e28       ??_C@_1FA@JPHJBHEM@?$AA_?$AAi?$AAt?$AAo?$AAa?$AA_?$AAs?$AA?$CI?$AAn?$AAL?$AAi?$AAn?$AAe?$AA?0?$AA?5?$AAs?$AAz?$AAL?$AAi?$AAn?$AAe?$AAM?$AAe?$AAs?$AAs?$AAa?$AAg?$AAe?$AA?0?$AA?5?$AA4?$AA0@ 004d0e28     LIBCMTD:dbgrptt.obj
 0002:00014e78       ??_C@_0CG@BNGLOCEO@Second?5Chance?5Assertion?5Failed?3?5@ 004d0e78     LIBCMTD:dbgrptt.obj
 0002:00014ea0       ??_C@_0P@DFJNDPOP@?$DMfile?5unknown?$DO?$AA@ 004d0ea0     LIBCMTD:dbgrptt.obj
 0002:00014eb0       ??_C@_07BHGABMGB@?0?5Line?5?$AA@ 004d0eb0     LIBCMTD:dbgrptt.obj
 0002:00014eb8       ??_C@_1JI@GAALPGBM@?$AAs?$AAt?$AAr?$AAc?$AAp?$AAy?$AA_?$AAs?$AA?$CI?$AAs?$AAz?$AAU?$AAs?$AAe?$AAr?$AAM?$AAe?$AAs?$AAs?$AAa?$AAg?$AAe?$AA?0?$AA?5?$AA4?$AA0?$AA9?$AA6?$AA?0?$AA?5?$AA?$CC?$AA_@ 004d0eb8     LIBCMTD:dbgrptt.obj
 0002:00014f50       ??_C@_0CL@EACFGMNB@_CrtDbgReport?3?5String?5too?5long?5o@ 004d0f50     LIBCMTD:dbgrptt.obj
 0002:00014f80       ??_C@_1KK@GIGAEDMO@?$AAs?$AAt?$AAr?$AAc?$AAp?$AAy?$AA_?$AAs?$AA?$CI?$AAs?$AAz?$AAL?$AAi?$AAn?$AAe?$AAM?$AAe?$AAs?$AAs?$AAa?$AAg?$AAe?$AA?0?$AA?5?$AA4?$AA0?$AA9?$AA6?$AA?0?$AA?5?$AAs?$AAz@ 004d0f80     LIBCMTD:dbgrptt.obj
 0002:0001502c       ??_C@_0BD@CAENFOHP@Assertion?5failed?3?5?$AA@ 004d102c     LIBCMTD:dbgrptt.obj
 0002:00015040       ??_C@_0BC@LAIDCHCH@Assertion?5failed?$CB?$AA@ 004d1040     LIBCMTD:dbgrptt.obj
 0002:00015058       ??_C@_1FK@NPGBPOFO@?$AAs?$AAt?$AAr?$AAc?$AAa?$AAt?$AA_?$AAs?$AA?$CI?$AAs?$AAz?$AAL?$AAi?$AAn?$AAe?$AAM?$AAe?$AAs?$AAs?$AAa?$AAg?$AAe?$AA?0?$AA?5?$AA4?$AA0?$AA9?$AA6?$AA?0?$AA?5?$AAs?$AAz@ 004d1058     LIBCMTD:dbgrptt.obj
 0002:000150b8       ??_C@_1EI@CACDLAFK@?$AAs?$AAt?$AAr?$AAc?$AAa?$AAt?$AA_?$AAs?$AA?$CI?$AAs?$AAz?$AAL?$AAi?$AAn?$AAe?$AAM?$AAe?$AAs?$AAs?$AAa?$AAg?$AAe?$AA?0?$AA?5?$AA4?$AA0?$AA9?$AA6?$AA?0?$AA?5?$AA?$CC?$AA?2@ 004d10b8     LIBCMTD:dbgrptt.obj
 0002:00015100       ??_C@_01LIIJDEN@?$AN?$AA@  004d1100     LIBCMTD:dbgrptt.obj
 0002:00015108       ??_C@_1EI@LDHJEDO@?$AAs?$AAt?$AAr?$AAc?$AAa?$AAt?$AA_?$AAs?$AA?$CI?$AAs?$AAz?$AAL?$AAi?$AAn?$AAe?$AAM?$AAe?$AAs?$AAs?$AAa?$AAg?$AAe?$AA?0?$AA?5?$AA4?$AA0?$AA9?$AA6?$AA?0?$AA?5?$AA?$CC?$AA?2@ 004d1108     LIBCMTD:dbgrptt.obj
 0002:00015150       ??_C@_0M@IPILFDFN@?$CFs?$CI?$CFd?$CJ?5?3?5?$CFs?$AA@ 004d1150     LIBCMTD:dbgrptt.obj
 0002:00015160       ??_C@_1JG@CPKCIOEE@?$AAs?$AAt?$AAr?$AAc?$AAp?$AAy?$AA_?$AAs?$AA?$CI?$AAs?$AAz?$AAO?$AAu?$AAt?$AAM?$AAe?$AAs?$AAs?$AAa?$AAg?$AAe?$AA?0?$AA?5?$AA4?$AA0?$AA9?$AA6?$AA?0?$AA?5?$AA?$CC?$AA_?$AAC@ 004d1160     LIBCMTD:dbgrptt.obj
 0002:000151f8       ??_C@_1FI@IBIOIHEG@?$AAs?$AAt?$AAr?$AAc?$AAp?$AAy?$AA_?$AAs?$AA?$CI?$AAs?$AAz?$AAO?$AAu?$AAt?$AAM?$AAe?$AAs?$AAs?$AAa?$AAg?$AAe?$AA?0?$AA?5?$AA4?$AA0?$AA9?$AA6?$AA?0?$AA?5?$AAs?$AAz?$AAL@ 004d11f8     LIBCMTD:dbgrptt.obj
 0002:00015250       ??_C@_1IM@OOKIFKOH@?$AAe?$AA?5?$AA?$DN?$AA?5?$AAm?$AAb?$AAs?$AAt?$AAo?$AAw?$AAc?$AAs?$AA_?$AAs?$AA?$CI?$AA?$CG?$AAr?$AAe?$AAt?$AA?0?$AA?5?$AAs?$AAz?$AAO?$AAu?$AAt?$AAM?$AAe?$AAs?$AAs?$AAa?$AAg@ 004d1250     LIBCMTD:dbgrptt.obj
 0002:000152e0       ??_C@_1MC@IGEECMDB@?$AAw?$AAc?$AAs?$AAc?$AAp?$AAy?$AA_?$AAs?$AA?$CI?$AAs?$AAz?$AAO?$AAu?$AAt?$AAM?$AAe?$AAs?$AAs?$AAa?$AAg?$AAe?$AA2?$AA?0?$AA?5?$AA4?$AA0?$AA9?$AA6?$AA?0?$AA?5?$AAL?$AA?$CC@ 004d12e0     LIBCMTD:dbgrptt.obj
 0002:000153a8       ??_C@_1HO@PJOFIKFE@?$AA_?$AAC?$AAr?$AAt?$AAD?$AAb?$AAg?$AAR?$AAe?$AAp?$AAo?$AAr?$AAt?$AA?3?$AA?5?$AAS?$AAt?$AAr?$AAi?$AAn?$AAg?$AA?5?$AAt?$AAo?$AAo?$AA?5?$AAl?$AAo?$AAn?$AAg?$AA?5?$AAo@ 004d13a8     LIBCMTD:dbgrptt.obj
 0002:00015428       ??_C@_1CA@HPALHDOD@?$AA_?$AAV?$AAC?$AAr?$AAt?$AAD?$AAb?$AAg?$AAR?$AAe?$AAp?$AAo?$AAr?$AAt?$AAW?$AA?$AA@ 004d1428     LIBCMTD:dbgrptt.obj
 0002:00015448       ??_C@_1FA@CNLLOMHI@?$AA_?$AAi?$AAt?$AAo?$AAw?$AA_?$AAs?$AA?$CI?$AAn?$AAL?$AAi?$AAn?$AAe?$AA?0?$AA?5?$AAs?$AAz?$AAL?$AAi?$AAn?$AAe?$AAM?$AAe?$AAs?$AAs?$AAa?$AAg?$AAe?$AA?0?$AA?5?$AA4?$AA0@ 004d1448     LIBCMTD:dbgrptt.obj
 0002:00015498       ??_C@_1EM@MJFLEDMB@?$AAS?$AAe?$AAc?$AAo?$AAn?$AAd?$AA?5?$AAC?$AAh?$AAa?$AAn?$AAc?$AAe?$AA?5?$AAA?$AAs?$AAs?$AAe?$AAr?$AAt?$AAi?$AAo?$AAn?$AA?5?$AAF?$AAa?$AAi?$AAl?$AAe?$AAd?$AA?3?$AA?5@ 004d1498     LIBCMTD:dbgrptt.obj
 0002:000154e4       ??_C@_1BO@OCHMLCAG@?$AA?$DM?$AAf?$AAi?$AAl?$AAe?$AA?5?$AAu?$AAn?$AAk?$AAn?$AAo?$AAw?$AAn?$AA?$DO?$AA?$AA@ 004d14e4     LIBCMTD:dbgrptt.obj
 0002:00015504       ??_C@_1BA@ELMMDCFC@?$AA?0?$AA?5?$AAL?$AAi?$AAn?$AAe?$AA?5?$AA?$AA@ 004d1504     LIBCMTD:dbgrptt.obj
 0002:00015514       ??_C@_13LBAGMAIH@?$AA?6?$AA?$AA@ 004d1514     LIBCMTD:dbgrptt.obj
 0002:00015518       ??_C@_1JK@KHFABAEO@?$AAw?$AAc?$AAs?$AAc?$AAp?$AAy?$AA_?$AAs?$AA?$CI?$AAs?$AAz?$AAU?$AAs?$AAe?$AAr?$AAM?$AAe?$AAs?$AAs?$AAa?$AAg?$AAe?$AA?0?$AA?5?$AA4?$AA0?$AA9?$AA6?$AA?0?$AA?5?$AAL?$AA?$CC@ 004d1518     LIBCMTD:dbgrptt.obj
 0002:000155b8       ??_C@_1KO@DGAHENCH@?$AAw?$AAc?$AAs?$AAc?$AAp?$AAy?$AA_?$AAs?$AA?$CI?$AAs?$AAz?$AAL?$AAi?$AAn?$AAe?$AAM?$AAe?$AAs?$AAs?$AAa?$AAg?$AAe?$AA?0?$AA?5?$AA4?$AA0?$AA9?$AA6?$AA?0?$AA?5?$AAs?$AAz@ 004d15b8     LIBCMTD:dbgrptt.obj
 0002:00015668       ??_C@_1CG@FFFGGODN@?$AAA?$AAs?$AAs?$AAe?$AAr?$AAt?$AAi?$AAo?$AAn?$AA?5?$AAf?$AAa?$AAi?$AAl?$AAe?$AAd?$AA?3?$AA?5?$AA?$AA@ 004d1668     LIBCMTD:dbgrptt.obj
 0002:00015690       ??_C@_1CE@OJBNHDMO@?$AAA?$AAs?$AAs?$AAe?$AAr?$AAt?$AAi?$AAo?$AAn?$AA?5?$AAf?$AAa?$AAi?$AAl?$AAe?$AAd?$AA?$CB?$AA?$AA@ 004d1690     LIBCMTD:dbgrptt.obj
 0002:000156b8       ??_C@_1FK@HPADHBBD@?$AAw?$AAc?$AAs?$AAc?$AAa?$AAt?$AA_?$AAs?$AA?$CI?$AAs?$AAz?$AAL?$AAi?$AAn?$AAe?$AAM?$AAe?$AAs?$AAs?$AAa?$AAg?$AAe?$AA?0?$AA?5?$AA4?$AA0?$AA9?$AA6?$AA?0?$AA?5?$AAs?$AAz@ 004d16b8     LIBCMTD:dbgrptt.obj
 0002:00015718       ??_C@_1EK@NMDFGHMF@?$AAw?$AAc?$AAs?$AAc?$AAa?$AAt?$AA_?$AAs?$AA?$CI?$AAs?$AAz?$AAL?$AAi?$AAn?$AAe?$AAM?$AAe?$AAs?$AAs?$AAa?$AAg?$AAe?$AA?0?$AA?5?$AA4?$AA0?$AA9?$AA6?$AA?0?$AA?5?$AAL?$AA?$CC@ 004d1718     LIBCMTD:dbgrptt.obj
 0002:00015764       ??_C@_13CMNBPIDO@?$AA?$AN?$AA?$AA@ 004d1764     LIBCMTD:dbgrptt.obj
 0002:00015768       ??_C@_1EK@PHCBEDKB@?$AAw?$AAc?$AAs?$AAc?$AAa?$AAt?$AA_?$AAs?$AA?$CI?$AAs?$AAz?$AAL?$AAi?$AAn?$AAe?$AAM?$AAe?$AAs?$AAs?$AAa?$AAg?$AAe?$AA?0?$AA?5?$AA4?$AA0?$AA9?$AA6?$AA?0?$AA?5?$AAL?$AA?$CC@ 004d1768     LIBCMTD:dbgrptt.obj
 0002:000157b4       ??_C@_1BI@JIDBEPIG@?$AA?$CF?$AAs?$AA?$CI?$AA?$CF?$AAd?$AA?$CJ?$AA?5?$AA?3?$AA?5?$AA?$CF?$AAs?$AA?$AA@ 004d17b4     LIBCMTD:dbgrptt.obj
 0002:000157d0       ??_C@_1FI@DBAIJPJE@?$AAw?$AAc?$AAs?$AAc?$AAp?$AAy?$AA_?$AAs?$AA?$CI?$AAs?$AAz?$AAO?$AAu?$AAt?$AAM?$AAe?$AAs?$AAs?$AAa?$AAg?$AAe?$AA?0?$AA?5?$AA4?$AA0?$AA9?$AA6?$AA?0?$AA?5?$AAs?$AAz?$AAL@ 004d17d0     LIBCMTD:dbgrptt.obj
 0002:00015828       ??_C@_1JC@EOAPFDLN@?$AAw?$AAc?$AAs?$AAt?$AAo?$AAm?$AAb?$AAs?$AA_?$AAs?$AA?$CI?$AA?$CI?$AA?$CI?$AAv?$AAo?$AAi?$AAd?$AA?5?$AA?$CK?$AA?$CJ?$AA0?$AA?$CJ?$AA?0?$AA?5?$AAs?$AAz?$AAO?$AAu?$AAt?$AAM?$AAe?$AAs@ 004d1828     LIBCMTD:dbgrptt.obj
 0002:000158c0       ??_C@_1MA@LBAMNNOB@?$AAs?$AAt?$AAr?$AAc?$AAp?$AAy?$AA_?$AAs?$AA?$CI?$AAs?$AAz?$AAO?$AAu?$AAt?$AAM?$AAe?$AAs?$AAs?$AAa?$AAg?$AAe?$AA2?$AA?0?$AA?5?$AA4?$AA0?$AA9?$AA6?$AA?0?$AA?5?$AA?$CC?$AA_@ 004d18c0     LIBCMTD:dbgrptt.obj
 0002:00015980       ??_C@_0DP@GNPEPHJD@_CrtDbgReport?3?5String?5too?5long?5o@ 004d1980     LIBCMTD:dbgrptt.obj
 0002:000159c0       ??_C@_1IE@CPGKIAGP@?$AAw?$AAc?$AAs?$AAt?$AAo?$AAm?$AAb?$AAs?$AA_?$AAs?$AA?$CI?$AA?$CG?$AAr?$AAe?$AAt?$AA?0?$AA?5?$AAs?$AAz?$AAa?$AAO?$AAu?$AAt?$AAM?$AAe?$AAs?$AAs?$AAa?$AAg?$AAe?$AA?0?$AA?5@ 004d19c0     LIBCMTD:dbgrptt.obj
 0002:00015a44       ??_C@_1BO@KFIJIAEA@?$AAp?$AAB?$AAl?$AAo?$AAc?$AAk?$AA?5?$AA?$CB?$AA?$DN?$AA?5?$AAN?$AAU?$AAL?$AAL?$AA?$AA@ 004d1a44     LIBCMTD:expand.obj
 0002:00015a68       ??_C@_1EO@BOMKIKJB@?$AAf?$AA?3?$AA?2?$AAd?$AAd?$AA?2?$AAv?$AAc?$AAt?$AAo?$AAo?$AAl?$AAs?$AA?2?$AAc?$AAr?$AAt?$AA?2?$AAc?$AAr?$AAt?$AAw?$AA3?$AA2?$AA?2?$AAh?$AAe?$AAa?$AAp?$AA?2?$AAe?$AAx@ 004d1a68     LIBCMTD:expand.obj
 0002:00015ab8       ??_C@_1BK@JMCGJOCC@?$AA_?$AAe?$AAx?$AAp?$AAa?$AAn?$AAd?$AA_?$AAb?$AAa?$AAs?$AAe?$AA?$AA@ 004d1ab8     LIBCMTD:expand.obj
 0002:00015ad4       ??_C@_03KHICJKCI@?4?4?4?$AA@ 004d1ad4     LIBCMTD:dbgrpt.obj
 0002:00015ae4       ??_C@_1CG@GNMJDMIO@?$AA_?$AAC?$AAr?$AAt?$AAS?$AAe?$AAt?$AAR?$AAe?$AAp?$AAo?$AAr?$AAt?$AAH?$AAo?$AAo?$AAk?$AA2?$AA?$AA@ 004d1ae4     LIBCMTD:dbgrpt.obj
 0002:00015b0c       ??_C@_1CI@IDOKFLAJ@?$AA_?$AA_?$AAc?$AAr?$AAt?$AAM?$AAe?$AAs?$AAs?$AAa?$AAg?$AAe?$AAW?$AAi?$AAn?$AAd?$AAo?$AAw?$AAA?$AA?$AA@ 004d1b0c     LIBCMTD:dbgrpt.obj
 0002:00015b38       ??_C@_1GG@DLDHOIGE@?$AAs?$AAt?$AAr?$AAc?$AAp?$AAy?$AA_?$AAs?$AA?$CI?$AAs?$AAz?$AAE?$AAx?$AAe?$AAN?$AAa?$AAm?$AAe?$AA?0?$AA?5?$AA2?$AA6?$AA0?$AA?0?$AA?5?$AA?$CC?$AA?$DM?$AAp?$AAr?$AAo?$AAg?$AAr@ 004d1b38     LIBCMTD:dbgrpt.obj
 0002:00015ba0       ??_C@_0BH@DNAGHKFM@?$DMprogram?5name?5unknown?$DO?$AA@ 004d1ba0     LIBCMTD:dbgrpt.obj
 0002:00015bb8       ??_C@_1LG@BEHAHJLI@?$AAD?$AAe?$AAb?$AAu?$AAg?$AA?5?$AA?$CF?$AAs?$AA?$CB?$AA?6?$AA?6?$AAP?$AAr?$AAo?$AAg?$AAr?$AAa?$AAm?$AA?3?$AA?5?$AA?$CF?$AAh?$AAs?$AA?$CF?$AAs?$AA?$CF?$AAs?$AA?$CF?$AAh?$AAs?$AA?$CF?$AAs@ 004d1bb8     LIBCMTD:dbgrpt.obj
 0002:00015c70       ??_C@_1FA@NFCHPDNG@?$AAf?$AA?3?$AA?2?$AAd?$AAd?$AA?2?$AAv?$AAc?$AAt?$AAo?$AAo?$AAl?$AAs?$AA?2?$AAc?$AAr?$AAt?$AA?2?$AAc?$AAr?$AAt?$AAw?$AA3?$AA2?$AA?2?$AAl?$AAo?$AAw?$AAi?$AAo?$AA?2?$AAi@ 004d1c70     LIBCMTD:isatty.obj
 0002:00015cc0       ??_C@_1BA@LEBDGIHM@?$AA_?$AAi?$AAs?$AAa?$AAt?$AAt?$AAy?$AA?$AA@ 004d1cc0     LIBCMTD:isatty.obj
 0002:00015cd0       ??_C@_1FE@DNGHOFOC@?$AAf?$AA?3?$AA?2?$AAd?$AAd?$AA?2?$AAv?$AAc?$AAt?$AAo?$AAo?$AAl?$AAs?$AA?2?$AAc?$AAr?$AAt?$AA?2?$AAc?$AAr?$AAt?$AAw?$AA3?$AA2?$AA?2?$AAc?$AAo?$AAn?$AAv?$AAe?$AAr?$AAt@ 004d1cd0     LIBCMTD:strtod.obj
 0002:00015d24       ??_C@_1BE@KFBKGHJC@?$AA_?$AAs?$AAt?$AAr?$AAt?$AAo?$AAd?$AA_?$AAl?$AA?$AA@ 004d1d24     LIBCMTD:strtod.obj
 0002:00015d38       ??_C@_1HC@KFLBHHBC@?$AA?$CI?$AAf?$AAi?$AAl?$AAe?$AAd?$AAe?$AAs?$AA?5?$AA?$DO?$AA?$DN?$AA?5?$AA0?$AA?5?$AA?$CG?$AA?$CG?$AA?5?$AA?$CI?$AAu?$AAn?$AAs?$AAi?$AAg?$AAn?$AAe?$AAd?$AA?$CJ?$AAf?$AAi?$AAl?$AAe?$AAd@ 004d1d38     LIBCMTD:commit.obj
 0002:00015db0       ??_C@_1FA@HELGICMG@?$AAf?$AA?3?$AA?2?$AAd?$AAd?$AA?2?$AAv?$AAc?$AAt?$AAo?$AAo?$AAl?$AAs?$AA?2?$AAc?$AAr?$AAt?$AA?2?$AAc?$AAr?$AAt?$AAw?$AA3?$AA2?$AA?2?$AAl?$AAo?$AAw?$AAi?$AAo?$AA?2?$AAc@ 004d1db0     LIBCMTD:commit.obj
 0002:00015e00       ??_C@_1BA@FLNMBBIM@?$AA_?$AAc?$AAo?$AAm?$AAm?$AAi?$AAt?$AA?$AA@ 004d1e00     LIBCMTD:commit.obj
 0002:00015e10       ??_C@_1DG@LNNHNFHJ@?$AA?$CI?$AA_?$AAo?$AAs?$AAf?$AAi?$AAl?$AAe?$AA?$CI?$AAf?$AAi?$AAl?$AAe?$AAd?$AAe?$AAs?$AA?$CJ?$AA?5?$AA?$CG?$AA?5?$AAF?$AAO?$AAP?$AAE?$AAN?$AA?$CJ?$AA?$AA@ 004d1e10     LIBCMTD:commit.obj
 0002:00015e48       ??_C@_0CJ@IGOJMKM@f?3?2dd?2vctools?2crt?2crtw32?2lowio?2o@ 004d1e48     LIBCMTD:osfinfo.obj
 0002:00015e78       ??_C@_1FC@BEKMGBFL@?$AAf?$AA?3?$AA?2?$AAd?$AAd?$AA?2?$AAv?$AAc?$AAt?$AAo?$AAo?$AAl?$AAs?$AA?2?$AAc?$AAr?$AAt?$AA?2?$AAc?$AAr?$AAt?$AAw?$AA3?$AA2?$AA?2?$AAl?$AAo?$AAw?$AAi?$AAo?$AA?2?$AAo@ 004d1e78     LIBCMTD:osfinfo.obj
 0002:00015ecc       ??_C@_1BO@EMBOBGKE@?$AA_?$AAg?$AAe?$AAt?$AA_?$AAo?$AAs?$AAf?$AAh?$AAa?$AAn?$AAd?$AAl?$AAe?$AA?$AA@ 004d1ecc     LIBCMTD:osfinfo.obj
 0002:00015ef0       ??_C@_1FC@LGKDBMCL@?$AAf?$AA?3?$AA?2?$AAd?$AAd?$AA?2?$AAv?$AAc?$AAt?$AAo?$AAo?$AAl?$AAs?$AA?2?$AAc?$AAr?$AAt?$AA?2?$AAc?$AAr?$AAt?$AAw?$AA3?$AA2?$AA?2?$AAs?$AAt?$AAd?$AAi?$AAo?$AA?2?$AA_@ 004d1ef0     LIBCMTD:_getbuf.obj
 0002:00015f44       ??_C@_0CJ@NMDFOMAF@f?3?2dd?2vctools?2crt?2crtw32?2stdio?2_@ 004d1f44     LIBCMTD:_getbuf.obj
 0002:00015f70       ??_C@_1BO@DPAOGEII@?$AA?$CI?$AAp?$AAa?$AAt?$AAh?$AA?5?$AA?$CB?$AA?$DN?$AA?5?$AAN?$AAU?$AAL?$AAL?$AA?$CJ?$AA?$AA@ 004d1f70     LIBCMTD:open.obj
 0002:00015f90       ??_C@_1EM@MNGNPLOA@?$AAf?$AA?3?$AA?2?$AAd?$AAd?$AA?2?$AAv?$AAc?$AAt?$AAo?$AAo?$AAl?$AAs?$AA?2?$AAc?$AAr?$AAt?$AA?2?$AAc?$AAr?$AAt?$AAw?$AA3?$AA2?$AA?2?$AAl?$AAo?$AAw?$AAi?$AAo?$AA?2?$AAo@ 004d1f90     LIBCMTD:open.obj
 0002:00015fdc       ??_C@_1M@MFLJCMFJ@?$AA_?$AAo?$AAp?$AAe?$AAn?$AA?$AA@ 004d1fdc     LIBCMTD:open.obj
 0002:00015fe8       ??_C@_1BM@PGEEHLHE@?$AA?$CI?$AAp?$AAf?$AAh?$AA?5?$AA?$CB?$AA?$DN?$AA?5?$AAN?$AAU?$AAL?$AAL?$AA?$CJ?$AA?$AA@ 004d1fe8     LIBCMTD:open.obj
 0002:00016004       ??_C@_1BM@IOBAMMHO@?$AA_?$AAs?$AAo?$AAp?$AAe?$AAn?$AA_?$AAh?$AAe?$AAl?$AAp?$AAe?$AAr?$AA?$AA@ 004d2004     LIBCMTD:open.obj
 0002:00016020       ??_C@_1FG@NFINBJCM@?$AA?$CI?$AA?$CI?$AAp?$AAm?$AAo?$AAd?$AAe?$AA?5?$AA?$CG?$AA?5?$AA?$CI?$AA?$HO?$AA?$CI?$AA_?$AAS?$AA_?$AAI?$AAR?$AAE?$AAA?$AAD?$AA?5?$AA?$HM?$AA?5?$AA_?$AAS?$AA_?$AAI?$AAW?$AAR?$AAI?$AAT@ 004d2020     LIBCMTD:open.obj
 0002:00016078       ??_C@_1BG@MODEICJK@?$AAs?$AA1?$AA?5?$AA?$CB?$AA?$DN?$AA?5?$AAN?$AAU?$AAL?$AAL?$AA?$AA@ 004d2078     LIBCMTD:mbsnbcmp.obj
 0002:00016090       ??_C@_1FK@HBIEJCLJ@?$AAf?$AA?3?$AA?2?$AAd?$AAd?$AA?2?$AAv?$AAc?$AAt?$AAo?$AAo?$AAl?$AAs?$AA?2?$AAc?$AAr?$AAt?$AA?2?$AAc?$AAr?$AAt?$AAw?$AA3?$AA2?$AA?2?$AAm?$AAb?$AAs?$AAt?$AAr?$AAi?$AAn@ 004d2090     LIBCMTD:mbsnbcmp.obj
 0002:000160ec       ??_C@_1BI@LPHOHGHI@?$AA_?$AAm?$AAb?$AAs?$AAn?$AAb?$AAc?$AAm?$AAp?$AA_?$AAl?$AA?$AA@ 004d20ec     LIBCMTD:mbsnbcmp.obj
 0002:00016104       ??_C@_1BG@GBJNMPFA@?$AAs?$AA2?$AA?5?$AA?$CB?$AA?$DN?$AA?5?$AAN?$AAU?$AAL?$AAL?$AA?$AA@ 004d2104     LIBCMTD:mbsnbcmp.obj
 0002:00016120       ??_C@_1FK@GCMEGOJB@?$AAf?$AA?3?$AA?2?$AAd?$AAd?$AA?2?$AAv?$AAc?$AAt?$AAo?$AAo?$AAl?$AAs?$AA?2?$AAc?$AAr?$AAt?$AA?2?$AAc?$AAr?$AAt?$AAw?$AA3?$AA2?$AA?2?$AAm?$AAb?$AAs?$AAt?$AAr?$AAi?$AAn@ 004d2120     LIBCMTD:mbsnbicm.obj
 0002:0001617c       ??_C@_1BK@GEJONGBG@?$AA_?$AAm?$AAb?$AAs?$AAn?$AAb?$AAi?$AAc?$AAm?$AAp?$AA_?$AAl?$AA?$AA@ 004d217c     LIBCMTD:mbsnbicm.obj
 0002:00016198       ___lookuptable_s           004d2198     LIBCMTD:outputs.obj
 0002:000161f4       ??_C@_1BI@COFBLHCG@?$AA_?$AAo?$AAu?$AAt?$AAp?$AAu?$AAt?$AA_?$AAs?$AA_?$AAl?$AA?$AA@ 004d21f4     LIBCMTD:outputs.obj
 0002:0001620c       ??_C@_1CO@HFMIILNF@?$AAs?$AAi?$AAz?$AAe?$AAI?$AAn?$AAB?$AAy?$AAt?$AAe?$AAs?$AA?5?$AA?$DM?$AA?$DN?$AA?5?$AAI?$AAN?$AAT?$AA_?$AAM?$AAA?$AAX?$AA?$AA@ 004d220c     LIBCMTD:wctomb.obj
 0002:00016240       ??_C@_1FE@GKMDCPPB@?$AAf?$AA?3?$AA?2?$AAd?$AAd?$AA?2?$AAv?$AAc?$AAt?$AAo?$AAo?$AAl?$AAs?$AA?2?$AAc?$AAr?$AAt?$AA?2?$AAc?$AAr?$AAt?$AAw?$AA3?$AA2?$AA?2?$AAc?$AAo?$AAn?$AAv?$AAe?$AAr?$AAt@ 004d2240     LIBCMTD:wctomb.obj
 0002:00016294       ??_C@_1BI@IEADNOHF@?$AA_?$AAw?$AAc?$AAt?$AAo?$AAm?$AAb?$AA_?$AAs?$AA_?$AAl?$AA?$AA@ 004d2294     LIBCMTD:wctomb.obj
 0002:000162b0       ??_C@_1NC@EINCOKCO@?$AA_?$AAl?$AAo?$AAc?$AA_?$AAu?$AAp?$AAd?$AAa?$AAt?$AAe?$AA?4?$AAG?$AAe?$AAt?$AAL?$AAo?$AAc?$AAa?$AAl?$AAe?$AAT?$AA?$CI?$AA?$CJ?$AA?9?$AA?$DO?$AAl?$AAo?$AAc?$AAi?$AAn?$AAf@ 004d22b0     LIBCMTD:mbtowc.obj
 0002:00016388       ??_C@_1FE@EKLDGEI@?$AAf?$AA?3?$AA?2?$AAd?$AAd?$AA?2?$AAv?$AAc?$AAt?$AAo?$AAo?$AAl?$AAs?$AA?2?$AAc?$AAr?$AAt?$AA?2?$AAc?$AAr?$AAt?$AAw?$AA3?$AA2?$AA?2?$AAc?$AAo?$AAn?$AAv?$AAe?$AAr?$AAt@ 004d2388     LIBCMTD:mbtowc.obj
 0002:000163e0       ??_C@_1FG@DIHJFNHH@?$AAf?$AA?3?$AA?2?$AAd?$AAd?$AA?2?$AAv?$AAc?$AAt?$AAo?$AAo?$AAl?$AAs?$AA?2?$AAc?$AAr?$AAt?$AA?2?$AAc?$AAr?$AAt?$AAw?$AA3?$AA2?$AA?2?$AAh?$AA?2?$AAt?$AAm?$AAa?$AAk?$AAe@ 004d23e0     LIBCMTD:wmakepath_s.obj
 0002:00016438       ??_C@_1BK@KHBCJPCH@?$AA_?$AAw?$AAm?$AAa?$AAk?$AAe?$AAp?$AAa?$AAt?$AAh?$AA_?$AAs?$AA?$AA@ 004d2438     LIBCMTD:wmakepath_s.obj
 0002:00016454       ??_C@_1CI@MLPLHPBP@?$AA?$CI?$AA?$CI?$AA?$CI?$AA_?$AAP?$AAa?$AAt?$AAh?$AA?$CJ?$AA?$CJ?$AA?$CJ?$AA?5?$AA?$CB?$AA?$DN?$AA?5?$AAN?$AAU?$AAL?$AAL?$AA?$AA@ 004d2454     LIBCMTD:wsplitpath_s.obj
 0002:00016480       ??_C@_1FI@NIGODNLP@?$AAf?$AA?3?$AA?2?$AAd?$AAd?$AA?2?$AAv?$AAc?$AAt?$AAo?$AAo?$AAl?$AAs?$AA?2?$AAc?$AAr?$AAt?$AA?2?$AAc?$AAr?$AAt?$AAw?$AA3?$AA2?$AA?2?$AAh?$AA?2?$AAt?$AAs?$AAp?$AAl?$AAi@ 004d2480     LIBCMTD:wsplitpath_s.obj
 0002:000164d8       ??_C@_1BM@OEAFIBCF@?$AA_?$AAw?$AAs?$AAp?$AAl?$AAi?$AAt?$AAp?$AAa?$AAt?$AAh?$AA_?$AAs?$AA?$AA@ 004d24d8     LIBCMTD:wsplitpath_s.obj
 0002:000164f4       ??_C@_1DE@MLEJGPLF@?$AA?$CI?$AAL?$AA?$CC?$AAI?$AAn?$AAv?$AAa?$AAl?$AAi?$AAd?$AA?5?$AAp?$AAa?$AAr?$AAa?$AAm?$AAe?$AAt?$AAe?$AAr?$AA?$CC?$AA?0?$AA?5?$AA0?$AA?$CJ?$AA?$AA@ 004d24f4     LIBCMTD:wsplitpath_s.obj
 0002:00016528       ??_C@_1FI@JBLIKEIM@?$AAf?$AA?3?$AA?2?$AAd?$AAd?$AA?2?$AAv?$AAc?$AAt?$AAo?$AAo?$AAl?$AAs?$AA?2?$AAc?$AAr?$AAt?$AA?2?$AAc?$AAr?$AAt?$AAw?$AA3?$AA2?$AA?2?$AAc?$AAo?$AAn?$AAv?$AAe?$AAr?$AAt@ 004d2528     LIBCMTD:_fptostr.obj
 0002:00016580       ??_C@_1BC@OPALLEB@?$AA_?$AAf?$AAp?$AAt?$AAo?$AAs?$AAt?$AAr?$AA?$AA@ 004d2580     LIBCMTD:_fptostr.obj
 0002:00016598       ??_C@_1GM@CEDLGDDI@?$AAs?$AAi?$AAz?$AAe?$AAI?$AAn?$AAB?$AAy?$AAt?$AAe?$AAs?$AA?5?$AA?$DO?$AA?5?$AA?$CI?$AAs?$AAi?$AAz?$AAe?$AA_?$AAt?$AA?$CJ?$AA?$CI?$AA?$CI?$AAd?$AAi?$AAg?$AAi?$AAt?$AAs?$AA?5?$AA?$DO@ 004d2598     LIBCMTD:_fptostr.obj
 0002:00016604       ??_C@_1BK@CLIEHFDF@?$AAp?$AAf?$AAl?$AAt?$AA?5?$AA?$CB?$AA?$DN?$AA?5?$AAN?$AAU?$AAL?$AAL?$AA?$AA@ 004d2604     LIBCMTD:_fptostr.obj
 0002:00016620       ??_C@_1EK@LJBJCHGA@?$AAf?$AA?3?$AA?2?$AAd?$AAd?$AA?2?$AAv?$AAc?$AAt?$AAo?$AAo?$AAl?$AAs?$AA?2?$AAc?$AAr?$AAt?$AA?2?$AAf?$AAp?$AAw?$AA3?$AA2?$AA?2?$AAc?$AAo?$AAn?$AAv?$AA?2?$AAc?$AAf?$AAo@ 004d2620     LIBCMTD:cfout.obj
 0002:0001666c       ??_C@_1BC@BPMMEHLK@?$AA_?$AAf?$AAl?$AAt?$AAo?$AAu?$AAt?$AA2?$AA?$AA@ 004d266c     LIBCMTD:cfout.obj
 0002:00016680       ??_C@_1FK@KODCOBKF@?$AAs?$AAt?$AAr?$AAc?$AAp?$AAy?$AA_?$AAs?$AA?$CI?$AAr?$AAe?$AAs?$AAu?$AAl?$AAt?$AAs?$AAt?$AAr?$AA?0?$AA?5?$AAr?$AAe?$AAs?$AAu?$AAl?$AAt?$AAs?$AAi?$AAz?$AAe?$AA?0?$AA?5@ 004d2680     LIBCMTD:cfout.obj
 0002:000166e0       ??_C@_1EM@EGEEBJLG@?$AA?$CI?$AAo?$AAp?$AAt?$AAi?$AAo?$AAn?$AAs?$AA?5?$AA?$CG?$AA?5?$AA?$HO?$AA_?$AAT?$AAW?$AAO?$AA_?$AAD?$AAI?$AAG?$AAI?$AAT?$AA_?$AAE?$AAX?$AAP?$AAO?$AAN?$AAE?$AAN?$AAT?$AA?$CJ@ 004d26e0     LIBCMTD:outputformat.obj
 0002:00016730       ??_C@_1FM@FBHCILLE@?$AAf?$AA?3?$AA?2?$AAd?$AAd?$AA?2?$AAv?$AAc?$AAt?$AAo?$AAo?$AAl?$AAs?$AA?2?$AAc?$AAr?$AAt?$AA?2?$AAc?$AAr?$AAt?$AAw?$AA3?$AA2?$AA?2?$AAs?$AAt?$AAd?$AAi?$AAo?$AA?2?$AAo@ 004d2730     LIBCMTD:outputformat.obj
 0002:0001678c       ??_C@_1CG@EBJECAJM@?$AA_?$AAs?$AAe?$AAt?$AA_?$AAo?$AAu?$AAt?$AAp?$AAu?$AAt?$AA_?$AAf?$AAo?$AAr?$AAm?$AAa?$AAt?$AA?$AA@ 004d278c     LIBCMTD:outputformat.obj
 0002:000167b4       ??_C@_1DG@JNDMIEJL@?$AA?$CI?$AA?$CC?$AAI?$AAn?$AAv?$AAa?$AAl?$AAi?$AAd?$AA?5?$AAi?$AAn?$AAp?$AAu?$AAt?$AA?5?$AAv?$AAa?$AAl?$AAu?$AAe?$AA?$CC?$AA?0?$AA?5?$AA0?$AA?$CJ?$AA?$AA@ 004d27b4     LIBCMTD:contrlfp.obj
 0002:000167f0       ??_C@_1FA@IJLDLDMO@?$AAf?$AA?3?$AA?2?$AAd?$AAd?$AA?2?$AAv?$AAc?$AAt?$AAo?$AAo?$AAl?$AAs?$AA?2?$AAc?$AAr?$AAt?$AA?2?$AAf?$AAp?$AAw?$AA3?$AA2?$AA?2?$AAt?$AAr?$AAa?$AAn?$AA?2?$AAc?$AAo?$AAn@ 004d27f0     LIBCMTD:contrlfp.obj
 0002:00016840       ??_C@_1BK@CDOALEA@?$AA_?$AAc?$AAo?$AAn?$AAt?$AAr?$AAo?$AAl?$AAf?$AAp?$AA_?$AAs?$AA?$AA@ 004d2840     LIBCMTD:contrlfp.obj
 0002:0001685c       ??_C@_1CC@FKAOHHLO@?$AA?$CI?$AAo?$AAp?$AAt?$AAi?$AAo?$AAn?$AA?5?$AA?$CB?$AA?$DN?$AA?5?$AAN?$AAU?$AAL?$AAL?$AA?$CJ?$AA?$AA@ 004d285c     LIBCMTD:getenv.obj
 0002:00016880       ??_C@_1EO@JOEHPJNP@?$AAf?$AA?3?$AA?2?$AAd?$AAd?$AA?2?$AAv?$AAc?$AAt?$AAo?$AAo?$AAl?$AAs?$AA?2?$AAc?$AAr?$AAt?$AA?2?$AAc?$AAr?$AAt?$AAw?$AA3?$AA2?$AA?2?$AAm?$AAi?$AAs?$AAc?$AA?2?$AAg?$AAe@ 004d2880     LIBCMTD:getenv.obj
 0002:000168d0       ??_C@_1O@GMKGKCJO@?$AAg?$AAe?$AAt?$AAe?$AAn?$AAv?$AA?$AA@ 004d28d0     LIBCMTD:getenv.obj
 0002:000168e0       ??_C@_1FA@HILOOCMA@?$AA?$CI?$AA_?$AAt?$AAc?$AAs?$AAn?$AAl?$AAe?$AAn?$AA?$CI?$AAo?$AAp?$AAt?$AAi?$AAo?$AAn?$AA?0?$AA?5?$AA_?$AAM?$AAA?$AAX?$AA_?$AAE?$AAN?$AAV?$AA?$CJ?$AA?5?$AA?$DM?$AA?5?$AA_?$AAM@ 004d28e0     LIBCMTD:getenv.obj
 0002:00016930       ??_C@_1GI@JBIFPFJH@?$AA_?$AAt?$AAc?$AAs?$AAn?$AAl?$AAe?$AAn?$AA?$CI?$AA?$CK?$AAs?$AAe?$AAa?$AAr?$AAc?$AAh?$AA?5?$AA?$CL?$AA?5?$AAl?$AAe?$AAn?$AAg?$AAt?$AAh?$AA?5?$AA?$CL?$AA?5?$AA1?$AA?0?$AA?5?$AA_@ 004d2930     LIBCMTD:getenv.obj
 0002:00016998       ??_C@_1CK@PIKDAOCL@?$AAp?$AAR?$AAe?$AAt?$AAu?$AAr?$AAn?$AAV?$AAa?$AAl?$AAu?$AAe?$AA?5?$AA?$CB?$AA?$DN?$AA?5?$AAN?$AAU?$AAL?$AAL?$AA?$AA@ 004d2998     LIBCMTD:getenv.obj
 0002:000169c4       ??_C@_1CC@BAJKDIIF@?$AA_?$AAg?$AAe?$AAt?$AAe?$AAn?$AAv?$AA_?$AAs?$AA_?$AAh?$AAe?$AAl?$AAp?$AAe?$AAr?$AA?$AA@ 004d29c4     LIBCMTD:getenv.obj
 0002:000169e8       ??_C@_1JM@NLPGJJPH@?$AA?$CI?$AAb?$AAu?$AAf?$AAf?$AAe?$AAr?$AA?5?$AA?$CB?$AA?$DN?$AA?5?$AAN?$AAU?$AAL?$AAL?$AA?5?$AA?$CG?$AA?$CG?$AA?5?$AAs?$AAi?$AAz?$AAe?$AAI?$AAn?$AAT?$AAC?$AAh?$AAa?$AAr?$AAs?$AA?5@ 004d29e8     LIBCMTD:getenv.obj
 0002:00016a88       ??_C@_1EI@HHOBPCFK@?$AAs?$AAt?$AAr?$AAc?$AAp?$AAy?$AA_?$AAs?$AA?$CI?$AAb?$AAu?$AAf?$AAf?$AAe?$AAr?$AA?0?$AA?5?$AAs?$AAi?$AAz?$AAe?$AAI?$AAn?$AAT?$AAC?$AAh?$AAa?$AAr?$AAs?$AA?0?$AA?5?$AAs@ 004d2a88     LIBCMTD:getenv.obj
 0002:00016ad0       ??_C@_1CA@FHNFMDOJ@?$AAp?$AAB?$AAu?$AAf?$AAf?$AAe?$AAr?$AA?5?$AA?$CB?$AA?$DN?$AA?5?$AAN?$AAU?$AAL?$AAL?$AA?$AA@ 004d2ad0     LIBCMTD:getenv.obj
 0002:00016af0       ??_C@_1CC@KPLOPIEM@?$AA_?$AAd?$AAu?$AAp?$AAe?$AAn?$AAv?$AA_?$AAs?$AA_?$AAh?$AAe?$AAl?$AAp?$AAe?$AAr?$AA?$AA@ 004d2af0     LIBCMTD:getenv.obj
 0002:00016b14       ??_C@_1CA@GDBKELOE@?$AAv?$AAa?$AAr?$AAn?$AAa?$AAm?$AAe?$AA?5?$AA?$CB?$AA?$DN?$AA?5?$AAN?$AAU?$AAL?$AAL?$AA?$AA@ 004d2b14     LIBCMTD:getenv.obj
 0002:00016b34       ??_C@_1DM@GNKNEGJO@?$AAs?$AAt?$AAr?$AAc?$AAp?$AAy?$AA_?$AAs?$AA?$CI?$AA?$CK?$AAp?$AAB?$AAu?$AAf?$AAf?$AAe?$AAr?$AA?0?$AA?5?$AAs?$AAi?$AAz?$AAe?$AA?0?$AA?5?$AAs?$AAt?$AAr?$AA?$CJ?$AA?$AA@ 004d2b34     LIBCMTD:getenv.obj
 0002:00016b70       ??_C@_1FA@DLIHGOGB@?$AAf?$AA?3?$AA?2?$AAd?$AAd?$AA?2?$AAv?$AAc?$AAt?$AAo?$AAo?$AAl?$AAs?$AA?2?$AAc?$AAr?$AAt?$AA?2?$AAc?$AAr?$AAt?$AAw?$AA3?$AA2?$AA?2?$AAs?$AAt?$AAd?$AAi?$AAo?$AA?2?$AAu@ 004d2b70     LIBCMTD:ungetc.obj
 0002:00016bc0       ??_C@_1O@JDPLECOK@?$AAu?$AAn?$AAg?$AAe?$AAt?$AAc?$AA?$AA@ 004d2bc0     LIBCMTD:ungetc.obj
 0002:00016bd0       ??_C@_1FK@GNHGKPOM@?$AAf?$AA?3?$AA?2?$AAd?$AAd?$AA?2?$AAv?$AAc?$AAt?$AAo?$AAo?$AAl?$AAs?$AA?2?$AAc?$AAr?$AAt?$AA?2?$AAc?$AAr?$AAt?$AAw?$AA3?$AA2?$AA?2?$AAh?$AA?2?$AAu?$AAn?$AAg?$AAe?$AAt@ 004d2bd0     LIBCMTD:ungetc.obj
 0002:00016c2c       ??_C@_1BO@OLMLKKEA@?$AA_?$AAu?$AAn?$AAg?$AAe?$AAt?$AAc?$AA_?$AAn?$AAo?$AAl?$AAo?$AAc?$AAk?$AA?$AA@ 004d2c2c     LIBCMTD:ungetc.obj
 0002:00016c4a       ?value@?$integral_constant@_N$0A@@std@@2_NB 004d2c4a     LIBCMTD:frame.obj
 0002:00016c4b       ?value@?$integral_constant@_N$00@std@@2_NB 004d2c4b     LIBCMTD:frame.obj
 0002:00016c4c       __pDestructExceptionObject 004d2c4c     LIBCMTD:frame.obj
 0002:00016c54       ??_7bad_exception@std@@6B@ 004d2c54     LIBCMTD:frame.obj
 0002:00016c5c       ??_C@_0O@DPKOEFFH@bad?5exception?$AA@ 004d2c5c     LIBCMTD:frame.obj
 0002:00016c70       ??_C@_1FA@LEFFAILN@?$AAf?$AA?3?$AA?2?$AAd?$AAd?$AA?2?$AAv?$AAc?$AAt?$AAo?$AAo?$AAl?$AAs?$AA?2?$AAc?$AAr?$AAt?$AA?2?$AAc?$AAr?$AAt?$AAw?$AA3?$AA2?$AA?2?$AAc?$AAo?$AAn?$AAv?$AAe?$AAr?$AAt@ 004d2c70     LIBCMTD:xtows.obj
 0002:00016cc0       ??_C@_1O@NCBFODOE@?$AAx?$AAt?$AAo?$AAw?$AA_?$AAs?$AA?$AA@ 004d2cc0     LIBCMTD:xtows.obj
 0002:00016cd0       ??_C@_1FA@MKGGAGEI@?$AAs?$AAi?$AAz?$AAe?$AAI?$AAn?$AAT?$AAC?$AAh?$AAa?$AAr?$AAs?$AA?5?$AA?$DO?$AA?5?$AA?$CI?$AAs?$AAi?$AAz?$AAe?$AA_?$AAt?$AA?$CJ?$AA?$CI?$AAi?$AAs?$AA_?$AAn?$AAe?$AAg?$AA?5?$AA?$DP@ 004d2cd0     LIBCMTD:xtows.obj
 0002:00016d20       ??_C@_1DE@PCJGDBBD@?$AA2?$AA?5?$AA?$DM?$AA?$DN?$AA?5?$AAr?$AAa?$AAd?$AAi?$AAx?$AA?5?$AA?$CG?$AA?$CG?$AA?5?$AAr?$AAa?$AAd?$AAi?$AAx?$AA?5?$AA?$DM?$AA?$DN?$AA?5?$AA3?$AA6?$AA?$AA@ 004d2d20     LIBCMTD:xtows.obj
 0002:00016d54       ??_C@_1CM@HABGDNLJ@?$AAl?$AAe?$AAn?$AAg?$AAt?$AAh?$AA?5?$AA?$DM?$AA?5?$AAs?$AAi?$AAz?$AAe?$AAI?$AAn?$AAT?$AAC?$AAh?$AAa?$AAr?$AAs?$AA?$AA@ 004d2d54     LIBCMTD:xtows.obj
 0002:00016d80       ??_C@_1BC@HDEJCFPB@?$AAx?$AA6?$AA4?$AAt?$AAo?$AAw?$AA_?$AAs?$AA?$AA@ 004d2d80     LIBCMTD:xtows.obj
 0002:00016d98       ??_C@_1FE@NDFDLJMJ@?$AAf?$AA?3?$AA?2?$AAd?$AAd?$AA?2?$AAv?$AAc?$AAt?$AAo?$AAo?$AAl?$AAs?$AA?2?$AAc?$AAr?$AAt?$AA?2?$AAc?$AAr?$AAt?$AAw?$AA3?$AA2?$AA?2?$AAs?$AAt?$AAr?$AAi?$AAn?$AAg?$AA?2@ 004d2d98     LIBCMTD:wcsicmp.obj
 0002:00016dec       ??_C@_1BG@EELGPCPD@?$AA_?$AAw?$AAc?$AAs?$AAi?$AAc?$AAm?$AAp?$AA_?$AAl?$AA?$AA@ 004d2dec     LIBCMTD:wcsicmp.obj
 0002:00016e04       ??_C@_1BC@NHIBDOMC@?$AA_?$AAw?$AAc?$AAs?$AAi?$AAc?$AAm?$AAp?$AA?$AA@ 004d2e04     LIBCMTD:wcsicmp.obj
 0002:00016e18       ??_C@_1BM@CBACDFHA@?$AAf?$AAi?$AAr?$AAs?$AAt?$AA?5?$AA?$CB?$AA?$DN?$AA?5?$AAN?$AAU?$AAL?$AAL?$AA?$AA@ 004d2e18     LIBCMTD:wcsnicmp.obj
 0002:00016e38       ??_C@_1FG@GGNDOPHP@?$AAf?$AA?3?$AA?2?$AAd?$AAd?$AA?2?$AAv?$AAc?$AAt?$AAo?$AAo?$AAl?$AAs?$AA?2?$AAc?$AAr?$AAt?$AA?2?$AAc?$AAr?$AAt?$AAw?$AA3?$AA2?$AA?2?$AAs?$AAt?$AAr?$AAi?$AAn?$AAg?$AA?2@ 004d2e38     LIBCMTD:wcsnicmp.obj
 0002:00016e90       ??_C@_1BI@KLMFNDBC@?$AA_?$AAw?$AAc?$AAs?$AAn?$AAi?$AAc?$AAm?$AAp?$AA_?$AAl?$AA?$AA@ 004d2e90     LIBCMTD:wcsnicmp.obj
 0002:00016ea8       ??_C@_1BK@LKBOPAFJ@?$AAl?$AAa?$AAs?$AAt?$AA?5?$AA?$CB?$AA?$DN?$AA?5?$AAN?$AAU?$AAL?$AAL?$AA?$AA@ 004d2ea8     LIBCMTD:wcsnicmp.obj
 0002:00016ec4       ??_C@_1BE@JKOKKFEL@?$AA_?$AAw?$AAc?$AAs?$AAn?$AAi?$AAc?$AAm?$AAp?$AA?$AA@ 004d2ec4     LIBCMTD:wcsnicmp.obj
 0002:00016ed8       ??_C@_1FE@DHCMIOFC@?$AAf?$AA?3?$AA?2?$AAd?$AAd?$AA?2?$AAv?$AAc?$AAt?$AAo?$AAo?$AAl?$AAs?$AA?2?$AAc?$AAr?$AAt?$AA?2?$AAc?$AAr?$AAt?$AAw?$AA3?$AA2?$AA?2?$AAs?$AAt?$AAd?$AAi?$AAo?$AA?2?$AAv@ 004d2ed8     LIBCMTD:vswprint.obj
 0002:00016f2c       ??_C@_1BK@EPLNBKAK@?$AA_?$AAv?$AAs?$AAw?$AAp?$AAr?$AAi?$AAn?$AAt?$AAf?$AA_?$AAl?$AA?$AA@ 004d2f2c     LIBCMTD:vswprint.obj
 0002:00016f48       ??_C@_1CG@IMMIEPNA@?$AA_?$AAv?$AAs?$AAc?$AAw?$AAp?$AAr?$AAi?$AAn?$AAt?$AAf?$AA_?$AAh?$AAe?$AAl?$AAp?$AAe?$AAr?$AA?$AA@ 004d2f48     LIBCMTD:vswprint.obj
 0002:00016f70       ??_C@_1CE@IGKFIJFD@?$AA_?$AAv?$AAs?$AAw?$AAp?$AAr?$AAi?$AAn?$AAt?$AAf?$AA_?$AAh?$AAe?$AAl?$AAp?$AAe?$AAr?$AA?$AA@ 004d2f70     LIBCMTD:vswprnc.obj
 0002:00016f94       ??_C@_1BO@OALHJLCI@?$AA_?$AAv?$AAs?$AAw?$AAp?$AAr?$AAi?$AAn?$AAt?$AAf?$AA_?$AAs?$AA_?$AAl?$AA?$AA@ 004d2f94     LIBCMTD:vswprnc.obj
 0002:00016fb8       ??_C@_1EE@MPCHJFGP@?$AAs?$AAt?$AAr?$AAi?$AAn?$AAg?$AA?5?$AA?$CB?$AA?$DN?$AA?5?$AAN?$AAU?$AAL?$AAL?$AA?5?$AA?$CG?$AA?$CG?$AA?5?$AAs?$AAi?$AAz?$AAe?$AAI?$AAn?$AAW?$AAo?$AAr?$AAd?$AAs?$AA?5?$AA?$DO?$AA?5@ 004d2fb8     LIBCMTD:vswprnc.obj
 0002:00016ffc       ??_C@_1CA@BKFKMJFF@?$AA_?$AAv?$AAs?$AAn?$AAw?$AAp?$AAr?$AAi?$AAn?$AAt?$AAf?$AA_?$AAs?$AA_?$AAl?$AA?$AA@ 004d2ffc     LIBCMTD:vswprnc.obj
 0002:0001701c       ??_C@_1BG@BBCDFOMA@?$AA_?$AAw?$AAo?$AAu?$AAt?$AAp?$AAu?$AAt?$AA_?$AAl?$AA?$AA@ 004d301c     LIBCMTD:woutput.obj
 0002:00017034       ??_C@_1BC@HGPNAKGC@?$AAs?$AAt?$AAr?$AAc?$AAa?$AAt?$AA_?$AAs?$AA?$AA@ 004d3034     LIBCMTD:strcat_s.obj
 0002:00017048       ??_C@_1O@GIMBNLEI@?$AAx?$AAt?$AAo?$AAa?$AA_?$AAs?$AA?$AA@ 004d3048     LIBCMTD:xtoas.obj
 0002:00017058       ??_C@_1BC@MJJNBNFN@?$AAx?$AA6?$AA4?$AAt?$AAo?$AAa?$AA_?$AAs?$AA?$AA@ 004d3058     LIBCMTD:xtoas.obj
 0002:0001706c       ??_C@_1BE@EEKACIGI@?$AAs?$AA?5?$AA?$CB?$AA?$DN?$AA?5?$AAN?$AAU?$AAL?$AAL?$AA?$AA@ 004d306c     LIBCMTD:mbstowcs.obj
 0002:00017080       ??_C@_1FI@DADFCCMF@?$AAf?$AA?3?$AA?2?$AAd?$AAd?$AA?2?$AAv?$AAc?$AAt?$AAo?$AAo?$AAl?$AAs?$AA?2?$AAc?$AAr?$AAt?$AA?2?$AAc?$AAr?$AAt?$AAw?$AA3?$AA2?$AA?2?$AAc?$AAo?$AAn?$AAv?$AAe?$AAr?$AAt@ 004d3080     LIBCMTD:mbstowcs.obj
 0002:000170d8       ??_C@_1CG@JEHFHLNG@?$AA_?$AAm?$AAb?$AAs?$AAt?$AAo?$AAw?$AAc?$AAs?$AA_?$AAl?$AA_?$AAh?$AAe?$AAl?$AAp?$AAe?$AAr?$AA?$AA@ 004d30d8     LIBCMTD:mbstowcs.obj
 0002:00017100       ??_C@_1JA@JKDFMOPO@?$AA?$CI?$AAp?$AAw?$AAc?$AAs?$AA?5?$AA?$DN?$AA?$DN?$AA?5?$AAN?$AAU?$AAL?$AAL?$AA?5?$AA?$CG?$AA?$CG?$AA?5?$AAs?$AAi?$AAz?$AAe?$AAI?$AAn?$AAW?$AAo?$AAr?$AAd?$AAs?$AA?5?$AA?$DN?$AA?$DN?$AA?5@ 004d3100     LIBCMTD:mbstowcs.obj
 0002:00017190       ??_C@_1BM@PHENIGHD@?$AA_?$AAm?$AAb?$AAs?$AAt?$AAo?$AAw?$AAc?$AAs?$AA_?$AAs?$AA_?$AAl?$AA?$AA@ 004d3190     LIBCMTD:mbstowcs.obj
 0002:000171ac       ??_C@_1CM@LLECFMFH@?$AAb?$AAu?$AAf?$AAf?$AAe?$AAr?$AAS?$AAi?$AAz?$AAe?$AA?5?$AA?$DM?$AA?$DN?$AA?5?$AAI?$AAN?$AAT?$AA_?$AAM?$AAA?$AAX?$AA?$AA@ 004d31ac     LIBCMTD:mbstowcs.obj
 0002:000171d8       ??_C@_1CO@JNPEPJAL@?$AAr?$AAe?$AAt?$AAs?$AAi?$AAz?$AAe?$AA?5?$AA?$DM?$AA?$DN?$AA?5?$AAs?$AAi?$AAz?$AAe?$AAI?$AAn?$AAW?$AAo?$AAr?$AAd?$AAs?$AA?$AA@ 004d31d8     LIBCMTD:mbstowcs.obj
 0002:00017208       ??_C@_1BK@OIBENBPM@?$AAp?$AAw?$AAc?$AAs?$AA?5?$AA?$CB?$AA?$DN?$AA?5?$AAN?$AAU?$AAL?$AAL?$AA?$AA@ 004d3208     LIBCMTD:wcstombs.obj
 0002:00017228       ??_C@_1FI@GCFLNCOB@?$AAf?$AA?3?$AA?2?$AAd?$AAd?$AA?2?$AAv?$AAc?$AAt?$AAo?$AAo?$AAl?$AAs?$AA?2?$AAc?$AAr?$AAt?$AA?2?$AAc?$AAr?$AAt?$AAw?$AA3?$AA2?$AA?2?$AAc?$AAo?$AAn?$AAv?$AAe?$AAr?$AAt@ 004d3228     LIBCMTD:wcstombs.obj
 0002:00017280       ??_C@_1CG@LLJCAOHF@?$AA_?$AAw?$AAc?$AAs?$AAt?$AAo?$AAm?$AAb?$AAs?$AA_?$AAl?$AA_?$AAh?$AAe?$AAl?$AAp?$AAe?$AAr?$AA?$AA@ 004d3280     LIBCMTD:wcstombs.obj
 0002:000172a8       ??_C@_1IM@MFGKHGBP@?$AA?$CI?$AAd?$AAs?$AAt?$AA?5?$AA?$CB?$AA?$DN?$AA?5?$AAN?$AAU?$AAL?$AAL?$AA?5?$AA?$CG?$AA?$CG?$AA?5?$AAs?$AAi?$AAz?$AAe?$AAI?$AAn?$AAB?$AAy?$AAt?$AAe?$AAs?$AA?5?$AA?$DO?$AA?5?$AA0?$AA?$CJ@ 004d32a8     LIBCMTD:wcstombs.obj
 0002:00017334       ??_C@_1BM@BDMCLLDL@?$AA_?$AAw?$AAc?$AAs?$AAt?$AAo?$AAm?$AAb?$AAs?$AA_?$AAs?$AA_?$AAl?$AA?$AA@ 004d3334     LIBCMTD:wcstombs.obj
 0002:00017350       ??_C@_1CM@KEOGBFLI@?$AAs?$AAi?$AAz?$AAe?$AAI?$AAn?$AAB?$AAy?$AAt?$AAe?$AAs?$AA?5?$AA?$DO?$AA?5?$AAr?$AAe?$AAt?$AAs?$AAi?$AAz?$AAe?$AA?$AA@ 004d3350     LIBCMTD:wcstombs.obj
 0002:0001737c       ??_C@_1CA@MBDBOHIB@?$AA_?$AAL?$AAo?$AAc?$AAa?$AAl?$AAe?$AA?5?$AA?$CB?$AA?$DN?$AA?5?$AAN?$AAU?$AAL?$AAL?$AA?$AA@ 004d337c     LIBCMTD:strgtold.obj
 0002:000173a0       ??_C@_1FO@OFJNJPKB@?$AAf?$AA?3?$AA?2?$AAd?$AAd?$AA?2?$AAv?$AAc?$AAt?$AAo?$AAo?$AAl?$AAs?$AA?2?$AAc?$AAr?$AAt?$AA?2?$AAf?$AAp?$AAw?$AA3?$AA2?$AA?2?$AAi?$AAn?$AAc?$AAl?$AAu?$AAd?$AAe?$AA?2@ 004d33a0     LIBCMTD:strgtold.obj
 0002:00017400       ??_C@_1BO@IHLJHOPI@?$AA_?$AA_?$AAs?$AAt?$AAr?$AAg?$AAt?$AAo?$AAl?$AAd?$AA1?$AA2?$AA_?$AAl?$AA?$AA@ 004d3400     LIBCMTD:strgtold.obj
 0002:00017420       ??_C@_1O@HFEBJM@?$AA_?$AAw?$AAo?$AAp?$AAe?$AAn?$AA?$AA@ 004d3420     LIBCMTD:wopen.obj
 0002:00017430       ??_C@_1BO@NAANLDBI@?$AA_?$AAw?$AAs?$AAo?$AAp?$AAe?$AAn?$AA_?$AAh?$AAe?$AAl?$AAp?$AAe?$AAr?$AA?$AA@ 004d3430     LIBCMTD:wopen.obj
 0002:00017450       ??_C@_0M@HHGEPIBF@CreateFile2?$AA@ 004d3450     LIBCMTD:wopen.obj
 0002:0001745c       ??_C@_1BO@JMCLMIEA@?$AA_?$AAw?$AAs?$AAo?$AAp?$AAe?$AAn?$AA_?$AAn?$AAo?$AAl?$AAo?$AAc?$AAk?$AA?$AA@ 004d345c     LIBCMTD:wopen.obj
 0002:0001747c       ??_C@_1CG@ICBEBDJJ@?$AA_?$AAg?$AAe?$AAt?$AA_?$AAf?$AAm?$AAo?$AAd?$AAe?$AA?$CI?$AA?$CG?$AAf?$AAm?$AAo?$AAd?$AAe?$AA?$CJ?$AA?$AA@ 004d347c     LIBCMTD:wopen.obj
 0002:000174a4       ??_C@_1DI@DGKIFCCE@?$AA?$CI?$AA?5?$AA?$CC?$AAI?$AAn?$AAv?$AAa?$AAl?$AAi?$AAd?$AA?5?$AAo?$AAp?$AAe?$AAn?$AA?5?$AAf?$AAl?$AAa?$AAg?$AA?$CC?$AA?5?$AA?0?$AA?5?$AA0?$AA?5?$AA?$CJ?$AA?$AA@ 004d34a4     LIBCMTD:wopen.obj
 0002:000174dc       ??_C@_1DO@PJLMOANO@?$AA?$CI?$AA?5?$AA?$CC?$AAI?$AAn?$AAv?$AAa?$AAl?$AAi?$AAd?$AA?5?$AAs?$AAh?$AAa?$AAr?$AAi?$AAn?$AAg?$AA?5?$AAf?$AAl?$AAa?$AAg?$AA?$CC?$AA?5?$AA?0?$AA?5?$AA0?$AA?5?$AA?$CJ?$AA?$AA@ 004d34dc     LIBCMTD:wopen.obj
 0002:00017520       ??_C@_1HM@GJANBLHJ@?$AA?$CI?$AAo?$AAf?$AAl?$AAa?$AAg?$AA?5?$AA?$CG?$AA?5?$AA?$CI?$AA_?$AAO?$AA_?$AAT?$AAE?$AAX?$AAT?$AA?5?$AA?$HM?$AA?5?$AA_?$AAO?$AA_?$AAW?$AAT?$AAE?$AAX?$AAT?$AA?5?$AA?$HM?$AA?5?$AA_@ 004d3520     LIBCMTD:wopen.obj
 0002:0001759c       ??_C@_1CM@IDLMKMPG@?$AA0?$AA?5?$AA?$CG?$AA?$CG?$AA?5?$AA?$CC?$AAI?$AAn?$AAt?$AAe?$AAr?$AAn?$AAa?$AAl?$AA?5?$AAE?$AAr?$AAr?$AAo?$AAr?$AA?$CC?$AA?$AA@ 004d359c     LIBCMTD:wopen.obj
 0002:000175c8       ??_C@_1IA@IENOJNJF@?$AA0?$AA?5?$AA?$CG?$AA?$CG?$AA?5?$AA?$CC?$AAO?$AAn?$AAl?$AAy?$AA?5?$AAU?$AAT?$AAF?$AA?9?$AA1?$AA6?$AA?5?$AAl?$AAi?$AAt?$AAt?$AAl?$AAe?$AA?5?$AAe?$AAn?$AAd?$AAi?$AAa?$AAn?$AA?5@ 004d35c8     LIBCMTD:wopen.obj
 0002:00017648       ??_C@_1FG@NEKCMHCI@?$AAf?$AA?3?$AA?2?$AAd?$AAd?$AA?2?$AAv?$AAc?$AAt?$AAo?$AAo?$AAl?$AAs?$AA?2?$AAc?$AAr?$AAt?$AA?2?$AAc?$AAr?$AAt?$AAw?$AA3?$AA2?$AA?2?$AAs?$AAt?$AAr?$AAi?$AAn?$AAg?$AA?2@ 004d3648     LIBCMTD:strnicmp.obj
 0002:000176a0       ??_C@_1BI@BJLEPLEF@?$AA_?$AAs?$AAt?$AAr?$AAn?$AAi?$AAc?$AAm?$AAp?$AA_?$AAl?$AA?$AA@ 004d36a0     LIBCMTD:strnicmp.obj
 0002:000176b8       ??_C@_1CC@JLPHKJPH@?$AAc?$AAo?$AAu?$AAn?$AAt?$AA?5?$AA?$DM?$AA?$DN?$AA?5?$AAI?$AAN?$AAT?$AA_?$AAM?$AAA?$AAX?$AA?$AA@ 004d36b8     LIBCMTD:strnicmp.obj
 0002:000176dc       ??_C@_1BE@BHJDFFNA@?$AA_?$AAs?$AAt?$AAr?$AAn?$AAi?$AAc?$AAm?$AAp?$AA?$AA@ 004d36dc     LIBCMTD:strnicmp.obj
 0002:000176f0       ??_C@_1BA@BALFACEM@?$AAC?$AAO?$AAN?$AAO?$AAU?$AAT?$AA$?$AA?$AA@ 004d36f0     LIBCMTD:initcon.obj
 0002:00017700       ??_C@_1EO@IKHIJFCK@?$AAf?$AA?3?$AA?2?$AAd?$AAd?$AA?2?$AAv?$AAc?$AAt?$AAo?$AAo?$AAl?$AAs?$AA?2?$AAc?$AAr?$AAt?$AA?2?$AAf?$AAp?$AAw?$AA3?$AA2?$AA?2?$AAc?$AAo?$AAn?$AAv?$AA?2?$AAx?$AA1?$AA0@ 004d3700     LIBCMTD:x10fout.obj
 0002:00017750       ??_C@_1BI@ELMAAFLN@?$AA$?$AAI?$AA1?$AA0?$AA_?$AAO?$AAU?$AAT?$AAP?$AAU?$AAT?$AA?$AA@ 004d3750     LIBCMTD:x10fout.obj
 0002:00017768       ??_C@_1EG@CDDBFNOB@?$AAs?$AAt?$AAr?$AAc?$AAp?$AAy?$AA_?$AAs?$AA?$CI?$AAf?$AAo?$AAs?$AA?9?$AA?$DO?$AAm?$AAa?$AAn?$AA?0?$AA?5?$AA2?$AA1?$AA?$CL?$AA1?$AA?0?$AA?5?$AA?$CC?$AA1?$AA?$CD?$AAS?$AAN?$AAA?$AAN@ 004d3768     LIBCMTD:x10fout.obj
 0002:000177b0       ??_C@_06PGGFOGJG@1?$CDSNAN?$AA@ 004d37b0     LIBCMTD:x10fout.obj
 0002:000177b8       ??_C@_1EE@MADEBIHF@?$AAs?$AAt?$AAr?$AAc?$AAp?$AAy?$AA_?$AAs?$AA?$CI?$AAf?$AAo?$AAs?$AA?9?$AA?$DO?$AAm?$AAa?$AAn?$AA?0?$AA?5?$AA2?$AA1?$AA?$CL?$AA1?$AA?0?$AA?5?$AA?$CC?$AA1?$AA?$CD?$AAI?$AAN?$AAD?$AA?$CC@ 004d37b8     LIBCMTD:x10fout.obj
 0002:000177fc       ??_C@_05PHHOCPM@1?$CDIND?$AA@ 004d37fc     LIBCMTD:x10fout.obj
 0002:00017808       ??_C@_1EE@ICBBBPAI@?$AAs?$AAt?$AAr?$AAc?$AAp?$AAy?$AA_?$AAs?$AA?$CI?$AAf?$AAo?$AAs?$AA?9?$AA?$DO?$AAm?$AAa?$AAn?$AA?0?$AA?5?$AA2?$AA1?$AA?$CL?$AA1?$AA?0?$AA?5?$AA?$CC?$AA1?$AA?$CD?$AAI?$AAN?$AAF?$AA?$CC@ 004d3808     LIBCMTD:x10fout.obj
 0002:0001784c       ??_C@_05DNEBIAHO@1?$CDINF?$AA@ 004d384c     LIBCMTD:x10fout.obj
 0002:00017858       ??_C@_1EG@MCFPJJEM@?$AAs?$AAt?$AAr?$AAc?$AAp?$AAy?$AA_?$AAs?$AA?$CI?$AAf?$AAo?$AAs?$AA?9?$AA?$DO?$AAm?$AAa?$AAn?$AA?0?$AA?5?$AA2?$AA1?$AA?$CL?$AA1?$AA?0?$AA?5?$AA?$CC?$AA1?$AA?$CD?$AAQ?$AAN?$AAA?$AAN@ 004d3858     LIBCMTD:x10fout.obj
 0002:000178a0       ??_C@_06IMKFLFPG@1?$CDQNAN?$AA@ 004d38a0     LIBCMTD:x10fout.obj
 0002:000178a8       ?commonFlags@?1??_control87@@9@9 004d38a8     LIBCMTD:ieee87.obj
 0002:000178b0       ??_C@_1FG@DINMPAPJ@?$AAf?$AA?3?$AA?2?$AAd?$AAd?$AA?2?$AAv?$AAc?$AAt?$AAo?$AAo?$AAl?$AAs?$AA?2?$AAc?$AAr?$AAt?$AA?2?$AAf?$AAp?$AAw?$AA3?$AA2?$AA?2?$AAt?$AAr?$AAa?$AAn?$AA?2?$AAi?$AA3?$AA8@ 004d38b0     LIBCMTD:ieee87.obj
 0002:00017908       ??_C@_1BO@OFDNCLL@?$AA_?$AAs?$AAe?$AAt?$AA_?$AAc?$AAo?$AAn?$AAt?$AAr?$AAo?$AAl?$AAf?$AAp?$AA?$AA@ 004d3908     LIBCMTD:ieee87.obj
 0002:00017928       ??_C@_1GO@OKJGOMCB@?$AA_?$AAc?$AAo?$AAn?$AAt?$AAr?$AAo?$AAl?$AAf?$AAp?$AA_?$AAs?$AA?$CI?$AA?$CI?$AA?$CI?$AAv?$AAo?$AAi?$AAd?$AA?5?$AA?$CK?$AA?$CJ?$AA0?$AA?$CJ?$AA?0?$AA?5?$AAn?$AAe?$AAw?$AAc?$AAt?$AAr@ 004d3928     LIBCMTD:ieee87.obj
 0002:00017998       ??_C@_0CJ@NMHEPMFE@f?3?2dd?2vctools?2crt?2crtw32?2misc?2wt@ 004d3998     LIBCMTD:wtombenv.obj
 0002:000179c8       ??_C@_1FK@CAOBGJOM@?$AAf?$AA?3?$AA?2?$AAd?$AAd?$AA?2?$AAv?$AAc?$AAt?$AAo?$AAo?$AAl?$AAs?$AA?2?$AAc?$AAr?$AAt?$AA?2?$AAc?$AAr?$AAt?$AAw?$AA3?$AA2?$AA?2?$AAm?$AAb?$AAs?$AAt?$AAr?$AAi?$AAn@ 004d39c8     LIBCMTD:mbsnbico.obj
 0002:00017a24       ??_C@_1BM@FKNNDAHH@?$AA_?$AAm?$AAb?$AAs?$AAn?$AAb?$AAi?$AAc?$AAo?$AAl?$AAl?$AA_?$AAl?$AA?$AA@ 004d3a24     LIBCMTD:mbsnbico.obj
 0002:00017a40       ??_C@_1BK@CMPKHPEC@?$AAn?$AA?5?$AA?$DM?$AA?$DN?$AA?5?$AAI?$AAN?$AAT?$AA_?$AAM?$AAA?$AAX?$AA?$AA@ 004d3a40     LIBCMTD:mbsnbico.obj
 0002:00017a60       ??_C@_1FC@BHNGAOAE@?$AAf?$AA?3?$AA?2?$AAd?$AAd?$AA?2?$AAv?$AAc?$AAt?$AAo?$AAo?$AAl?$AAs?$AA?2?$AAc?$AAr?$AAt?$AA?2?$AAc?$AAr?$AAt?$AAw?$AA3?$AA2?$AA?2?$AAm?$AAi?$AAs?$AAc?$AA?2?$AAd?$AAb@ 004d3a60     LIBCMTD:dbgdel.obj
 0002:00017ab8       ??_7type_info@@6B@         004d3ab8     LIBCMTD:typinfo.obj
 0002:00017ac0       ??_7exception@std@@6B@     004d3ac0     LIBCMTD:stdexcpt.obj
 0002:00017ac8       ??_C@_0BC@EOODALEL@Unknown?5exception?$AA@ 004d3ac8     LIBCMTD:stdexcpt.obj
 0002:00017ae0       ??_7bad_cast@std@@6B@      004d3ae0     LIBCMTD:stdexcpt.obj
 0002:00017aec       ??_7bad_typeid@std@@6B@    004d3aec     LIBCMTD:stdexcpt.obj
 0002:00017af8       ??_7__non_rtti_object@std@@6B@ 004d3af8     LIBCMTD:stdexcpt.obj
 0002:00017b20       ??_C@_1FE@GDPLAOMM@?$AAf?$AA?3?$AA?2?$AAd?$AAd?$AA?2?$AAv?$AAc?$AAt?$AAo?$AAo?$AAl?$AAs?$AA?2?$AAc?$AAr?$AAt?$AA?2?$AAc?$AAr?$AAt?$AAw?$AA3?$AA2?$AA?2?$AAc?$AAo?$AAn?$AAv?$AAe?$AAr?$AAt@ 004d3b20     LIBCMTD:wcstol.obj
 0002:00017b74       ??_C@_1BA@PCFLFGNC@?$AAw?$AAc?$AAs?$AAt?$AAo?$AAx?$AAl?$AA?$AA@ 004d3b74     LIBCMTD:wcstol.obj
 0002:00017b88       ??_C@_1FE@IEEFCKDG@?$AAf?$AA?3?$AA?2?$AAd?$AAd?$AA?2?$AAv?$AAc?$AAt?$AAo?$AAo?$AAl?$AAs?$AA?2?$AAc?$AAr?$AAt?$AA?2?$AAc?$AAr?$AAt?$AAw?$AA3?$AA2?$AA?2?$AAc?$AAo?$AAn?$AAv?$AAe?$AAr?$AAt@ 004d3b88     LIBCMTD:wcstoq.obj
 0002:00017bdc       ??_C@_1BA@FACINJJA@?$AAw?$AAc?$AAs?$AAt?$AAo?$AAx?$AAq?$AA?$AA@ 004d3bdc     LIBCMTD:wcstoq.obj
 0002:00017bec       ??_C@_0CK@CEJCOKEF@f?3?2dd?2vctools?2crt?2crtw32?2convert@ 004d3bec     LIBCMTD:wcstoq.obj
 0002:00017c18       ??_C@_1BK@GDEKGMNC@?$AA_?$AAw?$AAo?$AAu?$AAt?$AAp?$AAu?$AAt?$AA_?$AAp?$AA_?$AAl?$AA?$AA@ 004d3c18     LIBCMTD:woutputp.obj
 0002:00017c34       ??_C@_1BK@ONMFGLDB@?$AA_?$AAw?$AAo?$AAu?$AAt?$AAp?$AAu?$AAt?$AA_?$AAs?$AA_?$AAl?$AA?$AA@ 004d3c34     LIBCMTD:woutputs.obj
 0002:00017c50       ??_C@_1FA@MCFBMFHP@?$AAf?$AA?3?$AA?2?$AAd?$AAd?$AA?2?$AAv?$AAc?$AAt?$AAo?$AAo?$AAl?$AAs?$AA?2?$AAc?$AAr?$AAt?$AA?2?$AAc?$AAr?$AAt?$AAw?$AA3?$AA2?$AA?2?$AAs?$AAt?$AAd?$AAi?$AAo?$AA?2?$AAf@ 004d3c50     LIBCMTD:fputwc.obj
 0002:00017ca0       ??_C@_1O@HJNPHHHB@?$AAf?$AAp?$AAu?$AAt?$AAw?$AAc?$AA?$AA@ 004d3ca0     LIBCMTD:fputwc.obj
 0002:00017cb0       ??_C@_1FA@FLOICDHO@?$AAf?$AA?3?$AA?2?$AAd?$AAd?$AA?2?$AAv?$AAc?$AAt?$AAo?$AAo?$AAl?$AAs?$AA?2?$AAc?$AAr?$AAt?$AA?2?$AAc?$AAr?$AAt?$AAw?$AA3?$AA2?$AA?2?$AAl?$AAo?$AAw?$AAi?$AAo?$AA?2?$AAc@ 004d3cb0     LIBCMTD:chsize.obj
 0002:00017d00       ??_C@_1BE@MAFDNGED@?$AA_?$AAc?$AAh?$AAs?$AAi?$AAz?$AAe?$AA_?$AAs?$AA?$AA@ 004d3d00     LIBCMTD:chsize.obj
 0002:00017d14       ??_C@_1BI@GALBKMKE@?$AA?$CI?$AAs?$AAi?$AAz?$AAe?$AA?5?$AA?$DO?$AA?$DN?$AA?5?$AA0?$AA?$CJ?$AA?$AA@ 004d3d14     LIBCMTD:chsize.obj
 0002:00017d30       ??_C@_1OA@HGPJIFPM@?$AA?$CI?$AA?$CI?$AAm?$AAo?$AAd?$AAe?$AA?5?$AA?$DN?$AA?$DN?$AA?5?$AA_?$AAO?$AA_?$AAT?$AAE?$AAX?$AAT?$AA?$CJ?$AA?5?$AA?$HM?$AA?$HM?$AA?5?$AA?$CI?$AAm?$AAo?$AAd?$AAe?$AA?5?$AA?$DN?$AA?$DN?$AA?5?$AA_@ 004d3d30     LIBCMTD:setmode.obj
 0002:00017e10       ??_C@_1FC@HBDIADHE@?$AAf?$AA?3?$AA?2?$AAd?$AAd?$AA?2?$AAv?$AAc?$AAt?$AAo?$AAo?$AAl?$AAs?$AA?2?$AAc?$AAr?$AAt?$AA?2?$AAc?$AAr?$AAt?$AAw?$AA3?$AA2?$AA?2?$AAl?$AAo?$AAw?$AAi?$AAo?$AA?2?$AAs@ 004d3e10     LIBCMTD:setmode.obj
 0002:00017e64       ??_C@_1BC@JBGGJDCM@?$AA_?$AAs?$AAe?$AAt?$AAm?$AAo?$AAd?$AAe?$AA?$AA@ 004d3e64     LIBCMTD:setmode.obj
 0002:00017e78       ??_C@_1IC@NDCJMLB@?$AA?$CI?$AA?$CI?$AAm?$AAo?$AAd?$AAe?$AA?5?$AA?$DN?$AA?$DN?$AA?5?$AA_?$AAO?$AA_?$AAT?$AAE?$AAX?$AAT?$AA?$CJ?$AA?5?$AA?$HM?$AA?$HM?$AA?5?$AA?$CI?$AAm?$AAo?$AAd?$AAe?$AA?5?$AA?$DN?$AA?$DN?$AA?5?$AA_@ 004d3e78     LIBCMTD:setmode.obj
 0002:00017efc       ??_C@_1BG@IEEHLOCL@?$AA_?$AAs?$AAe?$AAt?$AA_?$AAf?$AAm?$AAo?$AAd?$AAe?$AA?$AA@ 004d3efc     LIBCMTD:setmode.obj
 0002:00017f14       ??_C@_1CA@GPIGPPFN@?$AA?$CI?$AAp?$AAM?$AAo?$AAd?$AAe?$AA?5?$AA?$CB?$AA?$DN?$AA?5?$AAN?$AAU?$AAL?$AAL?$AA?$CJ?$AA?$AA@ 004d3f14     LIBCMTD:setmode.obj
 0002:00017f34       ??_C@_1BG@CKGMPOFH@?$AA_?$AAg?$AAe?$AAt?$AA_?$AAf?$AAm?$AAo?$AAd?$AAe?$AA?$AA@ 004d3f34     LIBCMTD:setmode.obj
 0002:00017f4c       ??_C@_1CA@LMBEKBDN@?$AAp?$AAo?$AAp?$AAt?$AAi?$AAo?$AAn?$AA?5?$AA?$CB?$AA?$DN?$AA?5?$AAN?$AAU?$AAL?$AAL?$AA?$AA@ 004d3f4c     LIBCMTD:setenv.obj
 0002:00017f70       ??_C@_1EO@LLEMHCMB@?$AAf?$AA?3?$AA?2?$AAd?$AAd?$AA?2?$AAv?$AAc?$AAt?$AAo?$AAo?$AAl?$AAs?$AA?2?$AAc?$AAr?$AAt?$AA?2?$AAc?$AAr?$AAt?$AAw?$AA3?$AA2?$AA?2?$AAm?$AAi?$AAs?$AAc?$AA?2?$AAs?$AAe@ 004d3f70     LIBCMTD:setenv.obj
 0002:00017fc0       ??_C@_1BI@CDAFOAAL@?$AA_?$AA_?$AAc?$AAr?$AAt?$AAs?$AAe?$AAt?$AAe?$AAn?$AAv?$AA?$AA@ 004d3fc0     LIBCMTD:setenv.obj
 0002:00017fd8       ??_C@_1DE@EEHFNNGH@?$AAe?$AAq?$AAu?$AAa?$AAl?$AA?5?$AA?9?$AA?5?$AAo?$AAp?$AAt?$AAi?$AAo?$AAn?$AA?5?$AA?$DM?$AA?5?$AA_?$AAM?$AAA?$AAX?$AA_?$AAE?$AAN?$AAV?$AA?$AA@ 004d3fd8     LIBCMTD:setenv.obj
 0002:00018010       ??_C@_1FC@EEJIEIDF@?$AA_?$AAt?$AAc?$AAs?$AAn?$AAl?$AAe?$AAn?$AA?$CI?$AAe?$AAq?$AAu?$AAa?$AAl?$AA?5?$AA?$CL?$AA?5?$AA1?$AA?0?$AA?5?$AA_?$AAM?$AAA?$AAX?$AA_?$AAE?$AAN?$AAV?$AA?$CJ?$AA?5?$AA?$DM?$AA?5@ 004d4010     LIBCMTD:setenv.obj
 0002:00018064       ??_C@_0CH@OODIAFML@f?3?2dd?2vctools?2crt?2crtw32?2misc?2se@ 004d4064     LIBCMTD:setenv.obj
 0002:00018090       ??_C@_1EI@GHDNAPMG@?$AA?$CI?$AA?$CC?$AAC?$AAR?$AAT?$AA?5?$AAL?$AAo?$AAg?$AAi?$AAc?$AA?5?$AAe?$AAr?$AAr?$AAo?$AAr?$AA?5?$AAd?$AAu?$AAr?$AAi?$AAn?$AAg?$AA?5?$AAs?$AAe?$AAt?$AAe?$AAn?$AAv?$AA?$CC@ 004d4090     LIBCMTD:setenv.obj
 0002:000180d8       ??_C@_1FG@OKIAKKPK@?$AAs?$AAt?$AAr?$AAc?$AAp?$AAy?$AA_?$AAs?$AA?$CI?$AAn?$AAa?$AAm?$AAe?$AA?0?$AA?5?$AAs?$AAt?$AAr?$AAl?$AAe?$AAn?$AA?$CI?$AAo?$AAp?$AAt?$AAi?$AAo?$AAn?$AA?$CJ?$AA?5?$AA?$CL?$AA?5@ 004d40d8     LIBCMTD:setenv.obj
 0002:00018130       ??_C@_1BK@ECKIJLPM@?$AAc?$AAo?$AAp?$AAy?$AA_?$AAe?$AAn?$AAv?$AAi?$AAr?$AAo?$AAn?$AA?$AA@ 004d4130     LIBCMTD:setenv.obj
 0002:00018150       ??_C@_1FK@DNFLNPD@?$AAs?$AAt?$AAr?$AAc?$AAp?$AAy?$AA_?$AAs?$AA?$CI?$AA?$CK?$AAn?$AAe?$AAw?$AAe?$AAn?$AAv?$AAp?$AAt?$AAr?$AA?0?$AA?5?$AAe?$AAn?$AAv?$AAp?$AAt?$AAr?$AAS?$AAi?$AAz?$AAe?$AA?0@ 004d4150     LIBCMTD:setenv.obj
 0002:000181ac       ??_C@_1CC@ICKKAGJA@?$AA_?$AAs?$AAt?$AAr?$AAi?$AAn?$AAg?$AA1?$AA?5?$AA?$CB?$AA?$DN?$AA?5?$AAN?$AAU?$AAL?$AAL?$AA?$AA@ 004d41ac     LIBCMTD:strnicol.obj
 0002:000181d0       ??_C@_1FG@PLEDDDHB@?$AAf?$AA?3?$AA?2?$AAd?$AAd?$AA?2?$AAv?$AAc?$AAt?$AAo?$AAo?$AAl?$AAs?$AA?2?$AAc?$AAr?$AAt?$AA?2?$AAc?$AAr?$AAt?$AAw?$AA3?$AA2?$AA?2?$AAs?$AAt?$AAr?$AAi?$AAn?$AAg?$AA?2@ 004d41d0     LIBCMTD:strnicol.obj
 0002:00018228       ??_C@_1BK@IOJEBPLP@?$AA_?$AAs?$AAt?$AAr?$AAn?$AAi?$AAc?$AAo?$AAl?$AAl?$AA_?$AAl?$AA?$AA@ 004d4228     LIBCMTD:strnicol.obj
 0002:00018244       ??_C@_1CC@CNADELFK@?$AA_?$AAs?$AAt?$AAr?$AAi?$AAn?$AAg?$AA2?$AA?5?$AA?$CB?$AA?$DN?$AA?5?$AAN?$AAU?$AAL?$AAL?$AA?$AA@ 004d4244     LIBCMTD:strnicol.obj
 0002:00018268       ??_C@_1HK@ELDMAMK@?$AAc?$AAc?$AAh?$AAC?$AAo?$AAu?$AAn?$AAt?$AA1?$AA?$DN?$AA?$DN?$AA0?$AA?5?$AA?$CG?$AA?$CG?$AA?5?$AAc?$AAc?$AAh?$AAC?$AAo?$AAu?$AAn?$AAt?$AA2?$AA?$DN?$AA?$DN?$AA1?$AA?5?$AA?$HM?$AA?$HM?$AA?5@ 004d4268     LIBCMTD:a_cmp.obj
 0002:000182e8       ??_C@_1EM@FKHOBKLM@?$AAf?$AA?3?$AA?2?$AAd?$AAd?$AA?2?$AAv?$AAc?$AAt?$AAo?$AAo?$AAl?$AAs?$AA?2?$AAc?$AAr?$AAt?$AA?2?$AAc?$AAr?$AAt?$AAw?$AA3?$AA2?$AA?2?$AAm?$AAi?$AAs?$AAc?$AA?2?$AAa?$AA_@ 004d42e8     LIBCMTD:a_cmp.obj
 0002:00018334       ??_C@_1CK@GELGGBDK@?$AAp?$AAN?$AAo?$AAd?$AAe?$AA?9?$AA?$DO?$AA_?$AAN?$AAe?$AAx?$AAt?$AA?5?$AA?$CB?$AA?$DN?$AA?5?$AAN?$AAU?$AAL?$AAL?$AA?$AA@ 004d4334     LIBCMTD:typname.obj
 0002:00018360       ??_C@_1FA@KAJOMDBA@?$AAf?$AA?3?$AA?2?$AAd?$AAd?$AA?2?$AAv?$AAc?$AAt?$AAo?$AAo?$AAl?$AAs?$AA?2?$AAc?$AAr?$AAt?$AA?2?$AAc?$AAr?$AAt?$AAw?$AA3?$AA2?$AA?2?$AAe?$AAh?$AA?2?$AAt?$AAy?$AAp?$AAn@ 004d4360     LIBCMTD:typname.obj
 0002:000183b0       ??_C@_1CM@OOICDMK@?$AAt?$AAy?$AAp?$AAe?$AA_?$AAi?$AAn?$AAf?$AAo?$AA?3?$AA?3?$AA_?$AAN?$AAa?$AAm?$AAe?$AA_?$AAb?$AAa?$AAs?$AAe?$AA?$AA@ 004d43b0     LIBCMTD:typname.obj
 0002:000183e0       ??_C@_1JK@NAFNEPGC@?$AAs?$AAt?$AAr?$AAc?$AAp?$AAy?$AA_?$AAs?$AA?5?$AA?$CI?$AA?$CI?$AAc?$AAh?$AAa?$AAr?$AA?5?$AA?$CK?$AA?$CJ?$AA?$CI?$AA?$CI?$AAt?$AAy?$AAp?$AAe?$AA_?$AAi?$AAn?$AAf?$AAo?$AA?5?$AA?$CK?$AA?$CJ@ 004d43e0     LIBCMTD:typname.obj
 0002:0001847c       ??_C@_1DO@OJJLFJPE@?$AAt?$AAy?$AAp?$AAe?$AA_?$AAi?$AAn?$AAf?$AAo?$AA?3?$AA?3?$AA_?$AAN?$AAa?$AAm?$AAe?$AA_?$AAb?$AAa?$AAs?$AAe?$AA_?$AAi?$AAn?$AAt?$AAe?$AAr?$AAn?$AAa?$AAl?$AA?$AA@ 004d447c     LIBCMTD:typname.obj
 0002:000184c0       ??_C@_1GI@EAJKJPED@?$AAs?$AAt?$AAr?$AAc?$AAp?$AAy?$AA_?$AAs?$AA?5?$AA?$CI?$AAp?$AAT?$AAm?$AAp?$AAT?$AAy?$AAp?$AAe?$AAN?$AAa?$AAm?$AAe?$AA?0?$AA?5?$AAl?$AAe?$AAn?$AA?$CL?$AA2?$AA?0?$AA?5?$AA?$CI@ 004d44c0     LIBCMTD:typname.obj
 0002:00018528       ??_C@_1FE@LABOBFHJ@?$AAf?$AA?3?$AA?2?$AAd?$AAd?$AA?2?$AAv?$AAc?$AAt?$AAo?$AAo?$AAl?$AAs?$AA?2?$AAc?$AAr?$AAt?$AA?2?$AAc?$AAr?$AAt?$AAw?$AA3?$AA2?$AA?2?$AAc?$AAo?$AAn?$AAv?$AAe?$AAr?$AAt@ 004d4528     LIBCMTD:wcstod.obj
 0002:0001857c       ??_C@_1BE@CIGDJHAJ@?$AA_?$AAw?$AAc?$AAs?$AAt?$AAo?$AAd?$AA_?$AAl?$AA?$AA@ 004d457c     LIBCMTD:wcstod.obj
 0002:00018590       ??_C@_1FG@DJMLHKLH@?$AAf?$AA?3?$AA?2?$AAd?$AAd?$AA?2?$AAv?$AAc?$AAt?$AAo?$AAo?$AAl?$AAs?$AA?2?$AAc?$AAr?$AAt?$AA?2?$AAc?$AAr?$AAt?$AAw?$AA3?$AA2?$AA?2?$AAm?$AAb?$AAs?$AAt?$AAr?$AAi?$AAn@ 004d4590     LIBCMTD:mbschr.obj
 0002:000185e8       ??_C@_1BE@JKKFLIKJ@?$AA_?$AAm?$AAb?$AAs?$AAc?$AAh?$AAr?$AA_?$AAl?$AA?$AA@ 004d45e8     LIBCMTD:mbschr.obj
 0002:0001878c       ??_C@_08EHJDFFNH@__based?$CI?$AA@ 004d478c     LIBCMTD:undname.obj
 0002:00018798       ??_C@_07KOLFKCDI@__cdecl?$AA@ 004d4798     LIBCMTD:undname.obj
 0002:000187a0       ??_C@_08GHMPAG@__pascal?$AA@ 004d47a0     LIBCMTD:undname.obj
 0002:000187ac       ??_C@_09IFJBGAPI@__stdcall?$AA@ 004d47ac     LIBCMTD:undname.obj
 0002:000187b8       ??_C@_0L@NPHFGOKO@__thiscall?$AA@ 004d47b8     LIBCMTD:undname.obj
 0002:000187c4       ??_C@_0L@JMKHOMEK@__fastcall?$AA@ 004d47c4     LIBCMTD:undname.obj
 0002:000187d0       ??_C@_0N@BCKKPABJ@__vectorcall?$AA@ 004d47d0     LIBCMTD:undname.obj
 0002:000187e0       ??_C@_09HIJEGCPM@__clrcall?$AA@ 004d47e0     LIBCMTD:undname.obj
 0002:000187ec       ??_C@_06GHPCKEAG@__eabi?$AA@ 004d47ec     LIBCMTD:undname.obj
 0002:000187f4       ??_C@_07JOMMBBKO@__ptr64?$AA@ 004d47f4     LIBCMTD:undname.obj
 0002:000187fc       ??_C@_0L@PILCLIHE@__restrict?$AA@ 004d47fc     LIBCMTD:undname.obj
 0002:00018808       ??_C@_0M@GFIIJFMG@__unaligned?$AA@ 004d4808     LIBCMTD:undname.obj
 0002:00018814       ??_C@_09DHDLOLLB@restrict?$CI?$AA@ 004d4814     LIBCMTD:undname.obj
 0002:00018820       ??_C@_04NIHEBCM@?5new?$AA@ 004d4820     LIBCMTD:undname.obj
 0002:00018828       ??_C@_07FPCDHGMM@?5delete?$AA@ 004d4828     LIBCMTD:undname.obj
 0002:00018830       ??_C@_01NEMOKFLO@?$DN?$AA@ 004d4830     LIBCMTD:undname.obj
 0002:00018834       ??_C@_02GPIOPFAK@?$DO?$DO?$AA@ 004d4834     LIBCMTD:undname.obj
 0002:00018838       ??_C@_02FODMEDOG@?$DM?$DM?$AA@ 004d4838     LIBCMTD:undname.obj
 0002:0001883c       ??_C@_01DCLJPIOD@?$CB?$AA@ 004d483c     LIBCMTD:undname.obj
 0002:00018840       ??_C@_02EGOFBIJA@?$DN?$DN?$AA@ 004d4840     LIBCMTD:undname.obj
 0002:00018844       ??_C@_02FDNJECIE@?$CB?$DN?$AA@ 004d4844     LIBCMTD:undname.obj
 0002:00018848       ??_C@_02GPECMEKF@?$FL?$FN?$AA@ 004d4848     LIBCMTD:undname.obj
 0002:0001884c       ??_C@_08LHJFAFGD@operator?$AA@ 004d484c     LIBCMTD:undname.obj
 0002:00018858       ??_C@_02HBOOOICD@?9?$DO?$AA@ 004d4858     LIBCMTD:undname.obj
 0002:0001885c       ??_C@_01NBENCBCI@?$CK?$AA@ 004d485c     LIBCMTD:undname.obj
 0002:00018860       ??_C@_02ECNGHCIF@?$CL?$CL?$AA@ 004d4860     LIBCMTD:undname.obj
 0002:00018864       ??_C@_02BAABKJLB@?9?9?$AA@ 004d4864     LIBCMTD:undname.obj
 0002:00018868       ??_C@_01JOAMLHOP@?9?$AA@   004d4868     LIBCMTD:undname.obj
 0002:0001886c       ??_C@_01MIFGBAGJ@?$CL?$AA@ 004d486c     LIBCMTD:undname.obj
 0002:00018870       ??_C@_01HNPIGOCE@?$CG?$AA@ 004d4870     LIBCMTD:undname.obj
 0002:00018874       ??_C@_03MNHNFDLC@?9?$DO?$CK?$AA@ 004d4874     LIBCMTD:undname.obj
 0002:00018878       ??_C@_01KMDKNFGN@?1?$AA@   004d4878     LIBCMTD:undname.obj
 0002:0001887c       ??_C@_01FGNFDNOH@?$CF?$AA@ 004d487c     LIBCMTD:undname.obj
 0002:00018880       ??_C@_01MNNFJEPP@?$DM?$AA@ 004d4880     LIBCMTD:undname.obj
 0002:00018884       ??_C@_02EHCHHCKH@?$DM?$DN?$AA@ 004d4884     LIBCMTD:undname.obj
 0002:00018888       ??_C@_01PPODPGHN@?$DO?$AA@ 004d4888     LIBCMTD:undname.obj
 0002:0001888c       ??_C@_02EEKDKGMJ@?$DO?$DN?$AA@ 004d488c     LIBCMTD:undname.obj
 0002:00018890       ??_C@_02HCKGKOFO@?$CI?$CJ?$AA@ 004d4890     LIBCMTD:undname.obj
 0002:00018894       ??_C@_01PJKLJHI@?$HO?$AA@  004d4894     LIBCMTD:undname.obj
 0002:00018898       ??_C@_01JKBOJNNK@?$FO?$AA@ 004d4898     LIBCMTD:undname.obj
 0002:0001889c       ??_C@_01DNKMNLPK@?$HM?$AA@ 004d489c     LIBCMTD:undname.obj
 0002:000188a0       ??_C@_02PPKAJPJL@?$CG?$CG?$AA@ 004d48a0     LIBCMTD:undname.obj
 0002:000188a4       ??_C@_02NONPIBCD@?$HM?$HM?$AA@ 004d48a4     LIBCMTD:undname.obj
 0002:000188a8       ??_C@_02FPIMKNGF@?$CK?$DN?$AA@ 004d48a8     LIBCMTD:undname.obj
 0002:000188ac       ??_C@_02FOEOMHFC@?$CL?$DN?$AA@ 004d48ac     LIBCMTD:undname.obj
 0002:000188b0       ??_C@_02FKMDLLOA@?9?$DN?$AA@ 004d48b0     LIBCMTD:undname.obj
 0002:000188b4       ??_C@_02FJEHGPIO@?1?$DN?$AA@ 004d48b4     LIBCMTD:undname.obj
 0002:000188b8       ??_C@_02FENAOKFI@?$CF?$DN?$AA@ 004d48b8     LIBCMTD:undname.obj
 0002:000188bc       ??_C@_03IKFCCPFF@?$DO?$DO?$DN?$AA@ 004d48bc     LIBCMTD:undname.obj
 0002:000188c0       ??_C@_03CDNPDDLA@?$DM?$DM?$DN?$AA@ 004d48c0     LIBCMTD:undname.obj
 0002:000188c4       ??_C@_02FGJGFEAB@?$CG?$DN?$AA@ 004d48c4     LIBCMTD:undname.obj
 0002:000188c8       ??_C@_02DHLNPPGH@?$HM?$DN?$AA@ 004d48c8     LIBCMTD:undname.obj
 0002:000188cc       ??_C@_02MHEGNOJ@?$FO?$DN?$AA@ 004d48cc     LIBCMTD:undname.obj
 0002:000188d0       ??_C@_09IFPLHPGF@?$GAvftable?8?$AA@ 004d48d0     LIBCMTD:undname.obj
 0002:000188dc       ??_C@_09BLBHBJP@?$GAvbtable?8?$AA@ 004d48dc     LIBCMTD:undname.obj
 0002:000188e8       ??_C@_07FEEIOKP@?$GAvcall?8?$AA@ 004d48e8     LIBCMTD:undname.obj
 0002:000188f0       ??_C@_08LLFFHHDJ@?$GAtypeof?8?$AA@ 004d48f0     LIBCMTD:undname.obj
 0002:000188fc       ??_C@_0BF@KDPPACIK@?$GAlocal?5static?5guard?8?$AA@ 004d48fc     LIBCMTD:undname.obj
 0002:00018914       ??_C@_08OBABFOLI@?$GAstring?8?$AA@ 004d4914     LIBCMTD:undname.obj
 0002:00018920       ??_C@_0BD@JDLKDPAB@?$GAvbase?5destructor?8?$AA@ 004d4920     LIBCMTD:undname.obj
 0002:00018934       ??_C@_0BN@DEGPLNFK@?$GAvector?5deleting?5destructor?8?$AA@ 004d4934     LIBCMTD:undname.obj
 0002:00018954       ??_C@_0BO@OBMKPJIG@?$GAdefault?5constructor?5closure?8?$AA@ 004d4954     LIBCMTD:undname.obj
 0002:00018974       ??_C@_0BN@IMDCHIKM@?$GAscalar?5deleting?5destructor?8?$AA@ 004d4974     LIBCMTD:undname.obj
 0002:00018994       ??_C@_0BO@PFGOCPJJ@?$GAvector?5constructor?5iterator?8?$AA@ 004d4994     LIBCMTD:undname.obj
 0002:000189b4       ??_C@_0BN@LFPFMEDL@?$GAvector?5destructor?5iterator?8?$AA@ 004d49b4     LIBCMTD:undname.obj
 0002:000189d4       ??_C@_0CE@IKBNEHA@?$GAvector?5vbase?5constructor?5iterat@ 004d49d4     LIBCMTD:undname.obj
 0002:000189f8       ??_C@_0BL@NILFHHPC@?$GAvirtual?5displacement?5map?8?$AA@ 004d49f8     LIBCMTD:undname.obj
 0002:00018a14       ??_C@_0CB@JONCMFFK@?$GAeh?5vector?5constructor?5iterator?8@ 004d4a14     LIBCMTD:undname.obj
 0002:00018a38       ??_C@_0CA@GCEOPDGL@?$GAeh?5vector?5destructor?5iterator?8?$AA@ 004d4a38     LIBCMTD:undname.obj
 0002:00018a58       ??_C@_0CH@OOJPLCPH@?$GAeh?5vector?5vbase?5constructor?5ite@ 004d4a58     LIBCMTD:undname.obj
 0002:00018a80       ??_C@_0BL@LLKPOHJI@?$GAcopy?5constructor?5closure?8?$AA@ 004d4a80     LIBCMTD:undname.obj
 0002:00018a9c       ??_C@_0BA@KBCDOMBN@?$GAudt?5returning?8?$AA@ 004d4a9c     LIBCMTD:undname.obj
 0002:00018aac       ??_C@_03KLGMFNMG@?$GAEH?$AA@ 004d4aac     LIBCMTD:undname.obj
 0002:00018ab0       ??_C@_05KHLCHHI@?$GARTTI?$AA@ 004d4ab0     LIBCMTD:undname.obj
 0002:00018ab8       ??_C@_0BA@KKLDJDLB@?$GAlocal?5vftable?8?$AA@ 004d4ab8     LIBCMTD:undname.obj
 0002:00018ac8       ??_C@_0CE@IIHCMGGL@?$GAlocal?5vftable?5constructor?5closu@ 004d4ac8     LIBCMTD:undname.obj
 0002:00018aec       ??_C@_06FHBGPFGH@?5new?$FL?$FN?$AA@ 004d4aec     LIBCMTD:undname.obj
 0002:00018af4       ??_C@_09LBNFPBCA@?5delete?$FL?$FN?$AA@ 004d4af4     LIBCMTD:undname.obj
 0002:00018b00       ??_C@_0P@HJKNJFNN@?$GAomni?5callsig?8?$AA@ 004d4b00     LIBCMTD:undname.obj
 0002:00018b10       ??_C@_0BL@CNOONJFP@?$GAplacement?5delete?5closure?8?$AA@ 004d4b10     LIBCMTD:undname.obj
 0002:00018b2c       ??_C@_0BN@CKNJLHMB@?$GAplacement?5delete?$FL?$FN?5closure?8?$AA@ 004d4b2c     LIBCMTD:undname.obj
 0002:00018b4c       ??_C@_0CG@CFDHKGGD@?$GAmanaged?5vector?5constructor?5iter@ 004d4b4c     LIBCMTD:undname.obj
 0002:00018b74       ??_C@_0CF@IMGKMJNO@?$GAmanaged?5vector?5destructor?5itera@ 004d4b74     LIBCMTD:undname.obj
 0002:00018b9c       ??_C@_0CG@HLDDJMAG@?$GAeh?5vector?5copy?5constructor?5iter@ 004d4b9c     LIBCMTD:undname.obj
 0002:00018bc4       ??_C@_0CM@FCBBDIGB@?$GAeh?5vector?5vbase?5copy?5constructo@ 004d4bc4     LIBCMTD:undname.obj
 0002:00018bf0       ??_C@_0BL@CLIPGLGB@?$GAdynamic?5initializer?5for?5?8?$AA@ 004d4bf0     LIBCMTD:undname.obj
 0002:00018c0c       ??_C@_0CB@PDBIFEP@?$GAdynamic?5atexit?5destructor?5for?5?8@ 004d4c0c     LIBCMTD:undname.obj
 0002:00018c30       ??_C@_0CD@CGAJBKEJ@?$GAvector?5copy?5constructor?5iterato@ 004d4c30     LIBCMTD:undname.obj
 0002:00018c54       ??_C@_0CJ@GJELGAMM@?$GAvector?5vbase?5copy?5constructor?5i@ 004d4c54     LIBCMTD:undname.obj
 0002:00018c80       ??_C@_0CL@FGIJHLCE@?$GAmanaged?5vector?5copy?5constructor@ 004d4c80     LIBCMTD:undname.obj
 0002:00018cac       ??_C@_0BM@PMGGMLDN@?$GAlocal?5static?5thread?5guard?8?$AA@ 004d4cac     LIBCMTD:undname.obj
 0002:00018cc8       ??_C@_0BC@DAFEJGAK@?5Type?5Descriptor?8?$AA@ 004d4cc8     LIBCMTD:undname.obj
 0002:00018cdc       ??_C@_0BM@LDKODKLH@?5Base?5Class?5Descriptor?5at?5?$CI?$AA@ 004d4cdc     LIBCMTD:undname.obj
 0002:00018cf8       ??_C@_0BD@LGICGFMM@?5Base?5Class?5Array?8?$AA@ 004d4cf8     LIBCMTD:undname.obj
 0002:00018d0c       ??_C@_0BN@MECKDCOJ@?5Class?5Hierarchy?5Descriptor?8?$AA@ 004d4d0c     LIBCMTD:undname.obj
 0002:00018d2c       ??_C@_0BK@CFCOFLF@?5Complete?5Object?5Locator?8?$AA@ 004d4d2c     LIBCMTD:undname.obj
 0002:00018d48       ??_C@_04HEJADOOB@CV?3?5?$AA@ 004d4d48     LIBCMTD:undname.obj
 0002:00018d50       ??_C@_02MOLJINC@?3?3?$AA@  004d4d50     LIBCMTD:undname.obj
 0002:00018d54       ??_C@_0BE@JAEOCHPE@template?9parameter?9?$AA@ 004d4d54     LIBCMTD:undname.obj
 0002:00018d68       ??_C@_0O@KHGCOMHP@generic?9type?9?$AA@ 004d4d68     LIBCMTD:undname.obj
 0002:00018d78       ??_C@_01NLNLIGKH@?$GA?$AA@ 004d4d78     LIBCMTD:undname.obj
 0002:00018d7c       ??_C@_01GEODFPGF@?8?$AA@   004d4d7c     LIBCMTD:undname.obj
 0002:00018d80       ??_C@_0BG@JNJLAMPM@?$GAanonymous?5namespace?8?$AA@ 004d4d80     LIBCMTD:undname.obj
 0002:00018d98       ??_C@_02OHHJMEON@?8?8?$AA@ 004d4d98     LIBCMTD:undname.obj
 0002:00018d9c       ??_C@_0BN@IBLMMFAP@?$GAnon?9type?9template?9parameter?$AA@ 004d4d9c     LIBCMTD:undname.obj
 0002:00018dbc       ??_C@_04GKJNKENE@void?$AA@ 004d4dbc     LIBCMTD:undname.obj
 0002:00018dc4       ??_C@_0BE@EODMJLIF@?$GAtemplate?9parameter?$AA@ 004d4dc4     LIBCMTD:undname.obj
 0002:00018dd8       ??_C@_04HIBGFPH@NULL?$AA@  004d4dd8     LIBCMTD:undname.obj
 0002:00018de0       ??_C@_03OPGICMGF@?$HN?8?5?$AA@ 004d4de0     LIBCMTD:undname.obj
 0002:00018de4       ??_C@_02IGFCGPIL@?$HN?8?$AA@ 004d4de4     LIBCMTD:undname.obj
 0002:00018de8       ??_C@_01CLKCMJKC@?5?$AA@   004d4de8     LIBCMTD:undname.obj
 0002:00018dec       ??_C@_0N@CBHHHENL@?$GAvtordispex?$HL?$AA@ 004d4dec     LIBCMTD:undname.obj
 0002:00018dfc       ??_C@_0L@GHPFDFH@?$GAvtordisp?$HL?$AA@ 004d4dfc     LIBCMTD:undname.obj
 0002:00018e08       ??_C@_0L@HNGCOGAE@?$GAadjustor?$HL?$AA@ 004d4e08     LIBCMTD:undname.obj
 0002:00018e14       ??_C@_0CB@KJDOOODE@?$GAlocal?5static?5destructor?5helper?8@ 004d4e14     LIBCMTD:undname.obj
 0002:00018e38       ??_C@_0DB@ILEFOCIJ@?$GAtemplate?5static?5data?5member?5con@ 004d4e38     LIBCMTD:undname.obj
 0002:00018e6c       ??_C@_0DA@HGFJFBBE@?$GAtemplate?5static?5data?5member?5des@ 004d4e6c     LIBCMTD:undname.obj
 0002:00018e9c       ??_C@_07PGOEDBHP@static?5?$AA@ 004d4e9c     LIBCMTD:undname.obj
 0002:00018ea4       ??_C@_08NIEOINHE@virtual?5?$AA@ 004d4ea4     LIBCMTD:undname.obj
 0002:00018eb0       ??_C@_09LAPHOOG@private?3?5?$AA@ 004d4eb0     LIBCMTD:undname.obj
 0002:00018ebc       ??_C@_0M@GAIFPFIP@protected?3?5?$AA@ 004d4ebc     LIBCMTD:undname.obj
 0002:00018ec8       ??_C@_08GPDDCMKI@public?3?5?$AA@ 004d4ec8     LIBCMTD:undname.obj
 0002:00018ed4       ??_C@_08KJLFOPNE@?$FLthunk?$FN?3?$AA@ 004d4ed4     LIBCMTD:undname.obj
 0002:00018ee0       ??_C@_0M@DHNBOJMP@extern?5?$CCC?$CC?5?$AA@ 004d4ee0     LIBCMTD:undname.obj
 0002:00018eec       ??_C@_02KCKGHPCA@?$CJ?5?$AA@ 004d4eec     LIBCMTD:undname.obj
 0002:00018ef0       ??_C@_05CIHEBHNO@char?5?$AA@ 004d4ef0     LIBCMTD:undname.obj
 0002:00018ef8       ??_C@_06EHJMALKF@short?5?$AA@ 004d4ef8     LIBCMTD:undname.obj
 0002:00018f00       ??_C@_04LAHKHJMA@int?5?$AA@ 004d4f00     LIBCMTD:undname.obj
 0002:00018f08       ??_C@_05CJIMAING@long?5?$AA@ 004d4f08     LIBCMTD:undname.obj
 0002:00018f10       ??_C@_09EBBEKKIH@unsigned?5?$AA@ 004d4f10     LIBCMTD:undname.obj
 0002:00018f1c       ??_C@_05BEFAKPML@void?5?$AA@ 004d4f1c     LIBCMTD:undname.obj
 0002:00018f24       ??_C@_08PABEKFH@volatile?$AA@ 004d4f24     LIBCMTD:undname.obj
 0002:00018f30       ??_C@_0P@GCOCNKDM@std?3?3nullptr_t?$AA@ 004d4f30     LIBCMTD:undname.obj
 0002:00018f40       ??_C@_0L@EGPHHEKN@?$DMellipsis?$DO?$AA@ 004d4f40     LIBCMTD:undname.obj
 0002:00018f4c       ??_C@_04EENFHACM@?0?4?4?4?$AA@ 004d4f4c     LIBCMTD:undname.obj
 0002:00018f54       ??_C@_0M@ELJOJFFH@?0?$DMellipsis?$DO?$AA@ 004d4f54     LIBCMTD:undname.obj
 0002:00018f60       ??_C@_07HDJPLPEK@?5throw?$CI?$AA@ 004d4f60     LIBCMTD:undname.obj
 0002:00018f68       ??_C@_03PBJBJNON@cpu?$AA@  004d4f68     LIBCMTD:undname.obj
 0002:00018f6c       ??_C@_03DCBBJBAA@amp?$AA@  004d4f6c     LIBCMTD:undname.obj
 0002:00018f70       ??_C@_02KEGNLNML@?0?5?$AA@ 004d4f70     LIBCMTD:undname.obj
 0002:00018f74       ??_C@_04ENMBGAPA@char?$AA@ 004d4f74     LIBCMTD:undname.obj
 0002:00018f7c       ??_C@_05BFKKPKCG@short?$AA@ 004d4f7c     LIBCMTD:undname.obj
 0002:00018f84       ??_C@_03JBIPMCLC@int?$AA@  004d4f84     LIBCMTD:undname.obj
 0002:00018f88       ??_C@_04GOKPGOLB@long?$AA@ 004d4f88     LIBCMTD:undname.obj
 0002:00018f90       ??_C@_05KNFBNCOH@float?$AA@ 004d4f90     LIBCMTD:undname.obj
 0002:00018f98       ??_C@_06BNJCAIGJ@double?$AA@ 004d4f98     LIBCMTD:undname.obj
 0002:00018fa0       ??_C@_04DDKJGDCM@bool?$AA@ 004d4fa0     LIBCMTD:undname.obj
 0002:00018fa8       ??_C@_06EBGKOKIG@__int8?$AA@ 004d4fa8     LIBCMTD:undname.obj
 0002:00018fb0       ??_C@_07ICFHOGAF@__int16?$AA@ 004d4fb0     LIBCMTD:undname.obj
 0002:00018fb8       ??_C@_07OFLPPHGP@__int32?$AA@ 004d4fb8     LIBCMTD:undname.obj
 0002:00018fc0       ??_C@_07LFCOJCAC@__int64?$AA@ 004d4fc0     LIBCMTD:undname.obj
 0002:00018fc8       ??_C@_08GAHOLHEO@__int128?$AA@ 004d4fc8     LIBCMTD:undname.obj
 0002:00018fd4       ??_C@_09EEKGDCPH@?$DMunknown?$DO?$AA@ 004d4fd4     LIBCMTD:undname.obj
 0002:00018fe0       ??_C@_07CLGGIAMF@wchar_t?$AA@ 004d4fe0     LIBCMTD:undname.obj
 0002:00018fe8       ??_C@_06GCICPBLB@__w64?5?$AA@ 004d4fe8     LIBCMTD:undname.obj
 0002:00018ff0       ??_C@_07NFANNNEC@UNKNOWN?$AA@ 004d4ff0     LIBCMTD:undname.obj
 0002:00018ff8       ??_C@_07EDHNAJHC@signed?5?$AA@ 004d4ff8     LIBCMTD:undname.obj
 0002:00019000       ??_C@_05BNCCCJPP@const?$AA@ 004d5000     LIBCMTD:undname.obj
 0002:00019008       ??_C@_09EFNPDFFP@?5volatile?$AA@ 004d5008     LIBCMTD:undname.obj
 0002:00019014       ??_C@_0P@GCIFDJCJ@?$GAunknown?5ecsu?8?$AA@ 004d5014     LIBCMTD:undname.obj
 0002:00019024       ??_C@_06MOJHIBMG@union?5?$AA@ 004d5024     LIBCMTD:undname.obj
 0002:0001902c       ??_C@_07DIBCDNGL@struct?5?$AA@ 004d502c     LIBCMTD:undname.obj
 0002:00019034       ??_C@_06LJBABKPM@class?5?$AA@ 004d5034     LIBCMTD:undname.obj
 0002:0001903c       ??_C@_08KOFANOFK@coclass?5?$AA@ 004d503c     LIBCMTD:undname.obj
 0002:00019048       ??_C@_0N@DLIEFKNA@cointerface?5?$AA@ 004d5048     LIBCMTD:undname.obj
 0002:00019058       ??_C@_05LJGMCFOG@enum?5?$AA@ 004d5058     LIBCMTD:undname.obj
 0002:00019060       ??_C@_09GAIEOBLP@volatile?5?$AA@ 004d5060     LIBCMTD:undname.obj
 0002:0001906c       ??_C@_06LIJLOJAG@const?5?$AA@ 004d506c     LIBCMTD:undname.obj
 0002:00019074       ??_C@_0M@EALIELKG@cli?3?3array?$DM?$AA@ 004d5074     LIBCMTD:undname.obj
 0002:00019080       ??_C@_0O@GKABPPIF@cli?3?3pin_ptr?$DM?$AA@ 004d5080     LIBCMTD:undname.obj
 0002:00019090       ??_C@_02GOGNNPBN@?$CJ?$FL?$AA@ 004d5090     LIBCMTD:undname.obj
 0002:00019094       ??_C@_06EEGAIFAK@?$HLflat?$HN?$AA@ 004d5094     LIBCMTD:undname.obj
 0002:0001909c       ??_C@_05JIBOFOHK@?$HLfor?5?$AA@ 004d509c     LIBCMTD:undname.obj
 0002:000190a4       ??_C@_02MDINNEEG@s?5?$AA@  004d50a4     LIBCMTD:undname.obj
 0002:000190ac       ??_7DNameNode@@6B@         004d50ac     LIBCMTD:undname.obj
 0002:000190bc       ??_7charNode@@6B@          004d50bc     LIBCMTD:undname.obj
 0002:000190cc       ??_7pcharNode@@6B@         004d50cc     LIBCMTD:undname.obj
 0002:000190dc       ??_7pDNameNode@@6B@        004d50dc     LIBCMTD:undname.obj
 0002:000190ec       ??_7DNameStatusNode@@6B@   004d50ec     LIBCMTD:undname.obj
 0002:000190fc       ??_7pairNode@@6B@          004d50fc     LIBCMTD:undname.obj
 0002:00019108       ??_C@_04OKOHEJBO@?5?$DP?$DP?5?$AA@ 004d5108     LIBCMTD:undname.obj
 0002:00019110       ??_C@_1CA@JGBKKNCE@?$AA_?$AA_?$AAw?$AAs?$AAt?$AAr?$AAg?$AAt?$AAo?$AAl?$AAd?$AA1?$AA2?$AA_?$AAl?$AA?$AA@ 004d5110     LIBCMTD:wstrgtold.obj
 0002:00019130       __load_config_used         004d5130     LIBCMTD:loadcfg.obj
 0002:0001cc24       ??_R4bad_exception@std@@6B@ 004d8c24     LIBCMTD:frame.obj
 0002:0001cc38       ??_R3bad_exception@std@@8  004d8c38     LIBCMTD:frame.obj
 0002:0001cc48       ??_R2bad_exception@std@@8  004d8c48     LIBCMTD:frame.obj
 0002:0001cc54       ??_R1A@?0A@EA@bad_exception@std@@8 004d8c54     LIBCMTD:frame.obj
 0002:0001cc70       ??_R1A@?0A@EA@exception@std@@8 004d8c70     LIBCMTD:frame.obj
 0002:0001cc8c       ??_R3exception@std@@8      004d8c8c     LIBCMTD:frame.obj
 0002:0001cc9c       ??_R2exception@std@@8      004d8c9c     LIBCMTD:frame.obj
 0002:0001cca4       ??_R4type_info@@6B@        004d8ca4     LIBCMTD:typinfo.obj
 0002:0001ccb8       ??_R3type_info@@8          004d8cb8     LIBCMTD:typinfo.obj
 0002:0001ccc8       ??_R2type_info@@8          004d8cc8     LIBCMTD:typinfo.obj
 0002:0001ccd0       ??_R1A@?0A@EA@type_info@@8 004d8cd0     LIBCMTD:typinfo.obj
 0002:0001ccec       ??_R4exception@std@@6B@    004d8cec     LIBCMTD:stdexcpt.obj
 0002:0001cd00       ??_R4bad_cast@std@@6B@     004d8d00     LIBCMTD:stdexcpt.obj
 0002:0001cd14       ??_R3bad_cast@std@@8       004d8d14     LIBCMTD:stdexcpt.obj
 0002:0001cd24       ??_R2bad_cast@std@@8       004d8d24     LIBCMTD:stdexcpt.obj
 0002:0001cd30       ??_R1A@?0A@EA@bad_cast@std@@8 004d8d30     LIBCMTD:stdexcpt.obj
 0002:0001cd4c       ??_R4bad_typeid@std@@6B@   004d8d4c     LIBCMTD:stdexcpt.obj
 0002:0001cd60       ??_R3bad_typeid@std@@8     004d8d60     LIBCMTD:stdexcpt.obj
 0002:0001cd70       ??_R2bad_typeid@std@@8     004d8d70     LIBCMTD:stdexcpt.obj
 0002:0001cd7c       ??_R1A@?0A@EA@bad_typeid@std@@8 004d8d7c     LIBCMTD:stdexcpt.obj
 0002:0001cd98       ??_R4__non_rtti_object@std@@6B@ 004d8d98     LIBCMTD:stdexcpt.obj
 0002:0001cdac       ??_R3__non_rtti_object@std@@8 004d8dac     LIBCMTD:stdexcpt.obj
 0002:0001cdbc       ??_R2__non_rtti_object@std@@8 004d8dbc     LIBCMTD:stdexcpt.obj
 0002:0001cdcc       ??_R1A@?0A@EA@__non_rtti_object@std@@8 004d8dcc     LIBCMTD:stdexcpt.obj
 0002:0001cde8       ??_R4DNameNode@@6B@        004d8de8     LIBCMTD:undname.obj
 0002:0001cdfc       ??_R3DNameNode@@8          004d8dfc     LIBCMTD:undname.obj
 0002:0001ce0c       ??_R2DNameNode@@8          004d8e0c     LIBCMTD:undname.obj
 0002:0001ce14       ??_R1A@?0A@EA@DNameNode@@8 004d8e14     LIBCMTD:undname.obj
 0002:0001ce30       ??_R4charNode@@6B@         004d8e30     LIBCMTD:undname.obj
 0002:0001ce44       ??_R3charNode@@8           004d8e44     LIBCMTD:undname.obj
 0002:0001ce54       ??_R2charNode@@8           004d8e54     LIBCMTD:undname.obj
 0002:0001ce60       ??_R1A@?0A@EA@charNode@@8  004d8e60     LIBCMTD:undname.obj
 0002:0001ce7c       ??_R4pcharNode@@6B@        004d8e7c     LIBCMTD:undname.obj
 0002:0001ce90       ??_R3pcharNode@@8          004d8e90     LIBCMTD:undname.obj
 0002:0001cea0       ??_R2pcharNode@@8          004d8ea0     LIBCMTD:undname.obj
 0002:0001ceac       ??_R1A@?0A@EA@pcharNode@@8 004d8eac     LIBCMTD:undname.obj
 0002:0001cec8       ??_R4pDNameNode@@6B@       004d8ec8     LIBCMTD:undname.obj
 0002:0001cedc       ??_R3pDNameNode@@8         004d8edc     LIBCMTD:undname.obj
 0002:0001ceec       ??_R2pDNameNode@@8         004d8eec     LIBCMTD:undname.obj
 0002:0001cef8       ??_R1A@?0A@EA@pDNameNode@@8 004d8ef8     LIBCMTD:undname.obj
 0002:0001cf14       ??_R4DNameStatusNode@@6B@  004d8f14     LIBCMTD:undname.obj
 0002:0001cf28       ??_R3DNameStatusNode@@8    004d8f28     LIBCMTD:undname.obj
 0002:0001cf38       ??_R2DNameStatusNode@@8    004d8f38     LIBCMTD:undname.obj
 0002:0001cf44       ??_R1A@?0A@EA@DNameStatusNode@@8 004d8f44     LIBCMTD:undname.obj
 0002:0001cf60       ??_R4pairNode@@6B@         004d8f60     LIBCMTD:undname.obj
 0002:0001cf74       ??_R3pairNode@@8           004d8f74     LIBCMTD:undname.obj
 0002:0001cf84       ??_R2pairNode@@8           004d8f84     LIBCMTD:undname.obj
 0002:0001cf90       ??_R1A@?0A@EA@pairNode@@8  004d8f90     LIBCMTD:undname.obj
 0002:0001d160       ___safe_se_handler_table   004d9160     <linker-defined>
 0002:0001d29c       ___rtc_iaa                 004d929c     LIBCMTD:initsect.obj
 0002:0001d4ac       ___rtc_izz                 004d94ac     LIBCMTD:initsect.obj
 0002:0001d5b0       ___rtc_taa                 004d95b0     LIBCMTD:initsect.obj
 0002:0001d7c0       ___rtc_tzz                 004d97c0     LIBCMTD:initsect.obj
 0002:0001e44c       __TI2?AVbad_exception@std@@ 004da44c     LIBCMTD:frame.obj
 0002:0001e45c       __CTA2?AVbad_exception@std@@ 004da45c     LIBCMTD:frame.obj
 0002:0001e468       __CT??_R0?AVbad_exception@std@@@8??0bad_exception@std@@QAE@ABV01@@Z12 004da468     LIBCMTD:frame.obj
 0002:0001e484       __CT??_R0?AVexception@std@@@8??0exception@std@@QAE@ABV01@@Z12 004da484     LIBCMTD:frame.obj
 0003:00000000       _select_timeout            004db000     ship_server.obj
 0003:00000008       _normalName                004db008     ship_server.obj
 0003:0000000c       _globalName                004db00c     ship_server.obj
 0003:00000010       _localName                 004db010     ship_server.obj
 0003:00000014       _Forest1_Online_Maps       004db014     ship_server.obj
 0003:00000028       _Forest1_Offline_Maps      004db028     ship_server.obj
 0003:00000034       _Forest1_Offline_Objects   004db034     ship_server.obj
 0003:00000040       _Forest2_Online_Maps       004db040     ship_server.obj
 0003:00000054       _Forest2_Offline_Maps      004db054     ship_server.obj
 0003:00000060       _Forest2_Offline_Objects   004db060     ship_server.obj
 0003:0000006c       _Cave1_Online_Maps         004db06c     ship_server.obj
 0003:00000084       _Cave1_Offline_Maps        004db084     ship_server.obj
 0003:00000090       _program_hidden            004db090     ship_server.obj
 0003:00000094       _Cave1_Offline_Objects     004db094     ship_server.obj
 0003:000000a0       _Cave2_Online_Maps         004db0a0     ship_server.obj
 0003:000000b8       _Cave2_Offline_Maps        004db0b8     ship_server.obj
 0003:000000c4       _Cave2_Offline_Objects     004db0c4     ship_server.obj
 0003:000000d0       _Cave3_Online_Maps         004db0d0     ship_server.obj
 0003:000000e8       _Cave3_Offline_Maps        004db0e8     ship_server.obj
 0003:000000f4       _Cave3_Offline_Objects     004db0f4     ship_server.obj
 0003:00000100       _Mine1_Online_Maps         004db100     ship_server.obj
 0003:00000118       _Mine2_Online_Maps         004db118     ship_server.obj
 0003:00000130       _Ruins1_Online_Maps        004db130     ship_server.obj
 0003:00000148       _Ruins2_Online_Maps        004db148     ship_server.obj
 0003:00000160       _Ruins3_Online_Maps        004db160     ship_server.obj
 0003:00000178       _Temple1_Online_Maps       004db178     ship_server.obj
 0003:00000180       _Temple1_Offline_Maps      004db180     ship_server.obj
 0003:00000188       _Temple2_Online_Maps       004db188     ship_server.obj
 0003:00000190       _Temple2_Offline_Maps      004db190     ship_server.obj
 0003:00000198       _Spaceship1_Online_Maps    004db198     ship_server.obj
 0003:000001a0       _Spaceship1_Offline_Maps   004db1a0     ship_server.obj
 0003:000001a8       _Spaceship2_Online_Maps    004db1a8     ship_server.obj
 0003:000001b0       _Spaceship2_Offline_Maps   004db1b0     ship_server.obj
 0003:000001b8       _Jungle1_Online_Maps       004db1b8     ship_server.obj
 0003:000001c4       _Jungle1_Offline_Maps      004db1c4     ship_server.obj
 0003:000001d0       _Jungle2_Online_Maps       004db1d0     ship_server.obj
 0003:000001dc       _Jungle2_Offline_Maps      004db1dc     ship_server.obj
 0003:000001e8       _Jungle3_Online_Maps       004db1e8     ship_server.obj
 0003:000001f4       _Jungle3_Offline_Maps      004db1f4     ship_server.obj
 0003:00000200       _Jungle4_Online_Maps       004db200     ship_server.obj
 0003:00000210       _Jungle4_Offline_Maps      004db210     ship_server.obj
 0003:00000220       _Jungle5_Online_Maps       004db220     ship_server.obj
 0003:0000022c       _Jungle5_Offline_Maps      004db22c     ship_server.obj
 0003:00000238       _Seabed1_Online_Maps       004db238     ship_server.obj
 0003:00000248       _Seabed1_Offline_Maps      004db248     ship_server.obj
 0003:00000250       _Seabed2_Online_Maps       004db250     ship_server.obj
 0003:00000260       _Seabed2_Offline_Maps      004db260     ship_server.obj
 0003:00000268       _Crater_East_Online_Maps   004db268     ship_server.obj
 0003:00000274       _Crater_West_Online_Maps   004db274     ship_server.obj
 0003:00000280       _Crater_South_Online_Maps  004db280     ship_server.obj
 0003:0000028c       _Crater_North_Online_Maps  004db28c     ship_server.obj
 0003:00000298       _Crater_Interior_Online_Maps 004db298     ship_server.obj
 0003:000002a4       _Desert1_Online_Maps       004db2a4     ship_server.obj
 0003:000002b0       _Desert2_Online_Maps       004db2b0     ship_server.obj
 0003:000002bc       _Desert3_Online_Maps       004db2bc     ship_server.obj
 0003:000002c8       _size_check_table          004db2c8     ship_server.obj
 0003:000006c8       _dont_send_60              004db6c8     ship_server.obj
 0003:000008c8       _ShipPacket00              004db8c8     ship_server.obj
 0003:00000928       _Packet03                  004db928     ship_server.obj
 0003:000009f0       _Packet08                  004db9f0     ship_server.obj
 0003:00000a24       _Packet66                  004dba24     ship_server.obj
 0003:00000a30       _Packet69                  004dba30     ship_server.obj
 0003:00000a3c       _PacketBF                  004dba3c     ship_server.obj
 0003:00000a4c       _Packet30                  004dba4c     ship_server.obj
 0003:00000a6c       _PacketDA                  004dba6c     ship_server.obj
 0003:00000a74       _warp_packet               004dba74     ship_server.obj
 0003:00000a84       _localgmcount              004dba84     ship_server.obj
 0003:00000a88       _ep2_rtremap               004dba88     ship_server.obj
 0003:00000ae8       _ep4_rtremap               004dbae8     ship_server.obj
 0003:00000b98       _elemental_table           004dbb98     ship_server.obj
 0003:00000bc8       _tool_remap                004dbbc8     ship_server.obj
 0003:00000c38       _unit_drop                 004dbc38     ship_server.obj
 0003:00000c80       _gallons_shop_hopkins      004dbc80     ship_server.obj
 0003:00000d10       _gallon_srank_pds          004dbd10     ship_server.obj
 0003:00000d30       _bp_rappy_normal           004dbd30     ship_server.obj
 0003:00000d80       _bp_rappy_hard             004dbd80     ship_server.obj
 0003:00000dc8       _bp_rappy_vhard            004dbdc8     ship_server.obj
 0003:00000e20       _bp_rappy_ultimate         004dbe20     ship_server.obj
 0003:00000e78       _bp_zu_normal              004dbe78     ship_server.obj
 0003:00000ec8       _bp_zu_hard                004dbec8     ship_server.obj
 0003:00000f18       _bp_zu_vhard               004dbf18     ship_server.obj
 0003:00000f60       _bp_zu_ultimate            004dbf60     ship_server.obj
 0003:00000fb8       _bp_dorphon_normal         004dbfb8     ship_server.obj
 0003:00001010       _bp_dorphon_hard           004dc010     ship_server.obj
 0003:00001060       _bp_dorphon_vhard          004dc060     ship_server.obj
 0003:000010b0       _bp_dorphon_ultimate       004dc0b0     ship_server.obj
 0003:000010fc       _bp2_normal                004dc0fc     ship_server.obj
 0003:00001124       _bp2_hard                  004dc124     ship_server.obj
 0003:00001160       _bp2_vhard                 004dc160     ship_server.obj
 0003:000011a8       _bp2_ultimate              004dc1a8     ship_server.obj
 0003:000011e8       _tekker_attributes         004dc1e8     ship_server.obj
 0003:00001268       _tnlxp                     004dc268     ship_server.obj
 0003:00001588       _ep1_unlocks               004dc588     ship_server.obj
 0003:000015f0       _Feed_Table0               004dc5f0     ship_server.obj
 0003:00001678       _Feed_Table1               004dc678     ship_server.obj
 0003:00001700       _Feed_Table2               004dc700     ship_server.obj
 0003:00001788       _Feed_Table3               004dc788     ship_server.obj
 0003:00001810       _Feed_Table4               004dc810     ship_server.obj
 0003:00001898       _Feed_Table5               004dc898     ship_server.obj
 0003:00001920       _Feed_Table6               004dc920     ship_server.obj
 0003:000019a8       _Feed_Table7               004dc9a8     ship_server.obj
 0003:00001a2c       _jacko_drops               004dca2c     ship_server.obj
 0003:00001a4c       _easter_drops              004dca4c     ship_server.obj
 0003:00001a70       _attrib                    004dca70     ship_server.obj
 0003:00001b18       _armor_prices              004dcb18     ship_server.obj
 0003:00001cf8       _unit_prices               004dccf8     ship_server.obj
 0003:00001df8       _tech_prices               004dcdf8     ship_server.obj
 0003:00001e48       _tool_prices               004dce48     ship_server.obj
 0003:00001f20       _good_luck                 004dcf20     ship_server.obj
 0003:000027c0       __iob                      004dd7c0     LIBCMTD:_file.obj
 0003:00002a40       ?_RTC_ErrorLevels@@3PAHA   004dda40     LIBCMTD:error.obj
 0003:00002a60       ___security_cookie         004dda60     LIBCMTD:gs_cookie.obj
 0003:00002a64       ___security_cookie_complement 004dda64     LIBCMTD:gs_cookie.obj
 0003:00002a68       __fltused                  004dda68     LIBCMTD:fpinit.obj
 0003:00002a6c       __ldused                   004dda6c     LIBCMTD:fpinit.obj
 0003:00002a70       ___abort_behavior          004dda70     LIBCMTD:abort.obj
 0003:00002a80       __pfnAllocHook             004dda80     LIBCMTD:dbghook.obj
 0003:00002a88       __mbctype                  004dda88     LIBCMTD:mbctype.obj
 0003:00002b90       __mbcasemap                004ddb90     LIBCMTD:mbctype.obj
 0003:00002c90       ___initialmbcinfo          004ddc90     LIBCMTD:mbctype.obj
 0003:00002eb4       ___ptmbcinfo               004ddeb4     LIBCMTD:mbctype.obj
 0003:00002fa8       ___flsindex                004ddfa8     LIBCMTD:tidtable.obj
 0003:00002fac       ___mb_cur_max              004ddfac     LIBCMTD:nlsdata.obj
 0003:00002fb0       ___wclocalestr             004ddfb0     LIBCMTD:nlsdata.obj
 0003:00002fb8       ___lc_time_c               004ddfb8     LIBCMTD:nlsdata.obj
 0003:0000311c       ___ptlocinfo               004de11c     LIBCMTD:nlsdata.obj
 0003:00003120       ___initiallocinfo          004de120     LIBCMTD:nlsdata.obj
 0003:000031d8       ___initiallocalestructinfo 004de1d8     LIBCMTD:nlsdata.obj
 0003:000031e0       ___globallocalestatus      004de1e0     LIBCMTD:glstatus.obj
 0003:000031e8       ___isa_enabled             004de1e8     LIBCMTD:cpu_disp.obj
 0003:000031ec       __sys_nerr                 004de1ec     LIBCMTD:syserr.obj
 0003:000031f4       __crtBreakAlloc            004de1f4     LIBCMTD:dbgheap.obj
 0003:000031f8       ___crtDebugFillThreshold   004de1f8     LIBCMTD:dbgheap.obj
 0003:000031fc       __crtDbgFlag               004de1fc     LIBCMTD:dbgheap.obj
 0003:00003330       __cfltcvt_tab              004de330     LIBCMTD:cmiscdat.obj
 0003:00003360       ___badioinfo               004de360     LIBCMTD:ioinit.obj
 0003:000033a0       ___nullstring              004de3a0     LIBCMTD:output.obj
 0003:000033a4       ___wnullstring             004de3a4     LIBCMTD:output.obj
 0003:000033a8       __lookuptrailbytes         004de3a8     LIBCMTD:read.obj
 0003:000034a8       __timezone                 004de4a8     LIBCMTD:timeset.obj
 0003:000034ac       __daylight                 004de4ac     LIBCMTD:timeset.obj
 0003:000034b0       __dstbias                  004de4b0     LIBCMTD:timeset.obj
 0003:00003538       __tzname                   004de538     LIBCMTD:timeset.obj
 0003:00003558       ___lconv                   004de558     LIBCMTD:lconv.obj
 0003:0000355c       ___lconv_static_decimal    004de55c     LIBCMTD:lconv.obj
 0003:00003560       ___lconv_c                 004de560     LIBCMTD:lconv.obj
 0003:000035b0       ___lconv_static_W_decimal  004de5b0     LIBCMTD:lconv.obj
 0003:000035b4       __pctype                   004de5b4     LIBCMTD:ctype.obj
 0003:000035b8       __pwctype                  004de5b8     LIBCMTD:ctype.obj
 0003:000035bc       __CrtDbgMode               004de5bc     LIBCMTD:dbgrptt.obj
 0003:000035c8       __CrtDbgFile               004de5c8     LIBCMTD:dbgrptt.obj
 0003:000035d4       __crtAssertBusy            004de5d4     LIBCMTD:dbgrptt.obj
 0003:000035e0       __NLG_Destination          004de5e0     LIBCMTD:exsup.obj
 0003:000035f0       __days                     004de5f0     LIBCMTD:days.obj
 0003:00003624       __lpdays                   004de624     LIBCMTD:days.obj
 0003:00003660       __HUGE                     004de660     LIBCMTD:huge.obj
 0003:000036a0       __confh                    004de6a0     LIBCMTD:initcon.obj
 0003:000036a8       __pow10pos                 004de6a8     LIBCMTD:constpow.obj
 0003:00003808       __pow10neg                 004de808     LIBCMTD:constpow.obj
 0003:00003e74       ??_R0?AVbad_exception@std@@@8 004dee74     LIBCMTD:frame.obj
 0003:00003e94       ??_R0?AVexception@std@@@8  004dee94     LIBCMTD:frame.obj
 0003:00003eb0       ??_R0?AVtype_info@@@8      004deeb0     LIBCMTD:typinfo.obj
 0003:00003ec8       ??_R0?AVbad_cast@std@@@8   004deec8     LIBCMTD:stdexcpt.obj
 0003:00003ee4       ??_R0?AVbad_typeid@std@@@8 004deee4     LIBCMTD:stdexcpt.obj
 0003:00003f04       ??_R0?AV__non_rtti_object@std@@@8 004def04     LIBCMTD:stdexcpt.obj
 0003:00003f28       ??_R0?AVDNameNode@@@8      004def28     LIBCMTD:undname.obj
 0003:00003f40       ??_R0?AVcharNode@@@8       004def40     LIBCMTD:undname.obj
 0003:00003f58       ??_R0?AVpcharNode@@@8      004def58     LIBCMTD:undname.obj
 0003:00003f70       ??_R0?AVpDNameNode@@@8     004def70     LIBCMTD:undname.obj
 0003:00003f8c       ??_R0?AVDNameStatusNode@@@8 004def8c     LIBCMTD:undname.obj
 0003:00003fac       ??_R0?AVpairNode@@@8       004defac     LIBCMTD:undname.obj
 0003:00004120       _common_rates              004df120     ship_server.obj
 0003:00004134       _kondrieu_rate             004df134     ship_server.obj
 0003:00004138       _common_counters           004df138     ship_server.obj
 0003:0000414c       _Packet07Size              004df14c     ship_server.obj
 0003:00004150       _PacketA0Data              004df150     ship_server.obj
 0003:00008150       _Packet07Data              004e3150     ship_server.obj
 0003:0000c150       _serverIP                  004e7150     ship_server.obj
 0003:0000c154       _autoIP                    004e7154     ship_server.obj
 0003:0000c158       _ship_support_extnpc       004e7158     ship_server.obj
 0003:0000c15c       _serverNumConnections      004e715c     ship_server.obj
 0003:0000c160       _blockConnections          004e7160     ship_server.obj
 0003:0000c164       _blockTick                 004e7164     ship_server.obj
 0003:0000c168       _serverID                  004e7168     ship_server.obj
 0003:0000c16c       _num_masks                 004e716c     ship_server.obj
 0003:0000c170       _ship_banmasks             004e7170     ship_server.obj
 0003:00015db0       _num_bans                  004f0db0     ship_server.obj
 0003:00015db4       _ship_ignore_count         004f0db4     ship_server.obj
 0003:00015db8       _pt_tables_ep1             004f0db8     ship_server.obj
 0003:0003ddb8       _pt_tables_ep2             00518db8     ship_server.obj
 0003:00065db8       _rt_tables_ep1             00540db8     ship_server.obj
 0003:00079db8       _rt_tables_ep2             00554db8     ship_server.obj
 0003:0008ddb8       _rt_tables_ep4             00568db8     ship_server.obj
 0003:000a1db8       _playerLevelData           0057cdb8     ship_server.obj
 0003:000a8e38       _ship_ignore_list          00583e38     ship_server.obj
 0003:000a92e8       _ship_gcsend_list          005842e8     ship_server.obj
 0003:000af0a8       _ship_gcsend_count         0058a0a8     ship_server.obj
 0003:000af0ac       _quest_allow               0058a0ac     ship_server.obj
 0003:000af0b0       _numQuests                 0058a0b0     ship_server.obj
 0003:000af0b4       _questsMemory              0058a0b4     ship_server.obj
 0003:000af0b8       _numLanguages              0058a0b8     ship_server.obj
 0003:000af0bc       _totalShips                0058a0bc     ship_server.obj
 0003:000af0c0       _ep1battle                 0058a0c0     ship_server.obj
 0003:000b2558       _ep2battle                 0058d558     ship_server.obj
 0003:000b59f0       _ep4battle                 005909f0     ship_server.obj
 0003:000b88a0       _ep1battle_off             005938a0     ship_server.obj
 0003:000bbd38       _ep2battle_off             00596d38     ship_server.obj
 0003:000bf1d0       _ep4battle_off             0059a1d0     ship_server.obj
 0003:000c2080       _shops                     0059d080     ship_server.obj
 0003:0042d080       _armor_equip_table         00908080     ship_server.obj
 0003:0042d180       _barrier_equip_table       00908180     ship_server.obj
 0003:0042d280       _armor_level_table         00908280     ship_server.obj
 0003:0042d380       _barrier_level_table       00908380     ship_server.obj
 0003:0042d480       _armor_dfpvar_table        00908480     ship_server.obj
 0003:0042d580       _barrier_dfpvar_table      00908580     ship_server.obj
 0003:0042d680       _armor_evpvar_table        00908680     ship_server.obj
 0003:0042d780       _barrier_evpvar_table      00908780     ship_server.obj
 0003:0042d880       _weapon_equip_table        00908880     ship_server.obj
 0003:0043d880       _weapon_atpmax_table       00918880     ship_server.obj
 0003:0045d880       _grind_table               00938880     ship_server.obj
 0003:0046d880       _special_table             00948880     ship_server.obj
 0003:0047d880       _stackable_table           00958880     ship_server.obj
 0003:0047d980       _equip_prices              00958980     ship_server.obj
 0003:004ae580       _logon_tick                00989580     ship_server.obj
 0003:004ae584       _logon_ready               00989584     ship_server.obj
 0003:004ae588       _sort_data                 00989588     ship_server.obj
 0003:004ae8d0       _bank_data                 009898d0     ship_server.obj
 0003:004afb90       _csv_lines                 0098ab90     ship_server.obj
 0003:0059f0d0       __umaskval                 00a7a0d0     LIBCMTD:crt0dat.obj
 0003:0059f0d4       __exitflag                 00a7a0d4     LIBCMTD:crt0dat.obj
 0003:0059f0d8       __C_Termination_Done       00a7a0d8     LIBCMTD:crt0dat.obj
 0003:0059f0dc       ___winitenv                00a7a0dc     LIBCMTD:crt0dat.obj
 0003:0059f0e0       ___initenv                 00a7a0e0     LIBCMTD:crt0dat.obj
 0003:0059f0e4       ___argc                    00a7a0e4     LIBCMTD:crt0dat.obj
 0003:0059f0e8       ___argv                    00a7a0e8     LIBCMTD:crt0dat.obj
 0003:0059f0ec       ___wargv                   00a7a0ec     LIBCMTD:crt0dat.obj
 0003:0059f0f0       __environ                  00a7a0f0     LIBCMTD:crt0dat.obj
 0003:0059f0f4       __wenviron                 00a7a0f4     LIBCMTD:crt0dat.obj
 0003:0059f0f8       __pgmptr                   00a7a0f8     LIBCMTD:crt0dat.obj
 0003:0059f0fc       __wpgmptr                  00a7a0fc     LIBCMTD:crt0dat.obj
 0003:0059f100       __C_Exit_Done              00a7a100     LIBCMTD:crt0dat.obj
 0003:0059f104       __cflush                   00a7a104     LIBCMTD:_file.obj
 0003:0059f110       ?wsprintffp@@3P6AHPADPBDZZA 00a7a110     LIBCMTD:error.obj
 0003:0059f114       ___fastflag                00a7a114     LIBCMTD:fpinit.obj
 0003:0059f118       __aenvptr                  00a7a118     LIBCMTD:crt0.obj
 0003:0059f11c       __wenvptr                  00a7a11c     LIBCMTD:crt0.obj
 0003:0059f128       ___mbcodepage              00a7a128     LIBCMTD:mbctype.obj
 0003:0059f12c       ___ismbcodepage            00a7a12c     LIBCMTD:mbctype.obj
 0003:0059f130       ___mbulinfo                00a7a130     LIBCMTD:mbctype.obj
 0003:0059f13c       ___mblocalename            00a7a13c     LIBCMTD:mbctype.obj
 0003:0059f144       ___locale_changed          00a7a144     LIBCMTD:wsetloca.obj
 0003:0059f148       ___isa_available           00a7a148     LIBCMTD:cpu_disp.obj
 0003:0059f14c       ___favor                   00a7a14c     LIBCMTD:cpu_disp.obj
 0003:0059f150       ___pInvalidArgHandler      00a7a150     LIBCMTD:invarg.obj
 0003:0059f154       ___crtDebugCheckCount      00a7a154     LIBCMTD:dbgheap.obj
 0003:0059f15c       ?_pfnDumpClient@@3P6AXPAXI@ZA 00a7a15c     LIBCMTD:dbgheap.obj
 0003:0059f2e0       ___app_type                00a7a2e0     LIBCMTD:crt0msg.obj
 0003:0059f910       ?__pInconsistency@@3P6AXXZA 00a7a910     LIBCMTD:hooks.obj
 0003:0059f914       ?_pnhHeap@@3P6AHI@ZA       00a7a914     LIBCMTD:handler.obj
 0003:0059f918       ___pPurecall               00a7a918     LIBCMTD:inithelp.obj
 0003:0059f934       __stdbuf                   00a7a934     LIBCMTD:_sftbuf.obj
 0003:0059f93c       __newmode                  00a7a93c     LIBCMTD:_newmode.obj
 0003:0059f940       ___pioinfo                 00a7a940     LIBCMTD:ioinit.obj
 0003:0059fa50       __crtheap                  00a7aa50     LIBCMTD:heapinit.obj
 0003:0059fb60       ___error_mode              00a7ab60     LIBCMTD:errmode.obj
 0003:0059fc24       ___lconv_static_null       00a7ac24     LIBCMTD:lconv.obj
 0003:0059fc28       ___lconv_static_W_null     00a7ac28     LIBCMTD:lconv.obj
 0003:0059fc44       __commode                  00a7ac44     LIBCMTD:ncommode.obj
 0003:0059fc48       __outputformat             00a7ac48     LIBCMTD:outputformat.obj
 0003:0059fc4c       ?g_OutOfMemoryExceptionCallback@@3P6GPAXXZA 00a7ac4c     LIBCMTD:frame.obj
 0003:0059fc58       __fmode                    00a7ac58     LIBCMTD:txtmode.obj
 0003:0059fc5c       ?pArgList@UnDecorator@@0PAVReplicator@@A 00a7ac5c     LIBCMTD:undname.obj
 0003:0059fc60       ?pZNameList@UnDecorator@@0PAVReplicator@@A 00a7ac60     LIBCMTD:undname.obj
 0003:0059fc64       ?pTemplateArgList@UnDecorator@@0PAVReplicator@@A 00a7ac64     LIBCMTD:undname.obj
 0003:0059fc68       ?gName@UnDecorator@@0PBDB  00a7ac68     LIBCMTD:undname.obj
 0003:0059fc6c       ?name@UnDecorator@@0PBDB   00a7ac6c     LIBCMTD:undname.obj
 0003:0059fc70       ?outputString@UnDecorator@@0PADA 00a7ac70     LIBCMTD:undname.obj
 0003:0059fc74       ?maxStringLength@UnDecorator@@0HA 00a7ac74     LIBCMTD:undname.obj
 0003:0059fc78       ?disableFlags@UnDecorator@@0KA 00a7ac78     LIBCMTD:undname.obj
 0003:0059fc7c       ?fExplicitTemplateParams@UnDecorator@@0_NA 00a7ac7c     LIBCMTD:undname.obj
 0003:0059fc7d       ?fGetTemplateArgumentList@UnDecorator@@0_NA 00a7ac7d     LIBCMTD:undname.obj
 0003:0059fc80       ?m_pGetParameter@UnDecorator@@0P6APADJ@ZA 00a7ac80     LIBCMTD:undname.obj
 0003:0059fce8       ?nodes@?1??make@DNameStatusNode@@SAPAV2@W4DNameStatus@@@Z@4PAV2@A 00a7ace8     LIBCMTD:undname.obj
 0003:0059fd18       ??_B?1??make@DNameStatusNode@@SAPAV1@W4DNameStatus@@@Z@51 00a7ad18     LIBCMTD:undname.obj
 0003:0059fd20       _character_file            00a7ad20     <common>
 0003:00a59600       _myArgs                    00f34600     <common>
 0003:00a59700       _myCommand                 00f34700     <common>
 0003:00a59720       _cmdBuf                    00f34720     <common>
 0003:00a5a6c0       _chatBuf                   00f356c0     <common>
 0003:00a5b660       _localgmrights             00f36660     <common>
 0003:00a5b6a0       _localgms                  00f366a0     <common>
 0003:00a5b9c0       _csv_params                00f369c0     <common>
 0003:00a9b9c0       _qpdc_buffer               00f769c0     <common>
 0003:00adb9e0       _qpd_buffer                00fb69e0     <common>
 0003:00b1b9e0       _logon                     00ff69e0     <common>
 0003:00b1b9e4       _workConnect               00ff69e4     <common>
 0003:00b1b9e8       _logon_connecion           00ff69e8     <common>
 0003:00b1ba00       _connections               00ff6a00     <common>
 0003:00b1c820       _logon_structure           00ff7820     <common>
 0003:00d3fad8       _consoleHwnd               0121aad8     <common>
 0003:00d3fadc       _cipher_ptr                0121aadc     <common>
 0003:00d3fae0       _max_tech_level            0121aae0     <common>
 0003:00d3fbe0       _ship_key                  0121abe0     <common>
 0003:00d3fc60       _ship_index                0121ac60     <common>
 0003:00d3fc80       _shopidx                   0121ac80     <common>
 0003:00d3ffa0       _shop_checksum             0121afa0     <common>
 0003:00d3ffa4       _battle_count              0121afa4     <common>
 0003:00d3ffc0       _languageNames             0121afc0     <common>
 0003:00d40000       _languageExts              0121b000     <common>
 0003:00d40028       _quest_numallows           0121b028     <common>
 0003:00d40040       _quest_menus               0121b040     <common>
 0003:00d52e60       _quests                    0122de60     <common>
 0003:00d59660       _blocks                    01234660     <common>
 0003:00d596a0       _shipdata                  012346a0     <common>
 0003:00d5a000       _Ship_Name                 01235000     <common>
 0003:00d5a100       _dp                        01235100     <common>
 0003:00d98900       _savedlobbies              01273900     <common>
 0003:00d989a0       _ExceptFDs                 012739a0     <common>
 0003:00d98ac0       _WriteFDs                  01273ac0     <common>
 0003:00d98be0       _ReadFDs                   01273be0     <common>
 0003:00d98d00       _startingData              01273d00     <common>
 0003:00d98dc0       _attachment_ep2            01273dc0     <common>
 0003:00f28de0       _percent_patterns_ep2      01403de0     <common>
 0003:01018e00       _power_patterns_ep2        014f3e00     <common>
 0003:010b8e20       _tool_drops_ep2            01593e20     <common>
 0003:01248e40       _tech_drops_ep2            01723e40     <common>
 0003:013d8e60       _slots_ep2                 018b3e60     <common>
 0003:01400e80       _weapon_drops_ep2          018dbe80     <common>
 0003:01720ea0       _attachment_ep1            01bfbea0     <common>
 0003:018b0ec0       _percent_patterns_ep1      01d8bec0     <common>
 0003:019a0ee0       _power_patterns_ep1        01e7bee0     <common>
 0003:01a40f00       _tool_drops_ep1            01f1bf00     <common>
 0003:01bd0f20       _tech_drops_ep1            020abf20     <common>
 0003:01d60f40       _slots_ep1                 0223bf40     <common>
 0003:01d88f60       _weapon_drops_ep1          02263f60     <common>
 0003:020a8f80       _ship_bandata              02583f80     <common>
 0003:020c6440       _servertime                025a1440     <common>
 0003:020c6448       _shipEvent                 025a1448     <common>
 0003:020c644a       _serverBlocks              025a144a     <common>
 0003:020c6460       _serverConnectionList      025a1460     <common>
 0003:020c7270       _serverMaxConnections      025a2270     <common>
 0003:020c7272       _serverPort                025a2272     <common>
 0003:020c7274       _loginIP                   025a2274     <common>
 0003:020c7280       _tmprcv                    025a2280     <common>
 0003:021c12a0       _PacketData2               0269c2a0     <common>
 0003:021d0ca0       _PacketData                026abca0     <common>
 0003:021e06a0       _common_table              026bb6a0     <common>
 0003:021f8d40       _dorphon_rate              026d3d40     <common>
 0003:021f8d44       _pazuzu_rate               026d3d44     <common>
 0003:021f8d48       _merissa_rate              026d3d48     <common>
 0003:021f8d4c       _slime_rate                026d3d4c     <common>
 0003:021f8d50       _lily_rate                 026d3d50     <common>
 0003:021f8d54       _rappy_rate                026d3d54     <common>
 0003:021f8d58       _hildebear_rate            026d3d58     <common>
 0003:021f8d5c       _EXPERIENCE_RATE           026d3d5c     <common>
 0003:021f8d60       _MESETA_DROP_RATE          026d3d60     <common>
 0003:021f8d64       _TOOL_DROP_RATE            026d3d64     <common>
 0003:021f8d68       _MAG_DROP_RATE             026d3d68     <common>
 0003:021f8d6c       _ARMOR_DROP_RATE           026d3d6c     <common>
 0003:021f8d70       _WEAPON_DROP_RATE          026d3d70     <common>
 0003:021f8d74       _debugfile                 026d3d74     <common>
 0003:021f8d78       _mt_64_to_double           026d3d78     <common>
 0003:021f8f80       _mt_default_state          026d3f80     <common>
 0003:021f9948       _mt_32_to_double           026d4948     <common>
 0003:021f9950       __pReportHookListW         026d4950     <common>
 0003:021f9960       __pReportHookList          026d4960     <common>
 0003:021f9964       __pfnReportHook            026d4964     <common>
 0003:021f9968       __nhandle                  026d4968     <common>
 0003:021f9974       ___unguarded_readlc_active 026d4974     <common>
 0003:021f9984       ___setlc_active            026d4984     <common>
 0003:021f99a0       _encodedKERNEL32Functions  026d49a0     <common>
 0003:021f9a48       __debugger_hook_dummy      026d4a48     <common>
 0003:021f9a54       __acmdln                   026d4a54     <common>
 0003:021f9a60       __bufin                    026d4a60     <common>
 0003:021fad9c       ___piob                    026d5d9c     <common>
 0003:021fada0       __nstream                  026d5da0     <common>
 0003:021fada4       ___dyn_tls_init_callback   026d5da4     <common>
 0003:021fadb4       ___onexitend               026d5db4     <common>
 0003:021fadb8       ___onexitbegin             026d5db8     <common>
 0003:021fadbc       ___mbctype_initialized     026d5dbc     <common>
 0003:021fadc0       ___env_initialized         026d5dc0     <common>
 0004:00000000       __imp__GetStockObject@4    026d6000     gdi32:GDI32.dll
 0004:00000004       \177GDI32_NULL_THUNK_DATA  026d6004     gdi32:GDI32.dll
 0004:00000030       __imp__CreateFileW@28      026d6030     kernel32:KERNEL32.dll
 0004:00000034       __imp__SetStdHandle@8      026d6034     kernel32:KERNEL32.dll
 0004:00000038       __imp__FlushFileBuffers@4  026d6038     kernel32:KERNEL32.dll
 0004:0000003c       __imp__HeapQueryInformation@20 026d603c     kernel32:KERNEL32.dll
 0004:00000040       __imp__HeapSize@12         026d6040     kernel32:KERNEL32.dll
 0004:00000044       __imp__HeapReAlloc@16      026d6044     kernel32:KERNEL32.dll
 0004:00000048       __imp__WriteConsoleW@20    026d6048     kernel32:KERNEL32.dll
 0004:0000004c       __imp__OutputDebugStringA@4 026d604c     kernel32:KERNEL32.dll
 0004:00000050       __imp__CreateThread@24     026d6050     kernel32:KERNEL32.dll
 0004:00000054       __imp__WaitForSingleObjectEx@12 026d6054     kernel32:KERNEL32.dll
 0004:00000058       __imp__OutputDebugStringW@4 026d6058     kernel32:KERNEL32.dll
 0004:0000005c       __imp__EnumSystemLocalesW@8 026d605c     kernel32:KERNEL32.dll
 0004:00000060       __imp__GetUserDefaultLCID@0 026d6060     kernel32:KERNEL32.dll
 0004:00000064       __imp__IsValidLocale@8     026d6064     kernel32:KERNEL32.dll
 0004:00000068       __imp__GetLocaleInfoW@16   026d6068     kernel32:KERNEL32.dll
 0004:0000006c       __imp__LCMapStringW@24     026d606c     kernel32:KERNEL32.dll
 0004:00000070       __imp__SetEndOfFile@4      026d6070     kernel32:KERNEL32.dll
 0004:00000074       __imp__GetModuleHandleA@4  026d6074     kernel32:KERNEL32.dll
 0004:00000078       __imp__SetConsoleTitleA@4  026d6078     kernel32:KERNEL32.dll
 0004:0000007c       __imp__GetConsoleWindow@0  026d607c     kernel32:KERNEL32.dll
 0004:00000080       __imp__CompareStringW@24   026d6080     kernel32:KERNEL32.dll
 0004:00000084       __imp__GetTimeFormatW@24   026d6084     kernel32:KERNEL32.dll
 0004:00000088       __imp__GetDateFormatW@24   026d6088     kernel32:KERNEL32.dll
 0004:0000008c       __imp__GetStringTypeW@16   026d608c     kernel32:KERNEL32.dll
 0004:00000090       __imp__FreeEnvironmentStringsW@4 026d6090     kernel32:KERNEL32.dll
 0004:00000094       __imp__GetEnvironmentStringsW@0 026d6094     kernel32:KERNEL32.dll
 0004:00000098       __imp__GetCurrentProcessId@0 026d6098     kernel32:KERNEL32.dll
 0004:0000009c       __imp__QueryPerformanceCounter@4 026d609c     kernel32:KERNEL32.dll
 0004:000000a0       __imp__GetModuleFileNameA@12 026d60a0     kernel32:KERNEL32.dll
 0004:000000a4       __imp__VirtualQuery@12     026d60a4     kernel32:KERNEL32.dll
 0004:000000a8       __imp__GetProcessHeap@0    026d60a8     kernel32:KERNEL32.dll
 0004:000000ac       __imp__HeapFree@12         026d60ac     kernel32:KERNEL32.dll
 0004:000000b0       __imp__HeapAlloc@12        026d60b0     kernel32:KERNEL32.dll
 0004:000000b4       __imp__GetLocalTime@4      026d60b4     kernel32:KERNEL32.dll
 0004:000000b8       __imp__Sleep@4             026d60b8     kernel32:KERNEL32.dll
 0004:000000bc       __imp__GetConsoleCP@0      026d60bc     kernel32:KERNEL32.dll
 0004:000000c0       __imp__SetFilePointerEx@20 026d60c0     kernel32:KERNEL32.dll
 0004:000000c4       __imp__IsDebuggerPresent@0 026d60c4     kernel32:KERNEL32.dll
 0004:000000c8       __imp__IsProcessorFeaturePresent@4 026d60c8     kernel32:KERNEL32.dll
 0004:000000cc       __imp__EncodePointer@4     026d60cc     kernel32:KERNEL32.dll
 0004:000000d0       __imp__DecodePointer@4     026d60d0     kernel32:KERNEL32.dll
 0004:000000d4       __imp__GetLastError@0      026d60d4     kernel32:KERNEL32.dll
 0004:000000d8       __imp__ExitProcess@4       026d60d8     kernel32:KERNEL32.dll
 0004:000000dc       __imp__GetModuleHandleExW@12 026d60dc     kernel32:KERNEL32.dll
 0004:000000e0       __imp__GetProcAddress@8    026d60e0     kernel32:KERNEL32.dll
 0004:000000e4       __imp__AreFileApisANSI@0   026d60e4     kernel32:KERNEL32.dll
 0004:000000e8       __imp__MultiByteToWideChar@24 026d60e8     kernel32:KERNEL32.dll
 0004:000000ec       __imp__WideCharToMultiByte@32 026d60ec     kernel32:KERNEL32.dll
 0004:000000f0       __imp__EnterCriticalSection@4 026d60f0     kernel32:KERNEL32.dll
 0004:000000f4       __imp__LeaveCriticalSection@4 026d60f4     kernel32:KERNEL32.dll
 0004:000000f8       __imp__ReadFile@20         026d60f8     kernel32:KERNEL32.dll
 0004:000000fc       __imp__GetSystemTimeAsFileTime@4 026d60fc     kernel32:KERNEL32.dll
 0004:00000100       __imp__RaiseException@16   026d6100     kernel32:KERNEL32.dll
 0004:00000104       __imp__LoadLibraryExW@12   026d6104     kernel32:KERNEL32.dll
 0004:00000108       __imp__GetCommandLineA@0   026d6108     kernel32:KERNEL32.dll
 0004:0000010c       __imp__GetTimeZoneInformation@4 026d610c     kernel32:KERNEL32.dll
 0004:00000110       __imp__UnhandledExceptionFilter@4 026d6110     kernel32:KERNEL32.dll
 0004:00000114       __imp__SetUnhandledExceptionFilter@4 026d6114     kernel32:KERNEL32.dll
 0004:00000118       __imp__SetLastError@4      026d6118     kernel32:KERNEL32.dll
 0004:0000011c       __imp__InitializeCriticalSectionAndSpinCount@8 026d611c     kernel32:KERNEL32.dll
 0004:00000120       __imp__CreateEventW@16     026d6120     kernel32:KERNEL32.dll
 0004:00000124       __imp__SetEnvironmentVariableA@8 026d6124     kernel32:KERNEL32.dll
 0004:00000128       __imp__GetCurrentProcess@0 026d6128     kernel32:KERNEL32.dll
 0004:0000012c       __imp__TerminateProcess@8  026d612c     kernel32:KERNEL32.dll
 0004:00000130       __imp__TlsAlloc@0          026d6130     kernel32:KERNEL32.dll
 0004:00000134       __imp__TlsGetValue@4       026d6134     kernel32:KERNEL32.dll
 0004:00000138       __imp__TlsSetValue@8       026d6138     kernel32:KERNEL32.dll
 0004:0000013c       __imp__TlsFree@4           026d613c     kernel32:KERNEL32.dll
 0004:00000140       __imp__GetStartupInfoW@4   026d6140     kernel32:KERNEL32.dll
 0004:00000144       __imp__GetTickCount@0      026d6144     kernel32:KERNEL32.dll
 0004:00000148       __imp__GetModuleHandleW@4  026d6148     kernel32:KERNEL32.dll
 0004:0000014c       __imp__CreateSemaphoreW@16 026d614c     kernel32:KERNEL32.dll
 0004:00000150       __imp__IsValidCodePage@4   026d6150     kernel32:KERNEL32.dll
 0004:00000154       __imp__GetACP@0            026d6154     kernel32:KERNEL32.dll
 0004:00000158       __imp__GetOEMCP@0          026d6158     kernel32:KERNEL32.dll
 0004:0000015c       __imp__GetCPInfo@8         026d615c     kernel32:KERNEL32.dll
 0004:00000160       __imp__GetCurrentThread@0  026d6160     kernel32:KERNEL32.dll
 0004:00000164       __imp__GetCurrentThreadId@0 026d6164     kernel32:KERNEL32.dll
 0004:00000168       __imp__GetModuleFileNameW@12 026d6168     kernel32:KERNEL32.dll
 0004:0000016c       __imp__HeapValidate@12     026d616c     kernel32:KERNEL32.dll
 0004:00000170       __imp__GetSystemInfo@4     026d6170     kernel32:KERNEL32.dll
 0004:00000174       __imp__DeleteCriticalSection@4 026d6174     kernel32:KERNEL32.dll
 0004:00000178       __imp__FatalAppExitA@8     026d6178     kernel32:KERNEL32.dll
 0004:0000017c       __imp__GetStdHandle@4      026d617c     kernel32:KERNEL32.dll
 0004:00000180       __imp__WriteFile@20        026d6180     kernel32:KERNEL32.dll
 0004:00000184       __imp__SetConsoleCtrlHandler@8 026d6184     kernel32:KERNEL32.dll
 0004:00000188       __imp__FreeLibrary@4       026d6188     kernel32:KERNEL32.dll
 0004:0000018c       __imp__CloseHandle@4       026d618c     kernel32:KERNEL32.dll
 0004:00000190       __imp__GetFileType@4       026d6190     kernel32:KERNEL32.dll
 0004:00000194       __imp__RtlUnwind@16        026d6194     kernel32:KERNEL32.dll
 0004:00000198       __imp__GetConsoleMode@8    026d6198     kernel32:KERNEL32.dll
 0004:0000019c       __imp__ReadConsoleW@20     026d619c     kernel32:KERNEL32.dll
 0004:000001a0       \177KERNEL32_NULL_THUNK_DATA 026d61a0     kernel32:KERNEL32.dll
 0004:00000214       __imp__Shell_NotifyIconA@8 026d6214     shell32:SHELL32.dll
 0004:00000218       \177SHELL32_NULL_THUNK_DATA 026d6218     shell32:SHELL32.dll
 0004:00000244       __imp__LoadIconA@8         026d6244     user32:USER32.dll
 0004:00000248       __imp__LoadCursorA@8       026d6248     user32:USER32.dll
 0004:0000024c       __imp__SetForegroundWindow@4 026d624c     user32:USER32.dll
 0004:00000250       __imp__UpdateWindow@4      026d6250     user32:USER32.dll
 0004:00000254       __imp__SetFocus@4          026d6254     user32:USER32.dll
 0004:00000258       __imp__ShowWindow@8        026d6258     user32:USER32.dll
 0004:0000025c       __imp__CreateWindowExA@48  026d625c     user32:USER32.dll
 0004:00000260       __imp__RegisterClassA@4    026d6260     user32:USER32.dll
 0004:00000264       __imp__DefWindowProcA@16   026d6264     user32:USER32.dll
 0004:00000268       __imp__PeekMessageA@20     026d6268     user32:USER32.dll
 0004:0000026c       __imp__DispatchMessageA@4  026d626c     user32:USER32.dll
 0004:00000270       __imp__TranslateMessage@4  026d6270     user32:USER32.dll
 0004:00000274       \177USER32_NULL_THUNK_DATA 026d6274     user32:USER32.dll
 0004:000002a8       __imp__WSAGetLastError@0   026d62a8     wsock32:WSOCK32.dll
 0004:000002ac       __imp__WSAStartup@8        026d62ac     wsock32:WSOCK32.dll
 0004:000002b0       __imp__gethostbyname@4     026d62b0     wsock32:WSOCK32.dll
 0004:000002b4       __imp__socket@12           026d62b4     wsock32:WSOCK32.dll
 0004:000002b8       __imp__setsockopt@20       026d62b8     wsock32:WSOCK32.dll
 0004:000002bc       __imp__send@16             026d62bc     wsock32:WSOCK32.dll
 0004:000002c0       __imp__select@20           026d62c0     wsock32:WSOCK32.dll
 0004:000002c4       __imp__recv@16             026d62c4     wsock32:WSOCK32.dll
 0004:000002c8       __imp__listen@8            026d62c8     wsock32:WSOCK32.dll
 0004:000002cc       __imp__inet_ntoa@4         026d62cc     wsock32:WSOCK32.dll
 0004:000002d0       __imp__inet_addr@4         026d62d0     wsock32:WSOCK32.dll
 0004:000002d4       __imp__htons@4             026d62d4     wsock32:WSOCK32.dll
 0004:000002d8       __imp__connect@12          026d62d8     wsock32:WSOCK32.dll
 0004:000002dc       __imp__closesocket@4       026d62dc     wsock32:WSOCK32.dll
 0004:000002e0       __imp__bind@12             026d62e0     wsock32:WSOCK32.dll
 0004:000002e4       __imp__accept@12           026d62e4     wsock32:WSOCK32.dll
 0004:000002e8       __imp____WSAFDIsSet@8      026d62e8     wsock32:WSOCK32.dll
 0004:000002ec       \177WSOCK32_NULL_THUNK_DATA 026d62ec     wsock32:WSOCK32.dll
 0004:00000324       __IMPORT_DESCRIPTOR_WSOCK32 026d6324     wsock32:WSOCK32.dll
 0004:00000338       __IMPORT_DESCRIPTOR_KERNEL32 026d6338     kernel32:KERNEL32.dll
 0004:0000034c       __IMPORT_DESCRIPTOR_USER32 026d634c     user32:USER32.dll
 0004:00000360       __IMPORT_DESCRIPTOR_GDI32  026d6360     gdi32:GDI32.dll
 0004:00000374       __IMPORT_DESCRIPTOR_SHELL32 026d6374     shell32:SHELL32.dll
 0004:00000388       __NULL_IMPORT_DESCRIPTOR   026d6388     wsock32:WSOCK32.dll

 entry point at        0001:0004e8b0

